
/bin/ls:     file format elf64-littleaarch64


Disassembly of section .init:

0000000000003768 <.init>:
    3768:	d503201f 	nop
    376c:	a9bf7bfd 	stp	x29, x30, [sp, #-16]!
    3770:	910003fd 	mov	x29, sp
    3774:	940009a0 	bl	5df4 <setlocale@plt+0x1f94>
    3778:	a8c17bfd 	ldp	x29, x30, [sp], #16
    377c:	d65f03c0 	ret

Disassembly of section .plt:

0000000000003780 <mbrtowc@plt-0x20>:
    3780:	a9bf7bf0 	stp	x16, x30, [sp, #-16]!
    3784:	90000170 	adrp	x16, 2f000 <_obstack_memory_used@@Base+0x221c0>
    3788:	f9460611 	ldr	x17, [x16, #3080]
    378c:	91302210 	add	x16, x16, #0xc08
    3790:	d61f0220 	br	x17
    3794:	d503201f 	nop
    3798:	d503201f 	nop
    379c:	d503201f 	nop

00000000000037a0 <mbrtowc@plt>:
    37a0:	90000170 	adrp	x16, 2f000 <_obstack_memory_used@@Base+0x221c0>
    37a4:	f9460a11 	ldr	x17, [x16, #3088]
    37a8:	91304210 	add	x16, x16, #0xc10
    37ac:	d61f0220 	br	x17

00000000000037b0 <memcpy@plt>:
    37b0:	90000170 	adrp	x16, 2f000 <_obstack_memory_used@@Base+0x221c0>
    37b4:	f9460e11 	ldr	x17, [x16, #3096]
    37b8:	91306210 	add	x16, x16, #0xc18
    37bc:	d61f0220 	br	x17

00000000000037c0 <memmove@plt>:
    37c0:	90000170 	adrp	x16, 2f000 <_obstack_memory_used@@Base+0x221c0>
    37c4:	f9461211 	ldr	x17, [x16, #3104]
    37c8:	91308210 	add	x16, x16, #0xc20
    37cc:	d61f0220 	br	x17

00000000000037d0 <_exit@plt>:
    37d0:	90000170 	adrp	x16, 2f000 <_obstack_memory_used@@Base+0x221c0>
    37d4:	f9461611 	ldr	x17, [x16, #3112]
    37d8:	9130a210 	add	x16, x16, #0xc28
    37dc:	d61f0220 	br	x17

00000000000037e0 <getcwd@plt>:
    37e0:	90000170 	adrp	x16, 2f000 <_obstack_memory_used@@Base+0x221c0>
    37e4:	f9461a11 	ldr	x17, [x16, #3120]
    37e8:	9130c210 	add	x16, x16, #0xc30
    37ec:	d61f0220 	br	x17

00000000000037f0 <fwrite_unlocked@plt>:
    37f0:	90000170 	adrp	x16, 2f000 <_obstack_memory_used@@Base+0x221c0>
    37f4:	f9461e11 	ldr	x17, [x16, #3128]
    37f8:	9130e210 	add	x16, x16, #0xc38
    37fc:	d61f0220 	br	x17

0000000000003800 <strlen@plt>:
    3800:	90000170 	adrp	x16, 2f000 <_obstack_memory_used@@Base+0x221c0>
    3804:	f9462211 	ldr	x17, [x16, #3136]
    3808:	91310210 	add	x16, x16, #0xc40
    380c:	d61f0220 	br	x17

0000000000003810 <__sprintf_chk@plt>:
    3810:	90000170 	adrp	x16, 2f000 <_obstack_memory_used@@Base+0x221c0>
    3814:	f9462611 	ldr	x17, [x16, #3144]
    3818:	91312210 	add	x16, x16, #0xc48
    381c:	d61f0220 	br	x17

0000000000003820 <mbstowcs@plt>:
    3820:	90000170 	adrp	x16, 2f000 <_obstack_memory_used@@Base+0x221c0>
    3824:	f9462a11 	ldr	x17, [x16, #3152]
    3828:	91314210 	add	x16, x16, #0xc50
    382c:	d61f0220 	br	x17

0000000000003830 <exit@plt>:
    3830:	90000170 	adrp	x16, 2f000 <_obstack_memory_used@@Base+0x221c0>
    3834:	f9462e11 	ldr	x17, [x16, #3160]
    3838:	91316210 	add	x16, x16, #0xc58
    383c:	d61f0220 	br	x17

0000000000003840 <_setjmp@plt>:
    3840:	90000170 	adrp	x16, 2f000 <_obstack_memory_used@@Base+0x221c0>
    3844:	f9463211 	ldr	x17, [x16, #3168]
    3848:	91318210 	add	x16, x16, #0xc60
    384c:	d61f0220 	br	x17

0000000000003850 <raise@plt>:
    3850:	90000170 	adrp	x16, 2f000 <_obstack_memory_used@@Base+0x221c0>
    3854:	f9463611 	ldr	x17, [x16, #3176]
    3858:	9131a210 	add	x16, x16, #0xc68
    385c:	d61f0220 	br	x17

0000000000003860 <__libc_start_main@plt>:
    3860:	90000170 	adrp	x16, 2f000 <_obstack_memory_used@@Base+0x221c0>
    3864:	f9463a11 	ldr	x17, [x16, #3184]
    3868:	9131c210 	add	x16, x16, #0xc70
    386c:	d61f0220 	br	x17

0000000000003870 <error@plt>:
    3870:	90000170 	adrp	x16, 2f000 <_obstack_memory_used@@Base+0x221c0>
    3874:	f9463e11 	ldr	x17, [x16, #3192]
    3878:	9131e210 	add	x16, x16, #0xc78
    387c:	d61f0220 	br	x17

0000000000003880 <sigprocmask@plt>:
    3880:	90000170 	adrp	x16, 2f000 <_obstack_memory_used@@Base+0x221c0>
    3884:	f9464211 	ldr	x17, [x16, #3200]
    3888:	91320210 	add	x16, x16, #0xc80
    388c:	d61f0220 	br	x17

0000000000003890 <localtime_r@plt>:
    3890:	90000170 	adrp	x16, 2f000 <_obstack_memory_used@@Base+0x221c0>
    3894:	f9464611 	ldr	x17, [x16, #3208]
    3898:	91322210 	add	x16, x16, #0xc88
    389c:	d61f0220 	br	x17

00000000000038a0 <setenv@plt>:
    38a0:	90000170 	adrp	x16, 2f000 <_obstack_memory_used@@Base+0x221c0>
    38a4:	f9464a11 	ldr	x17, [x16, #3216]
    38a8:	91324210 	add	x16, x16, #0xc90
    38ac:	d61f0220 	br	x17

00000000000038b0 <reallocarray@plt>:
    38b0:	90000170 	adrp	x16, 2f000 <_obstack_memory_used@@Base+0x221c0>
    38b4:	f9464e11 	ldr	x17, [x16, #3224]
    38b8:	91326210 	add	x16, x16, #0xc98
    38bc:	d61f0220 	br	x17

00000000000038c0 <readlink@plt>:
    38c0:	90000170 	adrp	x16, 2f000 <_obstack_memory_used@@Base+0x221c0>
    38c4:	f9465211 	ldr	x17, [x16, #3232]
    38c8:	91328210 	add	x16, x16, #0xca0
    38cc:	d61f0220 	br	x17

00000000000038d0 <__cxa_finalize@plt>:
    38d0:	90000170 	adrp	x16, 2f000 <_obstack_memory_used@@Base+0x221c0>
    38d4:	f9465611 	ldr	x17, [x16, #3240]
    38d8:	9132a210 	add	x16, x16, #0xca8
    38dc:	d61f0220 	br	x17

00000000000038e0 <opendir@plt>:
    38e0:	90000170 	adrp	x16, 2f000 <_obstack_memory_used@@Base+0x221c0>
    38e4:	f9465a11 	ldr	x17, [x16, #3248]
    38e8:	9132c210 	add	x16, x16, #0xcb0
    38ec:	d61f0220 	br	x17

00000000000038f0 <strftime@plt>:
    38f0:	90000170 	adrp	x16, 2f000 <_obstack_memory_used@@Base+0x221c0>
    38f4:	f9465e11 	ldr	x17, [x16, #3256]
    38f8:	9132e210 	add	x16, x16, #0xcb8
    38fc:	d61f0220 	br	x17

0000000000003900 <__cxa_atexit@plt>:
    3900:	90000170 	adrp	x16, 2f000 <_obstack_memory_used@@Base+0x221c0>
    3904:	f9466211 	ldr	x17, [x16, #3264]
    3908:	91330210 	add	x16, x16, #0xcc0
    390c:	d61f0220 	br	x17

0000000000003910 <iswcntrl@plt>:
    3910:	90000170 	adrp	x16, 2f000 <_obstack_memory_used@@Base+0x221c0>
    3914:	f9466611 	ldr	x17, [x16, #3272]
    3918:	91332210 	add	x16, x16, #0xcc8
    391c:	d61f0220 	br	x17

0000000000003920 <clock_gettime@plt>:
    3920:	90000170 	adrp	x16, 2f000 <_obstack_memory_used@@Base+0x221c0>
    3924:	f9466a11 	ldr	x17, [x16, #3280]
    3928:	91334210 	add	x16, x16, #0xcd0
    392c:	d61f0220 	br	x17

0000000000003930 <__readlink_chk@plt>:
    3930:	90000170 	adrp	x16, 2f000 <_obstack_memory_used@@Base+0x221c0>
    3934:	f9466e11 	ldr	x17, [x16, #3288]
    3938:	91336210 	add	x16, x16, #0xcd8
    393c:	d61f0220 	br	x17

0000000000003940 <lseek@plt>:
    3940:	90000170 	adrp	x16, 2f000 <_obstack_memory_used@@Base+0x221c0>
    3944:	f9467211 	ldr	x17, [x16, #3296]
    3948:	91338210 	add	x16, x16, #0xce0
    394c:	d61f0220 	br	x17

0000000000003950 <__fpending@plt>:
    3950:	90000170 	adrp	x16, 2f000 <_obstack_memory_used@@Base+0x221c0>
    3954:	f9467611 	ldr	x17, [x16, #3304]
    3958:	9133a210 	add	x16, x16, #0xce8
    395c:	d61f0220 	br	x17

0000000000003960 <__ctype_tolower_loc@plt>:
    3960:	90000170 	adrp	x16, 2f000 <_obstack_memory_used@@Base+0x221c0>
    3964:	f9467a11 	ldr	x17, [x16, #3312]
    3968:	9133c210 	add	x16, x16, #0xcf0
    396c:	d61f0220 	br	x17

0000000000003970 <snprintf@plt>:
    3970:	90000170 	adrp	x16, 2f000 <_obstack_memory_used@@Base+0x221c0>
    3974:	f9467e11 	ldr	x17, [x16, #3320]
    3978:	9133e210 	add	x16, x16, #0xcf8
    397c:	d61f0220 	br	x17

0000000000003980 <localeconv@plt>:
    3980:	90000170 	adrp	x16, 2f000 <_obstack_memory_used@@Base+0x221c0>
    3984:	f9468211 	ldr	x17, [x16, #3328]
    3988:	91340210 	add	x16, x16, #0xd00
    398c:	d61f0220 	br	x17

0000000000003990 <fileno@plt>:
    3990:	90000170 	adrp	x16, 2f000 <_obstack_memory_used@@Base+0x221c0>
    3994:	f9468611 	ldr	x17, [x16, #3336]
    3998:	91342210 	add	x16, x16, #0xd08
    399c:	d61f0220 	br	x17

00000000000039a0 <__memcpy_chk@plt>:
    39a0:	90000170 	adrp	x16, 2f000 <_obstack_memory_used@@Base+0x221c0>
    39a4:	f9468a11 	ldr	x17, [x16, #3344]
    39a8:	91344210 	add	x16, x16, #0xd10
    39ac:	d61f0220 	br	x17

00000000000039b0 <signal@plt>:
    39b0:	90000170 	adrp	x16, 2f000 <_obstack_memory_used@@Base+0x221c0>
    39b4:	f9468e11 	ldr	x17, [x16, #3352]
    39b8:	91346210 	add	x16, x16, #0xd18
    39bc:	d61f0220 	br	x17

00000000000039c0 <__snprintf_chk@plt>:
    39c0:	90000170 	adrp	x16, 2f000 <_obstack_memory_used@@Base+0x221c0>
    39c4:	f9469211 	ldr	x17, [x16, #3360]
    39c8:	91348210 	add	x16, x16, #0xd20
    39cc:	d61f0220 	br	x17

00000000000039d0 <fclose@plt>:
    39d0:	90000170 	adrp	x16, 2f000 <_obstack_memory_used@@Base+0x221c0>
    39d4:	f9469611 	ldr	x17, [x16, #3368]
    39d8:	9134a210 	add	x16, x16, #0xd28
    39dc:	d61f0220 	br	x17

00000000000039e0 <nl_langinfo@plt>:
    39e0:	90000170 	adrp	x16, 2f000 <_obstack_memory_used@@Base+0x221c0>
    39e4:	f9469a11 	ldr	x17, [x16, #3376]
    39e8:	9134c210 	add	x16, x16, #0xd30
    39ec:	d61f0220 	br	x17

00000000000039f0 <malloc@plt>:
    39f0:	90000170 	adrp	x16, 2f000 <_obstack_memory_used@@Base+0x221c0>
    39f4:	f9469e11 	ldr	x17, [x16, #3384]
    39f8:	9134e210 	add	x16, x16, #0xd38
    39fc:	d61f0220 	br	x17

0000000000003a00 <freecon@plt>:
    3a00:	90000170 	adrp	x16, 2f000 <_obstack_memory_used@@Base+0x221c0>
    3a04:	f946a211 	ldr	x17, [x16, #3392]
    3a08:	91350210 	add	x16, x16, #0xd40
    3a0c:	d61f0220 	br	x17

0000000000003a10 <wcwidth@plt>:
    3a10:	90000170 	adrp	x16, 2f000 <_obstack_memory_used@@Base+0x221c0>
    3a14:	f946a611 	ldr	x17, [x16, #3400]
    3a18:	91352210 	add	x16, x16, #0xd48
    3a1c:	d61f0220 	br	x17

0000000000003a20 <tzset@plt>:
    3a20:	90000170 	adrp	x16, 2f000 <_obstack_memory_used@@Base+0x221c0>
    3a24:	f946aa11 	ldr	x17, [x16, #3408]
    3a28:	91354210 	add	x16, x16, #0xd50
    3a2c:	d61f0220 	br	x17

0000000000003a30 <__strcpy_chk@plt>:
    3a30:	90000170 	adrp	x16, 2f000 <_obstack_memory_used@@Base+0x221c0>
    3a34:	f946ae11 	ldr	x17, [x16, #3416]
    3a38:	91356210 	add	x16, x16, #0xd58
    3a3c:	d61f0220 	br	x17

0000000000003a40 <wcswidth@plt>:
    3a40:	90000170 	adrp	x16, 2f000 <_obstack_memory_used@@Base+0x221c0>
    3a44:	f946b211 	ldr	x17, [x16, #3424]
    3a48:	91358210 	add	x16, x16, #0xd60
    3a4c:	d61f0220 	br	x17

0000000000003a50 <sigemptyset@plt>:
    3a50:	90000170 	adrp	x16, 2f000 <_obstack_memory_used@@Base+0x221c0>
    3a54:	f946b611 	ldr	x17, [x16, #3432]
    3a58:	9135a210 	add	x16, x16, #0xd68
    3a5c:	d61f0220 	br	x17

0000000000003a60 <strncmp@plt>:
    3a60:	90000170 	adrp	x16, 2f000 <_obstack_memory_used@@Base+0x221c0>
    3a64:	f946ba11 	ldr	x17, [x16, #3440]
    3a68:	9135c210 	add	x16, x16, #0xd70
    3a6c:	d61f0220 	br	x17

0000000000003a70 <bindtextdomain@plt>:
    3a70:	90000170 	adrp	x16, 2f000 <_obstack_memory_used@@Base+0x221c0>
    3a74:	f946be11 	ldr	x17, [x16, #3448]
    3a78:	9135e210 	add	x16, x16, #0xd78
    3a7c:	d61f0220 	br	x17

0000000000003a80 <__printf_chk@plt>:
    3a80:	90000170 	adrp	x16, 2f000 <_obstack_memory_used@@Base+0x221c0>
    3a84:	f946c211 	ldr	x17, [x16, #3456]
    3a88:	91360210 	add	x16, x16, #0xd80
    3a8c:	d61f0220 	br	x17

0000000000003a90 <memset@plt>:
    3a90:	90000170 	adrp	x16, 2f000 <_obstack_memory_used@@Base+0x221c0>
    3a94:	f946c611 	ldr	x17, [x16, #3464]
    3a98:	91362210 	add	x16, x16, #0xd88
    3a9c:	d61f0220 	br	x17

0000000000003aa0 <gmtime_r@plt>:
    3aa0:	90000170 	adrp	x16, 2f000 <_obstack_memory_used@@Base+0x221c0>
    3aa4:	f946ca11 	ldr	x17, [x16, #3472]
    3aa8:	91364210 	add	x16, x16, #0xd90
    3aac:	d61f0220 	br	x17

0000000000003ab0 <calloc@plt>:
    3ab0:	90000170 	adrp	x16, 2f000 <_obstack_memory_used@@Base+0x221c0>
    3ab4:	f946ce11 	ldr	x17, [x16, #3480]
    3ab8:	91366210 	add	x16, x16, #0xd98
    3abc:	d61f0220 	br	x17

0000000000003ac0 <listxattr@plt>:
    3ac0:	90000170 	adrp	x16, 2f000 <_obstack_memory_used@@Base+0x221c0>
    3ac4:	f946d211 	ldr	x17, [x16, #3488]
    3ac8:	91368210 	add	x16, x16, #0xda0
    3acc:	d61f0220 	br	x17

0000000000003ad0 <readdir@plt>:
    3ad0:	90000170 	adrp	x16, 2f000 <_obstack_memory_used@@Base+0x221c0>
    3ad4:	f946d611 	ldr	x17, [x16, #3496]
    3ad8:	9136a210 	add	x16, x16, #0xda8
    3adc:	d61f0220 	br	x17

0000000000003ae0 <realloc@plt>:
    3ae0:	90000170 	adrp	x16, 2f000 <_obstack_memory_used@@Base+0x221c0>
    3ae4:	f946da11 	ldr	x17, [x16, #3504]
    3ae8:	9136c210 	add	x16, x16, #0xdb0
    3aec:	d61f0220 	br	x17

0000000000003af0 <__ctype_toupper_loc@plt>:
    3af0:	90000170 	adrp	x16, 2f000 <_obstack_memory_used@@Base+0x221c0>
    3af4:	f946de11 	ldr	x17, [x16, #3512]
    3af8:	9136e210 	add	x16, x16, #0xdb8
    3afc:	d61f0220 	br	x17

0000000000003b00 <closedir@plt>:
    3b00:	90000170 	adrp	x16, 2f000 <_obstack_memory_used@@Base+0x221c0>
    3b04:	f946e211 	ldr	x17, [x16, #3520]
    3b08:	91370210 	add	x16, x16, #0xdc0
    3b0c:	d61f0220 	br	x17

0000000000003b10 <__stack_chk_fail@plt>:
    3b10:	90000170 	adrp	x16, 2f000 <_obstack_memory_used@@Base+0x221c0>
    3b14:	f946e611 	ldr	x17, [x16, #3528]
    3b18:	91372210 	add	x16, x16, #0xdc8
    3b1c:	d61f0220 	br	x17

0000000000003b20 <sigaction@plt>:
    3b20:	90000170 	adrp	x16, 2f000 <_obstack_memory_used@@Base+0x221c0>
    3b24:	f946ea11 	ldr	x17, [x16, #3536]
    3b28:	91374210 	add	x16, x16, #0xdd0
    3b2c:	d61f0220 	br	x17

0000000000003b30 <strrchr@plt>:
    3b30:	90000170 	adrp	x16, 2f000 <_obstack_memory_used@@Base+0x221c0>
    3b34:	f946ee11 	ldr	x17, [x16, #3544]
    3b38:	91376210 	add	x16, x16, #0xdd8
    3b3c:	d61f0220 	br	x17

0000000000003b40 <tcgetpgrp@plt>:
    3b40:	90000170 	adrp	x16, 2f000 <_obstack_memory_used@@Base+0x221c0>
    3b44:	f946f211 	ldr	x17, [x16, #3552]
    3b48:	91378210 	add	x16, x16, #0xde0
    3b4c:	d61f0220 	br	x17

0000000000003b50 <__gmon_start__@plt>:
    3b50:	90000170 	adrp	x16, 2f000 <_obstack_memory_used@@Base+0x221c0>
    3b54:	f946f611 	ldr	x17, [x16, #3560]
    3b58:	9137a210 	add	x16, x16, #0xde8
    3b5c:	d61f0220 	br	x17

0000000000003b60 <stat@plt>:
    3b60:	90000170 	adrp	x16, 2f000 <_obstack_memory_used@@Base+0x221c0>
    3b64:	f946fa11 	ldr	x17, [x16, #3568]
    3b68:	9137c210 	add	x16, x16, #0xdf0
    3b6c:	d61f0220 	br	x17

0000000000003b70 <mktime@plt>:
    3b70:	90000170 	adrp	x16, 2f000 <_obstack_memory_used@@Base+0x221c0>
    3b74:	f946fe11 	ldr	x17, [x16, #3576]
    3b78:	9137e210 	add	x16, x16, #0xdf8
    3b7c:	d61f0220 	br	x17

0000000000003b80 <abort@plt>:
    3b80:	90000170 	adrp	x16, 2f000 <_obstack_memory_used@@Base+0x221c0>
    3b84:	f9470211 	ldr	x17, [x16, #3584]
    3b88:	91380210 	add	x16, x16, #0xe00
    3b8c:	d61f0220 	br	x17

0000000000003b90 <__isoc23_strtoumax@plt>:
    3b90:	90000170 	adrp	x16, 2f000 <_obstack_memory_used@@Base+0x221c0>
    3b94:	f9470611 	ldr	x17, [x16, #3592]
    3b98:	91382210 	add	x16, x16, #0xe08
    3b9c:	d61f0220 	br	x17

0000000000003ba0 <mbsinit@plt>:
    3ba0:	90000170 	adrp	x16, 2f000 <_obstack_memory_used@@Base+0x221c0>
    3ba4:	f9470a11 	ldr	x17, [x16, #3600]
    3ba8:	91384210 	add	x16, x16, #0xe10
    3bac:	d61f0220 	br	x17

0000000000003bb0 <__overflow@plt>:
    3bb0:	90000170 	adrp	x16, 2f000 <_obstack_memory_used@@Base+0x221c0>
    3bb4:	f9470e11 	ldr	x17, [x16, #3608]
    3bb8:	91386210 	add	x16, x16, #0xe18
    3bbc:	d61f0220 	br	x17

0000000000003bc0 <getxattr@plt>:
    3bc0:	90000170 	adrp	x16, 2f000 <_obstack_memory_used@@Base+0x221c0>
    3bc4:	f9471211 	ldr	x17, [x16, #3616]
    3bc8:	91388210 	add	x16, x16, #0xe20
    3bcc:	d61f0220 	br	x17

0000000000003bd0 <memcmp@plt>:
    3bd0:	90000170 	adrp	x16, 2f000 <_obstack_memory_used@@Base+0x221c0>
    3bd4:	f9471611 	ldr	x17, [x16, #3624]
    3bd8:	9138a210 	add	x16, x16, #0xe28
    3bdc:	d61f0220 	br	x17

0000000000003be0 <textdomain@plt>:
    3be0:	90000170 	adrp	x16, 2f000 <_obstack_memory_used@@Base+0x221c0>
    3be4:	f9471a11 	ldr	x17, [x16, #3632]
    3be8:	9138c210 	add	x16, x16, #0xe30
    3bec:	d61f0220 	br	x17

0000000000003bf0 <getopt_long@plt>:
    3bf0:	90000170 	adrp	x16, 2f000 <_obstack_memory_used@@Base+0x221c0>
    3bf4:	f9471e11 	ldr	x17, [x16, #3640]
    3bf8:	9138e210 	add	x16, x16, #0xe38
    3bfc:	d61f0220 	br	x17

0000000000003c00 <__fprintf_chk@plt>:
    3c00:	90000170 	adrp	x16, 2f000 <_obstack_memory_used@@Base+0x221c0>
    3c04:	f9472211 	ldr	x17, [x16, #3648]
    3c08:	91390210 	add	x16, x16, #0xe40
    3c0c:	d61f0220 	br	x17

0000000000003c10 <sigismember@plt>:
    3c10:	90000170 	adrp	x16, 2f000 <_obstack_memory_used@@Base+0x221c0>
    3c14:	f9472611 	ldr	x17, [x16, #3656]
    3c18:	91392210 	add	x16, x16, #0xe48
    3c1c:	d61f0220 	br	x17

0000000000003c20 <strcmp@plt>:
    3c20:	90000170 	adrp	x16, 2f000 <_obstack_memory_used@@Base+0x221c0>
    3c24:	f9472a11 	ldr	x17, [x16, #3664]
    3c28:	91394210 	add	x16, x16, #0xe50
    3c2c:	d61f0220 	br	x17

0000000000003c30 <getpwuid@plt>:
    3c30:	90000170 	adrp	x16, 2f000 <_obstack_memory_used@@Base+0x221c0>
    3c34:	f9472e11 	ldr	x17, [x16, #3672]
    3c38:	91396210 	add	x16, x16, #0xe58
    3c3c:	d61f0220 	br	x17

0000000000003c40 <__ctype_b_loc@plt>:
    3c40:	90000170 	adrp	x16, 2f000 <_obstack_memory_used@@Base+0x221c0>
    3c44:	f9473211 	ldr	x17, [x16, #3680]
    3c48:	91398210 	add	x16, x16, #0xe60
    3c4c:	d61f0220 	br	x17

0000000000003c50 <fseeko@plt>:
    3c50:	90000170 	adrp	x16, 2f000 <_obstack_memory_used@@Base+0x221c0>
    3c54:	f9473611 	ldr	x17, [x16, #3688]
    3c58:	9139a210 	add	x16, x16, #0xe68
    3c5c:	d61f0220 	br	x17

0000000000003c60 <free@plt>:
    3c60:	90000170 	adrp	x16, 2f000 <_obstack_memory_used@@Base+0x221c0>
    3c64:	f9473a11 	ldr	x17, [x16, #3696]
    3c68:	9139c210 	add	x16, x16, #0xe70
    3c6c:	d61f0220 	br	x17

0000000000003c70 <__ctype_get_mb_cur_max@plt>:
    3c70:	90000170 	adrp	x16, 2f000 <_obstack_memory_used@@Base+0x221c0>
    3c74:	f9473e11 	ldr	x17, [x16, #3704]
    3c78:	9139e210 	add	x16, x16, #0xe78
    3c7c:	d61f0220 	br	x17

0000000000003c80 <rawmemchr@plt>:
    3c80:	90000170 	adrp	x16, 2f000 <_obstack_memory_used@@Base+0x221c0>
    3c84:	f9474211 	ldr	x17, [x16, #3712]
    3c88:	913a0210 	add	x16, x16, #0xe80
    3c8c:	d61f0220 	br	x17

0000000000003c90 <strchr@plt>:
    3c90:	90000170 	adrp	x16, 2f000 <_obstack_memory_used@@Base+0x221c0>
    3c94:	f9474611 	ldr	x17, [x16, #3720]
    3c98:	913a2210 	add	x16, x16, #0xe88
    3c9c:	d61f0220 	br	x17

0000000000003ca0 <statx@plt>:
    3ca0:	90000170 	adrp	x16, 2f000 <_obstack_memory_used@@Base+0x221c0>
    3ca4:	f9474a11 	ldr	x17, [x16, #3728]
    3ca8:	913a4210 	add	x16, x16, #0xe90
    3cac:	d61f0220 	br	x17

0000000000003cb0 <fwrite@plt>:
    3cb0:	90000170 	adrp	x16, 2f000 <_obstack_memory_used@@Base+0x221c0>
    3cb4:	f9474e11 	ldr	x17, [x16, #3736]
    3cb8:	913a6210 	add	x16, x16, #0xe98
    3cbc:	d61f0220 	br	x17

0000000000003cc0 <fnmatch@plt>:
    3cc0:	90000170 	adrp	x16, 2f000 <_obstack_memory_used@@Base+0x221c0>
    3cc4:	f9475211 	ldr	x17, [x16, #3744]
    3cc8:	913a8210 	add	x16, x16, #0xea0
    3ccc:	d61f0220 	br	x17

0000000000003cd0 <fflush_unlocked@plt>:
    3cd0:	90000170 	adrp	x16, 2f000 <_obstack_memory_used@@Base+0x221c0>
    3cd4:	f9475611 	ldr	x17, [x16, #3752]
    3cd8:	913aa210 	add	x16, x16, #0xea8
    3cdc:	d61f0220 	br	x17

0000000000003ce0 <fflush@plt>:
    3ce0:	90000170 	adrp	x16, 2f000 <_obstack_memory_used@@Base+0x221c0>
    3ce4:	f9475a11 	ldr	x17, [x16, #3760]
    3ce8:	913ac210 	add	x16, x16, #0xeb0
    3cec:	d61f0220 	br	x17

0000000000003cf0 <dirfd@plt>:
    3cf0:	90000170 	adrp	x16, 2f000 <_obstack_memory_used@@Base+0x221c0>
    3cf4:	f9475e11 	ldr	x17, [x16, #3768]
    3cf8:	913ae210 	add	x16, x16, #0xeb8
    3cfc:	d61f0220 	br	x17

0000000000003d00 <unsetenv@plt>:
    3d00:	90000170 	adrp	x16, 2f000 <_obstack_memory_used@@Base+0x221c0>
    3d04:	f9476211 	ldr	x17, [x16, #3776]
    3d08:	913b0210 	add	x16, x16, #0xec0
    3d0c:	d61f0220 	br	x17

0000000000003d10 <isatty@plt>:
    3d10:	90000170 	adrp	x16, 2f000 <_obstack_memory_used@@Base+0x221c0>
    3d14:	f9476611 	ldr	x17, [x16, #3784]
    3d18:	913b2210 	add	x16, x16, #0xec8
    3d1c:	d61f0220 	br	x17

0000000000003d20 <wcstombs@plt>:
    3d20:	90000170 	adrp	x16, 2f000 <_obstack_memory_used@@Base+0x221c0>
    3d24:	f9476a11 	ldr	x17, [x16, #3792]
    3d28:	913b4210 	add	x16, x16, #0xed0
    3d2c:	d61f0220 	br	x17

0000000000003d30 <gethostname@plt>:
    3d30:	90000170 	adrp	x16, 2f000 <_obstack_memory_used@@Base+0x221c0>
    3d34:	f9476e11 	ldr	x17, [x16, #3800]
    3d38:	913b6210 	add	x16, x16, #0xed8
    3d3c:	d61f0220 	br	x17

0000000000003d40 <fputc_unlocked@plt>:
    3d40:	90000170 	adrp	x16, 2f000 <_obstack_memory_used@@Base+0x221c0>
    3d44:	f9477211 	ldr	x17, [x16, #3808]
    3d48:	913b8210 	add	x16, x16, #0xee0
    3d4c:	d61f0220 	br	x17

0000000000003d50 <__mempcpy_chk@plt>:
    3d50:	90000170 	adrp	x16, 2f000 <_obstack_memory_used@@Base+0x221c0>
    3d54:	f9477611 	ldr	x17, [x16, #3816]
    3d58:	913ba210 	add	x16, x16, #0xee8
    3d5c:	d61f0220 	br	x17

0000000000003d60 <dcgettext@plt>:
    3d60:	90000170 	adrp	x16, 2f000 <_obstack_memory_used@@Base+0x221c0>
    3d64:	f9477a11 	ldr	x17, [x16, #3824]
    3d68:	913bc210 	add	x16, x16, #0xef0
    3d6c:	d61f0220 	br	x17

0000000000003d70 <fputs_unlocked@plt>:
    3d70:	90000170 	adrp	x16, 2f000 <_obstack_memory_used@@Base+0x221c0>
    3d74:	f9477e11 	ldr	x17, [x16, #3832]
    3d78:	913be210 	add	x16, x16, #0xef8
    3d7c:	d61f0220 	br	x17

0000000000003d80 <strcoll@plt>:
    3d80:	90000170 	adrp	x16, 2f000 <_obstack_memory_used@@Base+0x221c0>
    3d84:	f9478211 	ldr	x17, [x16, #3840]
    3d88:	913c0210 	add	x16, x16, #0xf00
    3d8c:	d61f0220 	br	x17

0000000000003d90 <__freading@plt>:
    3d90:	90000170 	adrp	x16, 2f000 <_obstack_memory_used@@Base+0x221c0>
    3d94:	f9478611 	ldr	x17, [x16, #3848]
    3d98:	913c2210 	add	x16, x16, #0xf08
    3d9c:	d61f0220 	br	x17

0000000000003da0 <__mbstowcs_chk@plt>:
    3da0:	90000170 	adrp	x16, 2f000 <_obstack_memory_used@@Base+0x221c0>
    3da4:	f9478a11 	ldr	x17, [x16, #3856]
    3da8:	913c4210 	add	x16, x16, #0xf10
    3dac:	d61f0220 	br	x17

0000000000003db0 <mbrtoc32@plt>:
    3db0:	90000170 	adrp	x16, 2f000 <_obstack_memory_used@@Base+0x221c0>
    3db4:	f9478e11 	ldr	x17, [x16, #3864]
    3db8:	913c6210 	add	x16, x16, #0xf18
    3dbc:	d61f0220 	br	x17

0000000000003dc0 <sigaddset@plt>:
    3dc0:	90000170 	adrp	x16, 2f000 <_obstack_memory_used@@Base+0x221c0>
    3dc4:	f9479211 	ldr	x17, [x16, #3872]
    3dc8:	913c8210 	add	x16, x16, #0xf20
    3dcc:	d61f0220 	br	x17

0000000000003dd0 <getfilecon@plt>:
    3dd0:	90000170 	adrp	x16, 2f000 <_obstack_memory_used@@Base+0x221c0>
    3dd4:	f9479611 	ldr	x17, [x16, #3880]
    3dd8:	913ca210 	add	x16, x16, #0xf28
    3ddc:	d61f0220 	br	x17

0000000000003de0 <iswprint@plt>:
    3de0:	90000170 	adrp	x16, 2f000 <_obstack_memory_used@@Base+0x221c0>
    3de4:	f9479a11 	ldr	x17, [x16, #3888]
    3de8:	913cc210 	add	x16, x16, #0xf30
    3dec:	d61f0220 	br	x17

0000000000003df0 <__assert_fail@plt>:
    3df0:	90000170 	adrp	x16, 2f000 <_obstack_memory_used@@Base+0x221c0>
    3df4:	f9479e11 	ldr	x17, [x16, #3896]
    3df8:	913ce210 	add	x16, x16, #0xf38
    3dfc:	d61f0220 	br	x17

0000000000003e00 <__errno_location@plt>:
    3e00:	90000170 	adrp	x16, 2f000 <_obstack_memory_used@@Base+0x221c0>
    3e04:	f947a211 	ldr	x17, [x16, #3904]
    3e08:	913d0210 	add	x16, x16, #0xf40
    3e0c:	d61f0220 	br	x17

0000000000003e10 <lgetfilecon@plt>:
    3e10:	90000170 	adrp	x16, 2f000 <_obstack_memory_used@@Base+0x221c0>
    3e14:	f947a611 	ldr	x17, [x16, #3912]
    3e18:	913d2210 	add	x16, x16, #0xf48
    3e1c:	d61f0220 	br	x17

0000000000003e20 <getenv@plt>:
    3e20:	90000170 	adrp	x16, 2f000 <_obstack_memory_used@@Base+0x221c0>
    3e24:	f947aa11 	ldr	x17, [x16, #3920]
    3e28:	913d4210 	add	x16, x16, #0xf50
    3e2c:	d61f0220 	br	x17

0000000000003e30 <getgrgid@plt>:
    3e30:	90000170 	adrp	x16, 2f000 <_obstack_memory_used@@Base+0x221c0>
    3e34:	f947ae11 	ldr	x17, [x16, #3928]
    3e38:	913d6210 	add	x16, x16, #0xf58
    3e3c:	d61f0220 	br	x17

0000000000003e40 <timegm@plt>:
    3e40:	90000170 	adrp	x16, 2f000 <_obstack_memory_used@@Base+0x221c0>
    3e44:	f947b211 	ldr	x17, [x16, #3936]
    3e48:	913d8210 	add	x16, x16, #0xf60
    3e4c:	d61f0220 	br	x17

0000000000003e50 <ioctl@plt>:
    3e50:	90000170 	adrp	x16, 2f000 <_obstack_memory_used@@Base+0x221c0>
    3e54:	f947b611 	ldr	x17, [x16, #3944]
    3e58:	913da210 	add	x16, x16, #0xf68
    3e5c:	d61f0220 	br	x17

0000000000003e60 <setlocale@plt>:
    3e60:	90000170 	adrp	x16, 2f000 <_obstack_memory_used@@Base+0x221c0>
    3e64:	f947ba11 	ldr	x17, [x16, #3952]
    3e68:	913dc210 	add	x16, x16, #0xf70
    3e6c:	d61f0220 	br	x17

Disassembly of section .text:

0000000000003e80 <_obstack_begin@@Base-0x8ca0>:
    3e80:	d503233f 	paciasp
    3e84:	d10543ff 	sub	sp, sp, #0x150
    3e88:	a90f7bfd 	stp	x29, x30, [sp, #240]
    3e8c:	9103c3fd 	add	x29, sp, #0xf0
    3e90:	a91053f3 	stp	x19, x20, [sp, #256]
    3e94:	2a0003f4 	mov	w20, w0
    3e98:	aa0103f3 	mov	x19, x1
    3e9c:	90000160 	adrp	x0, 2f000 <_obstack_memory_used@@Base+0x221c0>
    3ea0:	f947e800 	ldr	x0, [x0, #4048]
    3ea4:	a9115bf5 	stp	x21, x22, [sp, #272]
    3ea8:	a91263f7 	stp	x23, x24, [sp, #288]
    3eac:	a9136bf9 	stp	x25, x26, [sp, #304]
    3eb0:	a91473fb 	stp	x27, x28, [sp, #320]
    3eb4:	f9400035 	ldr	x21, [x1]
    3eb8:	f9400001 	ldr	x1, [x0]
    3ebc:	f90077e1 	str	x1, [sp, #232]
    3ec0:	d2800001 	mov	x1, #0x0                   	// #0
    3ec4:	b400f195 	cbz	x21, 5cf4 <setlocale@plt+0x1e94>
    3ec8:	aa1503e0 	mov	x0, x21
    3ecc:	528005e1 	mov	w1, #0x2f                  	// #47
    3ed0:	97ffff18 	bl	3b30 <strrchr@plt>
    3ed4:	aa0003f6 	mov	x22, x0
    3ed8:	b4000160 	cbz	x0, 3f04 <setlocale@plt+0xa4>
    3edc:	91000417 	add	x23, x0, #0x1
    3ee0:	cb1502e0 	sub	x0, x23, x21
    3ee4:	f100181f 	cmp	x0, #0x6
    3ee8:	540000ed 	b.le	3f04 <setlocale@plt+0xa4>
    3eec:	900000c1 	adrp	x1, 1b000 <_obstack_memory_used@@Base+0xe1c0>
    3ef0:	d1001ac0 	sub	x0, x22, #0x6
    3ef4:	91336021 	add	x1, x1, #0xcd8
    3ef8:	d28000e2 	mov	x2, #0x7                   	// #7
    3efc:	97fffed9 	bl	3a60 <strncmp@plt>
    3f00:	34000920 	cbz	w0, 4024 <setlocale@plt+0x1c4>
    3f04:	90000162 	adrp	x2, 2f000 <_obstack_memory_used@@Base+0x221c0>
    3f08:	f947c442 	ldr	x2, [x2, #3976]
    3f0c:	b0000179 	adrp	x25, 30000 <_obstack_memory_used@@Base+0x231c0>
    3f10:	910ac323 	add	x3, x25, #0x2b0
    3f14:	528000c0 	mov	w0, #0x6                   	// #6
    3f18:	d00000a1 	adrp	x1, 19000 <_obstack_memory_used@@Base+0xc1c0>
    3f1c:	912a0021 	add	x1, x1, #0xa80
    3f20:	f9000055 	str	x21, [x2]
    3f24:	d000017a 	adrp	x26, 31000 <obstack_alloc_failed_handler@@Base+0xd90>
    3f28:	f90003e3 	str	x3, [sp]
    3f2c:	9280001c 	mov	x28, #0xffffffffffffffff    	// #-1
    3f30:	f9061475 	str	x21, [x3, #3112]
    3f34:	97ffffcb 	bl	3e60 <setlocale@plt>
    3f38:	900000c1 	adrp	x1, 1b000 <_obstack_memory_used@@Base+0xe1c0>
    3f3c:	9133a021 	add	x1, x1, #0xce8
    3f40:	900000d5 	adrp	x21, 1b000 <_obstack_memory_used@@Base+0xe1c0>
    3f44:	913402b5 	add	x21, x21, #0xd00
    3f48:	aa1503e0 	mov	x0, x21
    3f4c:	97fffec9 	bl	3a70 <bindtextdomain@plt>
    3f50:	aa1503e0 	mov	x0, x21
    3f54:	97ffff23 	bl	3be0 <textdomain@plt>
    3f58:	b0000160 	adrp	x0, 30000 <_obstack_memory_used@@Base+0x231c0>
    3f5c:	91004001 	add	x1, x0, #0x10
    3f60:	52800042 	mov	w2, #0x2                   	// #2
    3f64:	f0000020 	adrp	x0, a000 <setlocale@plt+0x61a0>
    3f68:	9126c000 	add	x0, x0, #0x9b0
    3f6c:	b00000bb 	adrp	x27, 18000 <_obstack_memory_used@@Base+0xb1c0>
    3f70:	b9007022 	str	w2, [x1, #112]
    3f74:	94005003 	bl	17f80 <_obstack_memory_used@@Base+0xb140>
    3f78:	f94003e3 	ldr	x3, [sp]
    3f7c:	b00000c1 	adrp	x1, 1c000 <_obstack_memory_used@@Base+0xf1c0>
    3f80:	910ec340 	add	x0, x26, #0x3b0
    3f84:	900000d5 	adrp	x21, 1b000 <_obstack_memory_used@@Base+0xe1c0>
    3f88:	3dc2d820 	ldr	q0, [x1, #2912]
    3f8c:	f0000141 	adrp	x1, 2e000 <_obstack_memory_used@@Base+0x211c0>
    3f90:	913d0036 	add	x22, x1, #0xf40
    3f94:	910133f8 	add	x24, sp, #0x4c
    3f98:	2a1c03f7 	mov	w23, w28
    3f9c:	9101537b 	add	x27, x27, #0x54
    3fa0:	913442b5 	add	x21, x21, #0xd10
    3fa4:	9109a2d6 	add	x22, x22, #0x268
    3fa8:	52800021 	mov	w1, #0x1                   	// #1
    3fac:	f819801f 	stur	xzr, [x0, #-104]
    3fb0:	f90003ff 	str	xzr, [sp]
    3fb4:	39000401 	strb	w1, [x0, #1]
    3fb8:	b9000bfc 	str	w28, [sp, #8]
    3fbc:	b90013fc 	str	w28, [sp, #16]
    3fc0:	b9001bfc 	str	w28, [sp, #24]
    3fc4:	f90013fc 	str	x28, [sp, #32]
    3fc8:	29057ffc 	stp	w28, wzr, [sp, #40]
    3fcc:	b90c907f 	str	wzr, [x3, #3216]
    3fd0:	3c930000 	stur	q0, [x0, #-208]
    3fd4:	d503201f 	nop
    3fd8:	aa1803e4 	mov	x4, x24
    3fdc:	aa1603e3 	mov	x3, x22
    3fe0:	aa1503e2 	mov	x2, x21
    3fe4:	aa1303e1 	mov	x1, x19
    3fe8:	2a1403e0 	mov	w0, w20
    3fec:	b9004ff7 	str	w23, [sp, #76]
    3ff0:	97ffff00 	bl	3bf0 <getopt_long@plt>
    3ff4:	3100041f 	cmn	w0, #0x1
    3ff8:	54004820 	b.eq	48fc <setlocale@plt+0xa9c>  // b.none
    3ffc:	11000c00 	add	w0, w0, #0x3
    4000:	7104501f 	cmp	w0, #0x114
    4004:	54000089 	b.ls	4014 <setlocale@plt+0x1b4>  // b.plast
    4008:	d503249f 	bti	j
    400c:	52800040 	mov	w0, #0x2                   	// #2
    4010:	94000ffc 	bl	8000 <setlocale@plt+0x41a0>
    4014:	78605b60 	ldrh	w0, [x27, w0, uxtw #1]
    4018:	10000061 	adr	x1, 4024 <setlocale@plt+0x1c4>
    401c:	8b20a820 	add	x0, x1, w0, sxth #2
    4020:	d61f0000 	br	x0
    4024:	f00000a1 	adrp	x1, 1b000 <_obstack_memory_used@@Base+0xe1c0>
    4028:	aa1703e0 	mov	x0, x23
    402c:	91338021 	add	x1, x1, #0xce0
    4030:	d2800062 	mov	x2, #0x3                   	// #3
    4034:	97fffe8b 	bl	3a60 <strncmp@plt>
    4038:	350072a0 	cbnz	w0, 4e8c <setlocale@plt+0x102c>
    403c:	f0000140 	adrp	x0, 2f000 <_obstack_memory_used@@Base+0x221c0>
    4040:	f947f800 	ldr	x0, [x0, #4080]
    4044:	910012d5 	add	x21, x22, #0x4
    4048:	f9000015 	str	x21, [x0]
    404c:	17ffffae 	b	3f04 <setlocale@plt+0xa4>
    4050:	d503249f 	bti	j
    4054:	90000160 	adrp	x0, 30000 <_obstack_memory_used@@Base+0x231c0>
    4058:	b9400be2 	ldr	w2, [sp, #8]
    405c:	91004001 	add	x1, x0, #0x10
    4060:	910ac320 	add	x0, x25, #0x2b0
    4064:	7100005f 	cmp	w2, #0x0
    4068:	b9001bff 	str	wzr, [sp, #24]
    406c:	1a9f07e2 	cset	w2, ne	// ne = any
    4070:	b9000be2 	str	w2, [sp, #8]
    4074:	b9002bff 	str	wzr, [sp, #40]
    4078:	3902f03f 	strb	wzr, [x1, #188]
    407c:	393f841f 	strb	wzr, [x0, #4065]
    4080:	17ffffd6 	b	3fd8 <setlocale@plt+0x178>
    4084:	d503249f 	bti	j
    4088:	f0000140 	adrp	x0, 2f000 <_obstack_memory_used@@Base+0x221c0>
    408c:	f947d400 	ldr	x0, [x0, #4008]
    4090:	f9400000 	ldr	x0, [x0]
    4094:	f90003e0 	str	x0, [sp]
    4098:	17ffffd0 	b	3fd8 <setlocale@plt+0x178>
    409c:	d503249f 	bti	j
    40a0:	f0000140 	adrp	x0, 2f000 <_obstack_memory_used@@Base+0x221c0>
    40a4:	f947d400 	ldr	x0, [x0, #4008]
    40a8:	d0000141 	adrp	x1, 2e000 <_obstack_memory_used@@Base+0x211c0>
    40ac:	913d0022 	add	x2, x1, #0xf40
    40b0:	900000a3 	adrp	x3, 18000 <_obstack_memory_used@@Base+0xb1c0>
    40b4:	910a0063 	add	x3, x3, #0x280
    40b8:	91228042 	add	x2, x2, #0x8a0
    40bc:	f9400001 	ldr	x1, [x0]
    40c0:	91050063 	add	x3, x3, #0x140
    40c4:	90000024 	adrp	x4, 8000 <setlocale@plt+0x41a0>
    40c8:	f00000a0 	adrp	x0, 1b000 <_obstack_memory_used@@Base+0xe1c0>
    40cc:	911e9084 	add	x4, x4, #0x7a4
    40d0:	91368000 	add	x0, x0, #0xda0
    40d4:	f9001be3 	str	x3, [sp, #48]
    40d8:	940039d2 	bl	12820 <_obstack_memory_used@@Base+0x59e0>
    40dc:	f9401be3 	ldr	x3, [sp, #48]
    40e0:	910ac321 	add	x1, x25, #0x2b0
    40e4:	b8607860 	ldr	w0, [x3, x0, lsl #2]
    40e8:	b90c8420 	str	w0, [x1, #3204]
    40ec:	17ffffbb 	b	3fd8 <setlocale@plt+0x178>
    40f0:	d503249f 	bti	j
    40f4:	f0000140 	adrp	x0, 2f000 <_obstack_memory_used@@Base+0x221c0>
    40f8:	f947d400 	ldr	x0, [x0, #4008]
    40fc:	d0000141 	adrp	x1, 2e000 <_obstack_memory_used@@Base+0x211c0>
    4100:	913d0022 	add	x2, x1, #0xf40
    4104:	900000a3 	adrp	x3, 18000 <_obstack_memory_used@@Base+0xb1c0>
    4108:	910a0063 	add	x3, x3, #0x280
    410c:	91218042 	add	x2, x2, #0x860
    4110:	f9400001 	ldr	x1, [x0]
    4114:	91048063 	add	x3, x3, #0x120
    4118:	90000024 	adrp	x4, 8000 <setlocale@plt+0x41a0>
    411c:	f00000a0 	adrp	x0, 1b000 <_obstack_memory_used@@Base+0xe1c0>
    4120:	911e9084 	add	x4, x4, #0x7a4
    4124:	91366000 	add	x0, x0, #0xd98
    4128:	f9000be3 	str	x3, [sp, #16]
    412c:	940039bd 	bl	12820 <_obstack_memory_used@@Base+0x59e0>
    4130:	f9400be3 	ldr	x3, [sp, #16]
    4134:	b8607860 	ldr	w0, [x3, x0, lsl #2]
    4138:	b90013e0 	str	w0, [sp, #16]
    413c:	17ffffa7 	b	3fd8 <setlocale@plt+0x178>
    4140:	d503249f 	bti	j
    4144:	90000161 	adrp	x1, 30000 <_obstack_memory_used@@Base+0x231c0>
    4148:	910ac320 	add	x0, x25, #0x2b0
    414c:	910ec342 	add	x2, x26, #0x3b0
    4150:	91004021 	add	x1, x1, #0x10
    4154:	52801203 	mov	w3, #0x90                  	// #144
    4158:	b8120043 	stur	w3, [x2, #-224]
    415c:	d2800022 	mov	x2, #0x1                   	// #1
    4160:	f9006022 	str	x2, [x1, #192]
    4164:	f906b002 	str	x2, [x0, #3424]
    4168:	b90d6803 	str	w3, [x0, #3432]
    416c:	17ffff9b 	b	3fd8 <setlocale@plt+0x178>
    4170:	d503249f 	bti	j
    4174:	b9002bff 	str	wzr, [sp, #40]
    4178:	17ffff98 	b	3fd8 <setlocale@plt+0x178>
    417c:	d503249f 	bti	j
    4180:	f0000140 	adrp	x0, 2f000 <_obstack_memory_used@@Base+0x221c0>
    4184:	f947d400 	ldr	x0, [x0, #4008]
    4188:	d0000141 	adrp	x1, 2e000 <_obstack_memory_used@@Base+0x211c0>
    418c:	913d0022 	add	x2, x1, #0xf40
    4190:	900000a3 	adrp	x3, 18000 <_obstack_memory_used@@Base+0xb1c0>
    4194:	910a0063 	add	x3, x3, #0x280
    4198:	91258042 	add	x2, x2, #0x960
    419c:	f9400001 	ldr	x1, [x0]
    41a0:	91068063 	add	x3, x3, #0x1a0
    41a4:	90000024 	adrp	x4, 8000 <setlocale@plt+0x41a0>
    41a8:	f00000a0 	adrp	x0, 1b000 <_obstack_memory_used@@Base+0xe1c0>
    41ac:	911e9084 	add	x4, x4, #0x7a4
    41b0:	9137a000 	add	x0, x0, #0xde8
    41b4:	f9000fe3 	str	x3, [sp, #24]
    41b8:	9400399a 	bl	12820 <_obstack_memory_used@@Base+0x59e0>
    41bc:	f9400fe3 	ldr	x3, [sp, #24]
    41c0:	b8607860 	ldr	w0, [x3, x0, lsl #2]
    41c4:	b9001be0 	str	w0, [sp, #24]
    41c8:	17ffff84 	b	3fd8 <setlocale@plt+0x178>
    41cc:	d503249f 	bti	j
    41d0:	f0000140 	adrp	x0, 2f000 <_obstack_memory_used@@Base+0x221c0>
    41d4:	f947d400 	ldr	x0, [x0, #4008]
    41d8:	d0000141 	adrp	x1, 2e000 <_obstack_memory_used@@Base+0x211c0>
    41dc:	913d0022 	add	x2, x1, #0xf40
    41e0:	900000a3 	adrp	x3, 18000 <_obstack_memory_used@@Base+0xb1c0>
    41e4:	910a0065 	add	x5, x3, #0x280
    41e8:	9124c042 	add	x2, x2, #0x930
    41ec:	f9400001 	ldr	x1, [x0]
    41f0:	910640a3 	add	x3, x5, #0x190
    41f4:	90000024 	adrp	x4, 8000 <setlocale@plt+0x41a0>
    41f8:	f00000a0 	adrp	x0, 1b000 <_obstack_memory_used@@Base+0xe1c0>
    41fc:	911e9084 	add	x4, x4, #0x7a4
    4200:	91374000 	add	x0, x0, #0xdd0
    4204:	f9001be5 	str	x5, [sp, #48]
    4208:	94003986 	bl	12820 <_obstack_memory_used@@Base+0x59e0>
    420c:	f9401be5 	ldr	x5, [sp, #48]
    4210:	910ac321 	add	x1, x25, #0x2b0
    4214:	8b0008a0 	add	x0, x5, x0, lsl #2
    4218:	b9419000 	ldr	w0, [x0, #400]
    421c:	b90cd020 	str	w0, [x1, #3280]
    4220:	17ffff6e 	b	3fd8 <setlocale@plt+0x178>
    4224:	d503249f 	bti	j
    4228:	f0000140 	adrp	x0, 2f000 <_obstack_memory_used@@Base+0x221c0>
    422c:	f947d400 	ldr	x0, [x0, #4008]
    4230:	f9400001 	ldr	x1, [x0]
    4234:	b40002a1 	cbz	x1, 4288 <setlocale@plt+0x428>
    4238:	d0000140 	adrp	x0, 2e000 <_obstack_memory_used@@Base+0x211c0>
    423c:	900000a3 	adrp	x3, 18000 <_obstack_memory_used@@Base+0xb1c0>
    4240:	913d0002 	add	x2, x0, #0xf40
    4244:	910a0063 	add	x3, x3, #0x280
    4248:	9103c063 	add	x3, x3, #0xf0
    424c:	91204042 	add	x2, x2, #0x810
    4250:	90000024 	adrp	x4, 8000 <setlocale@plt+0x41a0>
    4254:	f00000a0 	adrp	x0, 1b000 <_obstack_memory_used@@Base+0xe1c0>
    4258:	911e9084 	add	x4, x4, #0x7a4
    425c:	91370000 	add	x0, x0, #0xdc0
    4260:	f9001be3 	str	x3, [sp, #48]
    4264:	9400396f 	bl	12820 <_obstack_memory_used@@Base+0x59e0>
    4268:	f9401be3 	ldr	x3, [sp, #48]
    426c:	b8607860 	ldr	w0, [x3, x0, lsl #2]
    4270:	7100041f 	cmp	w0, #0x1
    4274:	540000a0 	b.eq	4288 <setlocale@plt+0x428>  // b.none
    4278:	7100081f 	cmp	w0, #0x2
    427c:	5400c0e0 	b.eq	5a98 <setlocale@plt+0x1c38>  // b.none
    4280:	52800000 	mov	w0, #0x0                   	// #0
    4284:	14000002 	b	428c <setlocale@plt+0x42c>
    4288:	52800020 	mov	w0, #0x1                   	// #1
    428c:	910ec341 	add	x1, x26, #0x3b0
    4290:	12000000 	and	w0, w0, #0x1
    4294:	39000820 	strb	w0, [x1, #2]
    4298:	17ffff50 	b	3fd8 <setlocale@plt+0x178>
    429c:	d503249f 	bti	j
    42a0:	d2800200 	mov	x0, #0x10                  	// #16
    42a4:	97fffdd3 	bl	39f0 <malloc@plt>
    42a8:	b4009360 	cbz	x0, 5514 <setlocale@plt+0x16b4>
    42ac:	f0000141 	adrp	x1, 2f000 <_obstack_memory_used@@Base+0x221c0>
    42b0:	f947d421 	ldr	x1, [x1, #4008]
    42b4:	910ec342 	add	x2, x26, #0x3b0
    42b8:	f9400021 	ldr	x1, [x1]
    42bc:	f9000001 	str	x1, [x0]
    42c0:	f9403841 	ldr	x1, [x2, #112]
    42c4:	f9000401 	str	x1, [x0, #8]
    42c8:	f9003840 	str	x0, [x2, #112]
    42cc:	17ffff43 	b	3fd8 <setlocale@plt+0x178>
    42d0:	d503249f 	bti	j
    42d4:	910ac320 	add	x0, x25, #0x2b0
    42d8:	52800021 	mov	w1, #0x1                   	// #1
    42dc:	393b2001 	strb	w1, [x0, #3784]
    42e0:	17ffff3e 	b	3fd8 <setlocale@plt+0x178>
    42e4:	d503249f 	bti	j
    42e8:	f00000a0 	adrp	x0, 1b000 <_obstack_memory_used@@Base+0xe1c0>
    42ec:	91320000 	add	x0, x0, #0xc80
    42f0:	f90003e0 	str	x0, [sp]
    42f4:	b9000bff 	str	wzr, [sp, #8]
    42f8:	17ffff38 	b	3fd8 <setlocale@plt+0x178>
    42fc:	d503249f 	bti	j
    4300:	f0000140 	adrp	x0, 2f000 <_obstack_memory_used@@Base+0x221c0>
    4304:	f947d400 	ldr	x0, [x0, #4008]
    4308:	d0000141 	adrp	x1, 2e000 <_obstack_memory_used@@Base+0x211c0>
    430c:	913d0022 	add	x2, x1, #0xf40
    4310:	900000a3 	adrp	x3, 18000 <_obstack_memory_used@@Base+0xb1c0>
    4314:	910a0063 	add	x3, x3, #0x280
    4318:	9123c042 	add	x2, x2, #0x8f0
    431c:	f9400001 	ldr	x1, [x0]
    4320:	9105c063 	add	x3, x3, #0x170
    4324:	90000024 	adrp	x4, 8000 <setlocale@plt+0x41a0>
    4328:	f00000a0 	adrp	x0, 1b000 <_obstack_memory_used@@Base+0xe1c0>
    432c:	911e9084 	add	x4, x4, #0x7a4
    4330:	9136a000 	add	x0, x0, #0xda8
    4334:	f90007e3 	str	x3, [sp, #8]
    4338:	9400393a 	bl	12820 <_obstack_memory_used@@Base+0x59e0>
    433c:	f94007e3 	ldr	x3, [sp, #8]
    4340:	b8607860 	ldr	w0, [x3, x0, lsl #2]
    4344:	b9000be0 	str	w0, [sp, #8]
    4348:	17ffff24 	b	3fd8 <setlocale@plt+0x178>
    434c:	d503249f 	bti	j
    4350:	910ac320 	add	x0, x25, #0x2b0
    4354:	52800041 	mov	w1, #0x2                   	// #2
    4358:	b90cd001 	str	w1, [x0, #3280]
    435c:	17ffff1f 	b	3fd8 <setlocale@plt+0x178>
    4360:	d503249f 	bti	j
    4364:	910ec340 	add	x0, x26, #0x3b0
    4368:	52800061 	mov	w1, #0x3                   	// #3
    436c:	b9007c01 	str	w1, [x0, #124]
    4370:	17ffff1a 	b	3fd8 <setlocale@plt+0x178>
    4374:	d503249f 	bti	j
    4378:	f0000140 	adrp	x0, 2f000 <_obstack_memory_used@@Base+0x221c0>
    437c:	f947d400 	ldr	x0, [x0, #4008]
    4380:	f9400001 	ldr	x1, [x0]
    4384:	b40002a1 	cbz	x1, 43d8 <setlocale@plt+0x578>
    4388:	d0000140 	adrp	x0, 2e000 <_obstack_memory_used@@Base+0x211c0>
    438c:	900000a3 	adrp	x3, 18000 <_obstack_memory_used@@Base+0xb1c0>
    4390:	913d0002 	add	x2, x0, #0xf40
    4394:	910a0063 	add	x3, x3, #0x280
    4398:	9103c063 	add	x3, x3, #0xf0
    439c:	91204042 	add	x2, x2, #0x810
    43a0:	90000024 	adrp	x4, 8000 <setlocale@plt+0x41a0>
    43a4:	f00000a0 	adrp	x0, 1b000 <_obstack_memory_used@@Base+0xe1c0>
    43a8:	911e9084 	add	x4, x4, #0x7a4
    43ac:	9136e000 	add	x0, x0, #0xdb8
    43b0:	f9001be3 	str	x3, [sp, #48]
    43b4:	9400391b 	bl	12820 <_obstack_memory_used@@Base+0x59e0>
    43b8:	f9401be3 	ldr	x3, [sp, #48]
    43bc:	b8607860 	ldr	w0, [x3, x0, lsl #2]
    43c0:	7100041f 	cmp	w0, #0x1
    43c4:	540000a0 	b.eq	43d8 <setlocale@plt+0x578>  // b.none
    43c8:	7100081f 	cmp	w0, #0x2
    43cc:	5400b600 	b.eq	5a8c <setlocale@plt+0x1c2c>  // b.none
    43d0:	52800000 	mov	w0, #0x0                   	// #0
    43d4:	14000002 	b	43dc <setlocale@plt+0x57c>
    43d8:	52800020 	mov	w0, #0x1                   	// #1
    43dc:	910ac321 	add	x1, x25, #0x2b0
    43e0:	12000000 	and	w0, w0, #0x1
    43e4:	393f8420 	strb	w0, [x1, #4065]
    43e8:	17fffefc 	b	3fd8 <setlocale@plt+0x178>
    43ec:	d503249f 	bti	j
    43f0:	f0000141 	adrp	x1, 2f000 <_obstack_memory_used@@Base+0x221c0>
    43f4:	f947d421 	ldr	x1, [x1, #4008]
    43f8:	f9001be1 	str	x1, [sp, #48]
    43fc:	f9400020 	ldr	x0, [x1]
    4400:	940032a8 	bl	10ea0 <_obstack_memory_used@@Base+0x4060>
    4404:	f9401be1 	ldr	x1, [sp, #48]
    4408:	3500c040 	cbnz	w0, 5c10 <setlocale@plt+0x1db0>
    440c:	910ac321 	add	x1, x25, #0x2b0
    4410:	90000160 	adrp	x0, 30000 <_obstack_memory_used@@Base+0x231c0>
    4414:	91004000 	add	x0, x0, #0x10
    4418:	910ec342 	add	x2, x26, #0x3b0
    441c:	f946b023 	ldr	x3, [x1, #3424]
    4420:	f9006003 	str	x3, [x0, #192]
    4424:	b94d6820 	ldr	w0, [x1, #3432]
    4428:	b8120040 	stur	w0, [x2, #-224]
    442c:	17fffeeb 	b	3fd8 <setlocale@plt+0x178>
    4430:	d503249f 	bti	j
    4434:	910ac320 	add	x0, x25, #0x2b0
    4438:	52800021 	mov	w1, #0x1                   	// #1
    443c:	39322001 	strb	w1, [x0, #3208]
    4440:	17fffee6 	b	3fd8 <setlocale@plt+0x178>
    4444:	d503249f 	bti	j
    4448:	52800060 	mov	w0, #0x3                   	// #3
    444c:	b9000be0 	str	w0, [sp, #8]
    4450:	17fffee2 	b	3fd8 <setlocale@plt+0x178>
    4454:	d503249f 	bti	j
    4458:	f0000140 	adrp	x0, 2f000 <_obstack_memory_used@@Base+0x221c0>
    445c:	f947d400 	ldr	x0, [x0, #4008]
    4460:	f9001be0 	str	x0, [sp, #48]
    4464:	f9400000 	ldr	x0, [x0]
    4468:	94000ec3 	bl	7f74 <setlocale@plt+0x4114>
    446c:	aa0003fc 	mov	x28, x0
    4470:	b6ffdb40 	tbz	x0, #63, 3fd8 <setlocale@plt+0x178>
    4474:	528000a2 	mov	w2, #0x5                   	// #5
    4478:	f00000a1 	adrp	x1, 1b000 <_obstack_memory_used@@Base+0xe1c0>
    447c:	d2800000 	mov	x0, #0x0                   	// #0
    4480:	91350021 	add	x1, x1, #0xd40
    4484:	97fffe37 	bl	3d60 <dcgettext@plt>
    4488:	aa0003f3 	mov	x19, x0
    448c:	f9401be0 	ldr	x0, [sp, #48]
    4490:	f9400000 	ldr	x0, [x0]
    4494:	9400119f 	bl	8b10 <setlocale@plt+0x4cb0>
    4498:	aa0003e4 	mov	x4, x0
    449c:	f00000a2 	adrp	x2, 1b000 <_obstack_memory_used@@Base+0xe1c0>
    44a0:	aa1303e3 	mov	x3, x19
    44a4:	91356042 	add	x2, x2, #0xd58
    44a8:	52800001 	mov	w1, #0x0                   	// #0
    44ac:	52800040 	mov	w0, #0x2                   	// #2
    44b0:	97fffcf0 	bl	3870 <error@plt>
    44b4:	d503249f 	bti	j
    44b8:	52800080 	mov	w0, #0x4                   	// #4
    44bc:	b90013e0 	str	w0, [sp, #16]
    44c0:	17fffec6 	b	3fd8 <setlocale@plt+0x178>
    44c4:	d503249f 	bti	j
    44c8:	910ac320 	add	x0, x25, #0x2b0
    44cc:	52800041 	mov	w1, #0x2                   	// #2
    44d0:	b90c8401 	str	w1, [x0, #3204]
    44d4:	17fffec1 	b	3fd8 <setlocale@plt+0x178>
    44d8:	d503249f 	bti	j
    44dc:	528000a0 	mov	w0, #0x5                   	// #5
    44e0:	b90013e0 	str	w0, [sp, #16]
    44e4:	17fffebd 	b	3fd8 <setlocale@plt+0x178>
    44e8:	d503249f 	bti	j
    44ec:	910ac320 	add	x0, x25, #0x2b0
    44f0:	52800021 	mov	w1, #0x1                   	// #1
    44f4:	3931e001 	strb	w1, [x0, #3192]
    44f8:	17fffeb8 	b	3fd8 <setlocale@plt+0x178>
    44fc:	d503249f 	bti	j
    4500:	910ac320 	add	x0, x25, #0x2b0
    4504:	52800021 	mov	w1, #0x1                   	// #1
    4508:	393b2401 	strb	w1, [x0, #3785]
    450c:	17fffeb3 	b	3fd8 <setlocale@plt+0x178>
    4510:	d503249f 	bti	j
    4514:	52800020 	mov	w0, #0x1                   	// #1
    4518:	b9002be0 	str	w0, [sp, #40]
    451c:	17fffeaf 	b	3fd8 <setlocale@plt+0x178>
    4520:	d503249f 	bti	j
    4524:	910ac320 	add	x0, x25, #0x2b0
    4528:	52800021 	mov	w1, #0x1                   	// #1
    452c:	b90cd001 	str	w1, [x0, #3280]
    4530:	17fffeaa 	b	3fd8 <setlocale@plt+0x178>
    4534:	d503249f 	bti	j
    4538:	90000160 	adrp	x0, 30000 <_obstack_memory_used@@Base+0x231c0>
    453c:	91004000 	add	x0, x0, #0x10
    4540:	b9000bff 	str	wzr, [sp, #8]
    4544:	3902ec1f 	strb	wzr, [x0, #187]
    4548:	17fffea4 	b	3fd8 <setlocale@plt+0x178>
    454c:	d503249f 	bti	j
    4550:	910ec340 	add	x0, x26, #0x3b0
    4554:	52800021 	mov	w1, #0x1                   	// #1
    4558:	b9000bff 	str	wzr, [sp, #8]
    455c:	38110001 	sturb	w1, [x0, #-240]
    4560:	17fffe9e 	b	3fd8 <setlocale@plt+0x178>
    4564:	d503249f 	bti	j
    4568:	52800080 	mov	w0, #0x4                   	// #4
    456c:	b9000be0 	str	w0, [sp, #8]
    4570:	17fffe9a 	b	3fd8 <setlocale@plt+0x178>
    4574:	d503249f 	bti	j
    4578:	910ac320 	add	x0, x25, #0x2b0
    457c:	52800021 	mov	w1, #0x1                   	// #1
    4580:	39320001 	strb	w1, [x0, #3200]
    4584:	17fffe95 	b	3fd8 <setlocale@plt+0x178>
    4588:	d503249f 	bti	j
    458c:	90000161 	adrp	x1, 30000 <_obstack_memory_used@@Base+0x231c0>
    4590:	910ac320 	add	x0, x25, #0x2b0
    4594:	910ec342 	add	x2, x26, #0x3b0
    4598:	91004021 	add	x1, x1, #0x10
    459c:	52801603 	mov	w3, #0xb0                  	// #176
    45a0:	17fffeee 	b	4158 <setlocale@plt+0x2f8>
    45a4:	d503249f 	bti	j
    45a8:	90000160 	adrp	x0, 30000 <_obstack_memory_used@@Base+0x231c0>
    45ac:	91004000 	add	x0, x0, #0x10
    45b0:	b9000bff 	str	wzr, [sp, #8]
    45b4:	3902e81f 	strb	wzr, [x0, #186]
    45b8:	17fffe88 	b	3fd8 <setlocale@plt+0x178>
    45bc:	d503249f 	bti	j
    45c0:	b9400be3 	ldr	w3, [sp, #8]
    45c4:	910ec341 	add	x1, x26, #0x3b0
    45c8:	910ac320 	add	x0, x25, #0x2b0
    45cc:	52800042 	mov	w2, #0x2                   	// #2
    45d0:	7100007f 	cmp	w3, #0x0
    45d4:	5a9f1063 	csinv	w3, w3, wzr, ne	// ne = any
    45d8:	3900083f 	strb	wzr, [x1, #2]
    45dc:	b9000be3 	str	w3, [sp, #8]
    45e0:	b9006822 	str	w2, [x1, #104]
    45e4:	528000c1 	mov	w1, #0x6                   	// #6
    45e8:	b90013e1 	str	w1, [sp, #16]
    45ec:	3931e01f 	strb	wzr, [x0, #3192]
    45f0:	393f841f 	strb	wzr, [x0, #4065]
    45f4:	17fffe79 	b	3fd8 <setlocale@plt+0x178>
    45f8:	d503249f 	bti	j
    45fc:	910ec340 	add	x0, x26, #0x3b0
    4600:	52800021 	mov	w1, #0x1                   	// #1
    4604:	3901e001 	strb	w1, [x0, #120]
    4608:	17fffe74 	b	3fd8 <setlocale@plt+0x178>
    460c:	d503249f 	bti	j
    4610:	910ac320 	add	x0, x25, #0x2b0
    4614:	52800021 	mov	w1, #0x1                   	// #1
    4618:	b90c8401 	str	w1, [x0, #3204]
    461c:	17fffe6f 	b	3fd8 <setlocale@plt+0x178>
    4620:	d503249f 	bti	j
    4624:	528000e0 	mov	w0, #0x7                   	// #7
    4628:	b9001be0 	str	w0, [sp, #24]
    462c:	17fffe6b 	b	3fd8 <setlocale@plt+0x178>
    4630:	d503249f 	bti	j
    4634:	910ec340 	add	x0, x26, #0x3b0
    4638:	52800041 	mov	w1, #0x2                   	// #2
    463c:	b9006801 	str	w1, [x0, #104]
    4640:	17fffe66 	b	3fd8 <setlocale@plt+0x178>
    4644:	d503249f 	bti	j
    4648:	910ac320 	add	x0, x25, #0x2b0
    464c:	52800021 	mov	w1, #0x1                   	// #1
    4650:	3935b001 	strb	w1, [x0, #3436]
    4654:	17fffe61 	b	3fd8 <setlocale@plt+0x178>
    4658:	d503249f 	bti	j
    465c:	52800020 	mov	w0, #0x1                   	// #1
    4660:	b90013e0 	str	w0, [sp, #16]
    4664:	17fffe5d 	b	3fd8 <setlocale@plt+0x178>
    4668:	d503249f 	bti	j
    466c:	528000c0 	mov	w0, #0x6                   	// #6
    4670:	b90013e0 	str	w0, [sp, #16]
    4674:	17fffe59 	b	3fd8 <setlocale@plt+0x178>
    4678:	d503249f 	bti	j
    467c:	f0000143 	adrp	x3, 2f000 <_obstack_memory_used@@Base+0x221c0>
    4680:	f947d463 	ldr	x3, [x3, #4008]
    4684:	528000a2 	mov	w2, #0x5                   	// #5
    4688:	f00000a1 	adrp	x1, 1b000 <_obstack_memory_used@@Base+0xe1c0>
    468c:	d2800000 	mov	x0, #0x0                   	// #0
    4690:	91360021 	add	x1, x1, #0xd80
    4694:	f9400063 	ldr	x3, [x3]
    4698:	f9001be3 	str	x3, [sp, #48]
    469c:	97fffdb1 	bl	3d60 <dcgettext@plt>
    46a0:	f9001fe0 	str	x0, [sp, #56]
    46a4:	f9401be0 	ldr	x0, [sp, #48]
    46a8:	b00000a1 	adrp	x1, 19000 <_obstack_memory_used@@Base+0xc1c0>
    46ac:	910183e2 	add	x2, sp, #0x60
    46b0:	912a0023 	add	x3, x1, #0xa80
    46b4:	d2800001 	mov	x1, #0x0                   	// #0
    46b8:	940030c6 	bl	109d0 <_obstack_memory_used@@Base+0x3b90>
    46bc:	35003d60 	cbnz	w0, 4e68 <setlocale@plt+0x1008>
    46c0:	f94033e0 	ldr	x0, [sp, #96]
    46c4:	f90013e0 	str	x0, [sp, #32]
    46c8:	b6ffc880 	tbz	x0, #63, 3fd8 <setlocale@plt+0x178>
    46cc:	97fffdcd 	bl	3e00 <__errno_location@plt>
    46d0:	52800961 	mov	w1, #0x4b                  	// #75
    46d4:	b9000001 	str	w1, [x0]
    46d8:	97fffdca 	bl	3e00 <__errno_location@plt>
    46dc:	aa0003e3 	mov	x3, x0
    46e0:	f9401be1 	ldr	x1, [sp, #48]
    46e4:	90000160 	adrp	x0, 30000 <_obstack_memory_used@@Base+0x231c0>
    46e8:	b9400073 	ldr	w19, [x3]
    46ec:	91004002 	add	x2, x0, #0x10
    46f0:	9101e042 	add	x2, x2, #0x78
    46f4:	52800000 	mov	w0, #0x0                   	// #0
    46f8:	71005a7f 	cmp	w19, #0x16
    46fc:	1a9f1273 	csel	w19, w19, wzr, ne	// ne = any
    4700:	940037d0 	bl	12640 <_obstack_memory_used@@Base+0x5800>
    4704:	aa0003e4 	mov	x4, x0
    4708:	f9401fe3 	ldr	x3, [sp, #56]
    470c:	f00000a2 	adrp	x2, 1b000 <_obstack_memory_used@@Base+0xe1c0>
    4710:	2a1303e1 	mov	w1, w19
    4714:	91356042 	add	x2, x2, #0xd58
    4718:	52800040 	mov	w0, #0x2                   	// #2
    471c:	97fffc55 	bl	3870 <error@plt>
    4720:	d503249f 	bti	j
    4724:	52800060 	mov	w0, #0x3                   	// #3
    4728:	b90013e0 	str	w0, [sp, #16]
    472c:	17fffe2b 	b	3fd8 <setlocale@plt+0x178>
    4730:	d503249f 	bti	j
    4734:	52800020 	mov	w0, #0x1                   	// #1
    4738:	390ec340 	strb	w0, [x26, #944]
    473c:	17fffe27 	b	3fd8 <setlocale@plt+0x178>
    4740:	d503249f 	bti	j
    4744:	528000a0 	mov	w0, #0x5                   	// #5
    4748:	b9001be0 	str	w0, [sp, #24]
    474c:	17fffe23 	b	3fd8 <setlocale@plt+0x178>
    4750:	d503249f 	bti	j
    4754:	b9001bff 	str	wzr, [sp, #24]
    4758:	17fffe20 	b	3fd8 <setlocale@plt+0x178>
    475c:	d503249f 	bti	j
    4760:	910ec340 	add	x0, x26, #0x3b0
    4764:	52800081 	mov	w1, #0x4                   	// #4
    4768:	b9007c01 	str	w1, [x0, #124]
    476c:	17fffe1b 	b	3fd8 <setlocale@plt+0x178>
    4770:	d503249f 	bti	j
    4774:	f0000140 	adrp	x0, 2f000 <_obstack_memory_used@@Base+0x221c0>
    4778:	f947d400 	ldr	x0, [x0, #4008]
    477c:	f9400000 	ldr	x0, [x0]
    4780:	94002348 	bl	d4a0 <_obstack_memory_used@@Base+0x660>
    4784:	17fffe15 	b	3fd8 <setlocale@plt+0x178>
    4788:	d503249f 	bti	j
    478c:	910ec340 	add	x0, x26, #0x3b0
    4790:	52800041 	mov	w1, #0x2                   	// #2
    4794:	b9007c01 	str	w1, [x0, #124]
    4798:	17fffe10 	b	3fd8 <setlocale@plt+0x178>
    479c:	d503249f 	bti	j
    47a0:	90000160 	adrp	x0, 30000 <_obstack_memory_used@@Base+0x231c0>
    47a4:	91004000 	add	x0, x0, #0x10
    47a8:	3902ec1f 	strb	wzr, [x0, #187]
    47ac:	17fffe0b 	b	3fd8 <setlocale@plt+0x178>
    47b0:	d503249f 	bti	j
    47b4:	f0000140 	adrp	x0, 2f000 <_obstack_memory_used@@Base+0x221c0>
    47b8:	f947d400 	ldr	x0, [x0, #4008]
    47bc:	f9400001 	ldr	x1, [x0]
    47c0:	b40002a1 	cbz	x1, 4814 <setlocale@plt+0x9b4>
    47c4:	d0000140 	adrp	x0, 2e000 <_obstack_memory_used@@Base+0x211c0>
    47c8:	900000a3 	adrp	x3, 18000 <_obstack_memory_used@@Base+0xb1c0>
    47cc:	913d0002 	add	x2, x0, #0xf40
    47d0:	910a0063 	add	x3, x3, #0x280
    47d4:	9103c063 	add	x3, x3, #0xf0
    47d8:	91204042 	add	x2, x2, #0x810
    47dc:	90000024 	adrp	x4, 8000 <setlocale@plt+0x41a0>
    47e0:	f00000a0 	adrp	x0, 1b000 <_obstack_memory_used@@Base+0xe1c0>
    47e4:	911e9084 	add	x4, x4, #0x7a4
    47e8:	9135c000 	add	x0, x0, #0xd70
    47ec:	f9001be3 	str	x3, [sp, #48]
    47f0:	9400380c 	bl	12820 <_obstack_memory_used@@Base+0x59e0>
    47f4:	f9401be3 	ldr	x3, [sp, #48]
    47f8:	b8607860 	ldr	w0, [x3, x0, lsl #2]
    47fc:	7100041f 	cmp	w0, #0x1
    4800:	540000a0 	b.eq	4814 <setlocale@plt+0x9b4>  // b.none
    4804:	7100081f 	cmp	w0, #0x2
    4808:	54ffbe81 	b.ne	3fd8 <setlocale@plt+0x178>  // b.any
    480c:	9400115d 	bl	8d80 <setlocale@plt+0x4f20>
    4810:	3607be40 	tbz	w0, #0, 3fd8 <setlocale@plt+0x178>
    4814:	910ac320 	add	x0, x25, #0x2b0
    4818:	52800061 	mov	w1, #0x3                   	// #3
    481c:	b90cd001 	str	w1, [x0, #3280]
    4820:	17fffdee 	b	3fd8 <setlocale@plt+0x178>
    4824:	d503249f 	bti	j
    4828:	910ac320 	add	x0, x25, #0x2b0
    482c:	52800021 	mov	w1, #0x1                   	// #1
    4830:	393f8001 	strb	w1, [x0, #4064]
    4834:	17fffde9 	b	3fd8 <setlocale@plt+0x178>
    4838:	d503249f 	bti	j
    483c:	52800040 	mov	w0, #0x2                   	// #2
    4840:	b9000be0 	str	w0, [sp, #8]
    4844:	17fffde5 	b	3fd8 <setlocale@plt+0x178>
    4848:	d503249f 	bti	j
    484c:	f00000a0 	adrp	x0, 1b000 <_obstack_memory_used@@Base+0xe1c0>
    4850:	91358000 	add	x0, x0, #0xd60
    4854:	94002313 	bl	d4a0 <_obstack_memory_used@@Base+0x660>
    4858:	f00000a0 	adrp	x0, 1b000 <_obstack_memory_used@@Base+0xe1c0>
    485c:	9135a000 	add	x0, x0, #0xd68
    4860:	94002310 	bl	d4a0 <_obstack_memory_used@@Base+0x660>
    4864:	17fffddd 	b	3fd8 <setlocale@plt+0x178>
    4868:	d503249f 	bti	j
    486c:	910ec340 	add	x0, x26, #0x3b0
    4870:	52800021 	mov	w1, #0x1                   	// #1
    4874:	b9006801 	str	w1, [x0, #104]
    4878:	17fffdd8 	b	3fd8 <setlocale@plt+0x178>
    487c:	d503249f 	bti	j
    4880:	b9400be0 	ldr	w0, [sp, #8]
    4884:	7100001f 	cmp	w0, #0x0
    4888:	1a9f07e0 	cset	w0, ne	// ne = any
    488c:	b9000be0 	str	w0, [sp, #8]
    4890:	17fffdd2 	b	3fd8 <setlocale@plt+0x178>
    4894:	d503249f 	bti	j
    4898:	f0000142 	adrp	x2, 2f000 <_obstack_memory_used@@Base+0x221c0>
    489c:	f947e042 	ldr	x2, [x2, #4032]
    48a0:	f00000a1 	adrp	x1, 1b000 <_obstack_memory_used@@Base+0xe1c0>
    48a4:	9137e021 	add	x1, x1, #0xdf8
    48a8:	aa0103e0 	mov	x0, x1
    48ac:	f9400054 	ldr	x20, [x2]
    48b0:	94000c98 	bl	7b10 <setlocale@plt+0x3cb0>
    48b4:	f00000a1 	adrp	x1, 1b000 <_obstack_memory_used@@Base+0xe1c0>
    48b8:	91384021 	add	x1, x1, #0xe10
    48bc:	aa0003f3 	mov	x19, x0
    48c0:	aa0103e0 	mov	x0, x1
    48c4:	94000c93 	bl	7b10 <setlocale@plt+0x3cb0>
    48c8:	aa0003e5 	mov	x5, x0
    48cc:	aa1303e4 	mov	x4, x19
    48d0:	f00000a3 	adrp	x3, 1b000 <_obstack_memory_used@@Base+0xe1c0>
    48d4:	f00000a2 	adrp	x2, 1b000 <_obstack_memory_used@@Base+0xe1c0>
    48d8:	91388063 	add	x3, x3, #0xe20
    48dc:	91246042 	add	x2, x2, #0x918
    48e0:	b00000a1 	adrp	x1, 19000 <_obstack_memory_used@@Base+0xc1c0>
    48e4:	91288021 	add	x1, x1, #0xa20
    48e8:	d2800006 	mov	x6, #0x0                   	// #0
    48ec:	aa1403e0 	mov	x0, x20
    48f0:	94002ebd 	bl	103e4 <_obstack_memory_used@@Base+0x35a4>
    48f4:	52800000 	mov	w0, #0x0                   	// #0
    48f8:	97fffbce 	bl	3830 <exit@plt>
    48fc:	910ac320 	add	x0, x25, #0x2b0
    4900:	f946b000 	ldr	x0, [x0, #3424]
    4904:	b4005aa0 	cbz	x0, 5458 <setlocale@plt+0x15f8>
    4908:	b9400be0 	ldr	w0, [sp, #8]
    490c:	37f88a20 	tbnz	w0, #31, 5a50 <setlocale@plt+0x1bf0>
    4910:	b9400be0 	ldr	w0, [sp, #8]
    4914:	910ac321 	add	x1, x25, #0x2b0
    4918:	51000802 	sub	w2, w0, #0x2
    491c:	b90c7c20 	str	w0, [x1, #3196]
    4920:	7100085f 	cmp	w2, #0x2
    4924:	54000069 	b.ls	4930 <setlocale@plt+0xad0>  // b.plast
    4928:	397f8420 	ldrb	w0, [x1, #4065]
    492c:	36002dc0 	tbz	w0, #0, 4ee4 <setlocale@plt+0x1084>
    4930:	b7f86b5c 	tbnz	x28, #63, 5698 <setlocale@plt+0x1838>
    4934:	d2800060 	mov	x0, #0x3                   	// #3
    4938:	910ac335 	add	x21, x25, #0x2b0
    493c:	9ac00b80 	udiv	x0, x28, x0
    4940:	b94c7ea1 	ldr	w1, [x21, #3196]
    4944:	f906babc 	str	x28, [x21, #3440]
    4948:	51000821 	sub	w1, w1, #0x2
    494c:	8b000402 	add	x2, x0, x0, lsl #1
    4950:	eb02039f 	cmp	x28, x2
    4954:	9a800400 	cinc	x0, x0, ne	// ne = any
    4958:	f907faa0 	str	x0, [x21, #4080]
    495c:	7100083f 	cmp	w1, #0x2
    4960:	54000088 	b.hi	4970 <setlocale@plt+0xb10>  // b.pmore
    4964:	f94013e0 	ldr	x0, [sp, #32]
    4968:	b7f83060 	tbnz	x0, #63, 4f74 <setlocale@plt+0x1114>
    496c:	f90006a0 	str	x0, [x21, #8]
    4970:	b9402be0 	ldr	w0, [sp, #40]
    4974:	7100001f 	cmp	w0, #0x0
    4978:	54003acb 	b.lt	50d0 <setlocale@plt+0x1270>  // b.tstop
    497c:	1a9f07e0 	cset	w0, ne	// ne = any
    4980:	910ec341 	add	x1, x26, #0x3b0
    4984:	39020020 	strb	w0, [x1, #128]
    4988:	b9401be0 	ldr	w0, [sp, #24]
    498c:	37f83760 	tbnz	w0, #31, 5078 <setlocale@plt+0x1218>
    4990:	910ac320 	add	x0, x25, #0x2b0
    4994:	b9401be1 	ldr	w1, [sp, #24]
    4998:	b90c9801 	str	w1, [x0, #3224]
    499c:	910ac320 	add	x0, x25, #0x2b0
    49a0:	b94c7c15 	ldr	w21, [x0, #3196]
    49a4:	b94c9816 	ldr	w22, [x0, #3224]
    49a8:	340024b5 	cbz	w21, 4e3c <setlocale@plt+0xfdc>
    49ac:	51000aa1 	sub	w1, w21, #0x2
    49b0:	7100043f 	cmp	w1, #0x1
    49b4:	54002409 	b.ls	4e34 <setlocale@plt+0xfd4>  // b.plast
    49b8:	910ac337 	add	x23, x25, #0x2b0
    49bc:	393f42ff 	strb	wzr, [x23, #4048]
    49c0:	94002fa9 	bl	10864 <_obstack_memory_used@@Base+0x3a24>
    49c4:	f9063ae0 	str	x0, [x23, #3184]
    49c8:	71001edf 	cmp	w22, #0x7
    49cc:	54002be0 	b.eq	4f48 <setlocale@plt+0x10e8>  // b.none
    49d0:	910ac321 	add	x1, x25, #0x2b0
    49d4:	b94cd021 	ldr	w1, [x1, #3280]
    49d8:	7100043f 	cmp	w1, #0x1
    49dc:	54000289 	b.ls	4a2c <setlocale@plt+0xbcc>  // b.plast
    49e0:	51000821 	sub	w1, w1, #0x2
    49e4:	f00000a2 	adrp	x2, 1b000 <_obstack_memory_used@@Base+0xe1c0>
    49e8:	913cc042 	add	x2, x2, #0xf30
    49ec:	8b020026 	add	x6, x1, x2
    49f0:	38616841 	ldrb	w1, [x2, x1]
    49f4:	340001c1 	cbz	w1, 4a2c <setlocale@plt+0xbcc>
    49f8:	91002002 	add	x2, x0, #0x8
    49fc:	d503201f 	nop
    4a00:	d3451c23 	ubfx	x3, x1, #5, #3
    4a04:	12001025 	and	w5, w1, #0x1f
    4a08:	38401cc1 	ldrb	w1, [x6, #1]!
    4a0c:	b8637844 	ldr	w4, [x2, x3, lsl #2]
    4a10:	1ac52480 	lsr	w0, w4, w5
    4a14:	2a2003e0 	mvn	w0, w0
    4a18:	12000000 	and	w0, w0, #0x1
    4a1c:	1ac52000 	lsl	w0, w0, w5
    4a20:	4a040000 	eor	w0, w0, w4
    4a24:	b8237840 	str	w0, [x2, x3, lsl #2]
    4a28:	35fffec1 	cbnz	w1, 4a00 <setlocale@plt+0xba0>
    4a2c:	94002f8e 	bl	10864 <_obstack_memory_used@@Base+0x3a24>
    4a30:	b9400c06 	ldr	w6, [x0, #12]
    4a34:	910ec343 	add	x3, x26, #0x3b0
    4a38:	910ac325 	add	x5, x25, #0x2b0
    4a3c:	90000161 	adrp	x1, 30000 <_obstack_memory_used@@Base+0x231c0>
    4a40:	91004027 	add	x7, x1, #0x10
    4a44:	710002bf 	cmp	w21, #0x0
    4a48:	2a666be2 	mvn	w2, w6, lsr #26
    4a4c:	39400864 	ldrb	w4, [x3, #2]
    4a50:	1a9f17e1 	cset	w1, eq	// eq = none
    4a54:	397f80a8 	ldrb	w8, [x5, #4064]
    4a58:	53060042 	ubfiz	w2, w2, #26, #1
    4a5c:	52000084 	eor	w4, w4, #0x1
    4a60:	3942f0e7 	ldrb	w7, [x7, #188]
    4a64:	0a040021 	and	w1, w1, w4
    4a68:	4a060042 	eor	w2, w2, w6
    4a6c:	0a080021 	and	w1, w1, w8
    4a70:	b9000c02 	str	w2, [x0, #12]
    4a74:	f9003060 	str	x0, [x3, #96]
    4a78:	393f80a1 	strb	w1, [x5, #4064]
    4a7c:	6b0100ff 	cmp	w7, w1
    4a80:	54008b03 	b.cc	5be0 <setlocale@plt+0x1d80>  // b.lo, b.ul, b.last
    4a84:	b94013e0 	ldr	w0, [sp, #16]
    4a88:	37f832a0 	tbnz	w0, #31, 50dc <setlocale@plt+0x127c>
    4a8c:	b94013e0 	ldr	w0, [sp, #16]
    4a90:	910ac321 	add	x1, x25, #0x2b0
    4a94:	b90c8c20 	str	w0, [x1, #3212]
    4a98:	35000255 	cbnz	w21, 4ae0 <setlocale@plt+0xc80>
    4a9c:	f94003e0 	ldr	x0, [sp]
    4aa0:	b4005500 	cbz	x0, 5540 <setlocale@plt+0x16e0>
    4aa4:	900000a3 	adrp	x3, 18000 <_obstack_memory_used@@Base+0xb1c0>
    4aa8:	910a0063 	add	x3, x3, #0x280
    4aac:	91072075 	add	x21, x3, #0x1c8
    4ab0:	14000004 	b	4ac0 <setlocale@plt+0xc60>
    4ab4:	f94003e0 	ldr	x0, [sp]
    4ab8:	91001800 	add	x0, x0, #0x6
    4abc:	f90003e0 	str	x0, [sp]
    4ac0:	f94003e0 	ldr	x0, [sp]
    4ac4:	aa1503e1 	mov	x1, x21
    4ac8:	d28000c2 	mov	x2, #0x6                   	// #6
    4acc:	97fffbe5 	bl	3a60 <strncmp@plt>
    4ad0:	35005480 	cbnz	w0, 5560 <setlocale@plt+0x1700>
    4ad4:	52800040 	mov	w0, #0x2                   	// #2
    4ad8:	94001bd6 	bl	ba30 <setlocale@plt+0x7bd0>
    4adc:	3707fec0 	tbnz	w0, #0, 4ab4 <setlocale@plt+0xc54>
    4ae0:	f0000140 	adrp	x0, 2f000 <_obstack_memory_used@@Base+0x221c0>
    4ae4:	f947dc00 	ldr	x0, [x0, #4024]
    4ae8:	b9400000 	ldr	w0, [x0]
    4aec:	b90003e0 	str	w0, [sp]
    4af0:	910ac320 	add	x0, x25, #0x2b0
    4af4:	397f8400 	ldrb	w0, [x0, #4065]
    4af8:	b90013e0 	str	w0, [sp, #16]
    4afc:	37002fe0 	tbnz	w0, #0, 50f8 <setlocale@plt+0x1298>
    4b00:	910ac320 	add	x0, x25, #0x2b0
    4b04:	397b2000 	ldrb	w0, [x0, #3784]
    4b08:	36000080 	tbz	w0, #0, 4b18 <setlocale@plt+0xcb8>
    4b0c:	910ec340 	add	x0, x26, #0x3b0
    4b10:	52800021 	mov	w1, #0x1                   	// #1
    4b14:	39024001 	strb	w1, [x0, #144]
    4b18:	910ec340 	add	x0, x26, #0x3b0
    4b1c:	b9407c01 	ldr	w1, [x0, #124]
    4b20:	350000c1 	cbnz	w1, 4b38 <setlocale@plt+0xcd8>
    4b24:	3941e000 	ldrb	w0, [x0, #120]
    4b28:	36001fe0 	tbz	w0, #0, 4f24 <setlocale@plt+0x10c4>
    4b2c:	52800020 	mov	w0, #0x1                   	// #1
    4b30:	910ec341 	add	x1, x26, #0x3b0
    4b34:	b9007c20 	str	w0, [x1, #124]
    4b38:	394ec340 	ldrb	w0, [x26, #944]
    4b3c:	910ec355 	add	x21, x26, #0x3b0
    4b40:	36000260 	tbz	w0, #0, 4b8c <setlocale@plt+0xd2c>
    4b44:	b0000003 	adrp	x3, 5000 <setlocale@plt+0x11a0>
    4b48:	b0000002 	adrp	x2, 5000 <setlocale@plt+0x11a0>
    4b4c:	913f0063 	add	x3, x3, #0xfc0
    4b50:	913c1042 	add	x2, x2, #0xf04
    4b54:	b0000001 	adrp	x1, 5000 <setlocale@plt+0x11a0>
    4b58:	d28003c0 	mov	x0, #0x1e                  	// #30
    4b5c:	913b8021 	add	x1, x1, #0xee0
    4b60:	94004034 	bl	14c30 <_obstack_memory_used@@Base+0x7df0>
    4b64:	f81a02a0 	stur	x0, [x21, #-96]
    4b68:	b4004d60 	cbz	x0, 5514 <setlocale@plt+0x16b4>
    4b6c:	f0000144 	adrp	x4, 2f000 <_obstack_memory_used@@Base+0x221c0>
    4b70:	f947f084 	ldr	x4, [x4, #4064]
    4b74:	d10162a0 	sub	x0, x21, #0x58
    4b78:	f0000143 	adrp	x3, 2f000 <_obstack_memory_used@@Base+0x221c0>
    4b7c:	f947d863 	ldr	x3, [x3, #4016]
    4b80:	d2800002 	mov	x2, #0x0                   	// #0
    4b84:	d2800001 	mov	x1, #0x0                   	// #0
    4b88:	94001fe6 	bl	cb20 <_obstack_begin@@Base>
    4b8c:	f00000a0 	adrp	x0, 1b000 <_obstack_memory_used@@Base+0xe1c0>
    4b90:	912a8000 	add	x0, x0, #0xaa0
    4b94:	97fffca3 	bl	3e20 <getenv@plt>
    4b98:	94000cca 	bl	7ec0 <setlocale@plt+0x4060>
    4b9c:	910ac322 	add	x2, x25, #0x2b0
    4ba0:	910ec343 	add	x3, x26, #0x3b0
    4ba4:	b94c8c41 	ldr	w1, [x2, #3212]
    4ba8:	f8128060 	stur	x0, [x3, #-216]
    4bac:	51000c21 	sub	w1, w1, #0x3
    4bb0:	721e783f 	tst	w1, #0xfffffffd
    4bb4:	54000060 	b.eq	4bc0 <setlocale@plt+0xd60>  // b.none
    4bb8:	b94c7c40 	ldr	w0, [x2, #3196]
    4bbc:	350019a0 	cbnz	w0, 4ef0 <setlocale@plt+0x1090>
    4bc0:	910ec341 	add	x1, x26, #0x3b0
    4bc4:	52800022 	mov	w2, #0x1                   	// #1
    4bc8:	52800000 	mov	w0, #0x0                   	// #0
    4bcc:	39024422 	strb	w2, [x1, #145]
    4bd0:	910ac321 	add	x1, x25, #0x2b0
    4bd4:	910ec355 	add	x21, x26, #0x3b0
    4bd8:	12000000 	and	w0, w0, #0x1
    4bdc:	397f8021 	ldrb	w1, [x1, #4064]
    4be0:	39024aa0 	strb	w0, [x21, #146]
    4be4:	37004641 	tbnz	w1, #0, 54ac <setlocale@plt+0x164c>
    4be8:	910ec340 	add	x0, x26, #0x3b0
    4bec:	39400800 	ldrb	w0, [x0, #2]
    4bf0:	37003920 	tbnz	w0, #0, 5314 <setlocale@plt+0x14b4>
    4bf4:	910ec355 	add	x21, x26, #0x3b0
    4bf8:	d2800c81 	mov	x1, #0x64                  	// #100
    4bfc:	d2801802 	mov	x2, #0xc0                  	// #192
    4c00:	d2800000 	mov	x0, #0x0                   	// #0
    4c04:	f9004ea1 	str	x1, [x21, #152]
    4c08:	97fffb2a 	bl	38b0 <reallocarray@plt>
    4c0c:	b4004840 	cbz	x0, 5514 <setlocale@plt+0x16b4>
    4c10:	910ac321 	add	x1, x25, #0x2b0
    4c14:	f906183f 	str	xzr, [x1, #3120]
    4c18:	f906c420 	str	x0, [x1, #3464]
    4c1c:	94001071 	bl	8de0 <setlocale@plt+0x4f80>
    4c20:	b94003e0 	ldr	w0, [sp]
    4c24:	4b000296 	sub	w22, w20, w0
    4c28:	710002df 	cmp	w22, #0x0
    4c2c:	5400134d 	b.le	4e94 <setlocale@plt+0x1034>
    4c30:	b98003fc 	ldrsw	x28, [sp]
    4c34:	b00000a0 	adrp	x0, 19000 <_obstack_memory_used@@Base+0xc1c0>
    4c38:	912a0017 	add	x23, x0, #0xa80
    4c3c:	d503201f 	nop
    4c40:	f87c7a60 	ldr	x0, [x19, x28, lsl #3]
    4c44:	aa1703e3 	mov	x3, x23
    4c48:	52800022 	mov	w2, #0x1                   	// #1
    4c4c:	52800001 	mov	w1, #0x0                   	// #0
    4c50:	9100079c 	add	x28, x28, #0x1
    4c54:	940041f3 	bl	15420 <_obstack_memory_used@@Base+0x85e0>
    4c58:	6b1c029f 	cmp	w20, w28
    4c5c:	54ffff2c 	b.gt	4c40 <setlocale@plt+0xde0>
    4c60:	910ac320 	add	x0, x25, #0x2b0
    4c64:	f9461800 	ldr	x0, [x0, #3120]
    4c68:	b5004d80 	cbnz	x0, 5618 <setlocale@plt+0x17b8>
    4c6c:	910ec340 	add	x0, x26, #0x3b0
    4c70:	f8598000 	ldur	x0, [x0, #-104]
    4c74:	710006df 	cmp	w22, #0x1
    4c78:	540012ad 	b.le	4ecc <setlocale@plt+0x106c>
    4c7c:	910ec340 	add	x0, x26, #0x3b0
    4c80:	f8598013 	ldur	x19, [x0, #-104]
    4c84:	b4000713 	cbz	x19, 4d64 <setlocale@plt+0xf04>
    4c88:	910ec354 	add	x20, x26, #0x3b0
    4c8c:	910163f8 	add	x24, sp, #0x58
    4c90:	910183f7 	add	x23, sp, #0x60
    4c94:	52800036 	mov	w22, #0x1                   	// #1
    4c98:	1400000d 	b	4ccc <setlocale@plt+0xe6c>
    4c9c:	f9400661 	ldr	x1, [x19, #8]
    4ca0:	39404262 	ldrb	w2, [x19, #16]
    4ca4:	94002be7 	bl	fc40 <_obstack_memory_used@@Base+0x2e00>
    4ca8:	f9400260 	ldr	x0, [x19]
    4cac:	97fffbed 	bl	3c60 <free@plt>
    4cb0:	f9400660 	ldr	x0, [x19, #8]
    4cb4:	97fffbeb 	bl	3c60 <free@plt>
    4cb8:	aa1303e0 	mov	x0, x19
    4cbc:	97fffbe9 	bl	3c60 <free@plt>
    4cc0:	f8598293 	ldur	x19, [x20, #-104]
    4cc4:	39000696 	strb	w22, [x20, #1]
    4cc8:	b40004f3 	cbz	x19, 4d64 <setlocale@plt+0xf04>
    4ccc:	f85a0295 	ldur	x21, [x20, #-96]
    4cd0:	f9400e60 	ldr	x0, [x19, #24]
    4cd4:	f8198280 	stur	x0, [x20, #-104]
    4cd8:	f9400260 	ldr	x0, [x19]
    4cdc:	b4fffe15 	cbz	x21, 4c9c <setlocale@plt+0xe3c>
    4ce0:	b5fffde0 	cbnz	x0, 4c9c <setlocale@plt+0xe3c>
    4ce4:	d1016285 	sub	x5, x20, #0x58
    4ce8:	a94100a1 	ldp	x1, x0, [x5, #16]
    4cec:	cb010001 	sub	x1, x0, x1
    4cf0:	f1003c3f 	cmp	x1, #0xf
    4cf4:	540082e9 	b.ls	5d50 <setlocale@plt+0x1ef0>  // b.plast
    4cf8:	3cdf0000 	ldur	q0, [x0, #-16]
    4cfc:	d1004004 	sub	x4, x0, #0x10
    4d00:	aa1803e2 	mov	x2, x24
    4d04:	aa1703e1 	mov	x1, x23
    4d08:	aa1503e0 	mov	x0, x21
    4d0c:	52800023 	mov	w3, #0x1                   	// #1
    4d10:	f9000ca4 	str	x4, [x5, #24]
    4d14:	3d801be0 	str	q0, [sp, #96]
    4d18:	94000ec2 	bl	8820 <setlocale@plt+0x49c0>
    4d1c:	aa0003fb 	mov	x27, x0
    4d20:	b4003e80 	cbz	x0, 54f0 <setlocale@plt+0x1690>
    4d24:	f9402fe1 	ldr	x1, [sp, #88]
    4d28:	f94012a0 	ldr	x0, [x21, #32]
    4d2c:	f9400021 	ldr	x1, [x1]
    4d30:	d1000400 	sub	x0, x0, #0x1
    4d34:	f90012a0 	str	x0, [x21, #32]
    4d38:	b4001781 	cbz	x1, 5028 <setlocale@plt+0x11c8>
    4d3c:	aa1b03e0 	mov	x0, x27
    4d40:	97fffbc8 	bl	3c60 <free@plt>
    4d44:	f9400260 	ldr	x0, [x19]
    4d48:	97fffbc6 	bl	3c60 <free@plt>
    4d4c:	f9400660 	ldr	x0, [x19, #8]
    4d50:	97fffbc4 	bl	3c60 <free@plt>
    4d54:	aa1303e0 	mov	x0, x19
    4d58:	97fffbc2 	bl	3c60 <free@plt>
    4d5c:	f8598293 	ldur	x19, [x20, #-104]
    4d60:	b5fffb73 	cbnz	x19, 4ccc <setlocale@plt+0xe6c>
    4d64:	910ac320 	add	x0, x25, #0x2b0
    4d68:	397f8401 	ldrb	w1, [x0, #4065]
    4d6c:	36001281 	tbz	w1, #0, 4fbc <setlocale@plt+0x115c>
    4d70:	39735000 	ldrb	w0, [x0, #3284]
    4d74:	36001240 	tbz	w0, #0, 4fbc <setlocale@plt+0x115c>
    4d78:	90000178 	adrp	x24, 30000 <_obstack_memory_used@@Base+0x231c0>
    4d7c:	91038300 	add	x0, x24, #0xe0
    4d80:	91004001 	add	x1, x0, #0x10
    4d84:	f9400800 	ldr	x0, [x0, #16]
    4d88:	f100081f 	cmp	x0, #0x2
    4d8c:	540001a1 	b.ne	4dc0 <setlocale@plt+0xf60>  // b.any
    4d90:	f9400422 	ldr	x2, [x1, #8]
    4d94:	528b6360 	mov	w0, #0x5b1b                	// #23323
    4d98:	79400042 	ldrh	w2, [x2]
    4d9c:	6b00005f 	cmp	w2, w0
    4da0:	54000101 	b.ne	4dc0 <setlocale@plt+0xf60>  // b.any
    4da4:	f9400820 	ldr	x0, [x1, #16]
    4da8:	f100041f 	cmp	x0, #0x1
    4dac:	540000a1 	b.ne	4dc0 <setlocale@plt+0xf60>  // b.any
    4db0:	f9400c20 	ldr	x0, [x1, #24]
    4db4:	39400000 	ldrb	w0, [x0]
    4db8:	7101b41f 	cmp	w0, #0x6d
    4dbc:	540000e0 	b.eq	4dd8 <setlocale@plt+0xf78>  // b.none
    4dc0:	91038304 	add	x4, x24, #0xe0
    4dc4:	91004093 	add	x19, x4, #0x10
    4dc8:	aa1303e0 	mov	x0, x19
    4dcc:	9400188d 	bl	b000 <setlocale@plt+0x71a0>
    4dd0:	91004260 	add	x0, x19, #0x10
    4dd4:	9400188b 	bl	b000 <setlocale@plt+0x71a0>
    4dd8:	f0000140 	adrp	x0, 2f000 <_obstack_memory_used@@Base+0x221c0>
    4ddc:	f947e000 	ldr	x0, [x0, #4032]
    4de0:	910ac336 	add	x22, x25, #0x2b0
    4de4:	900000b5 	adrp	x21, 18000 <_obstack_memory_used@@Base+0xb1c0>
    4de8:	910a02b5 	add	x21, x21, #0x280
    4dec:	910042b3 	add	x19, x21, #0x10
    4df0:	913382d6 	add	x22, x22, #0xce0
    4df4:	f9400000 	ldr	x0, [x0]
    4df8:	910102b5 	add	x21, x21, #0x40
    4dfc:	97fffbb5 	bl	3cd0 <fflush_unlocked@plt>
    4e00:	14000004 	b	4e10 <setlocale@plt+0xfb0>
    4e04:	91001273 	add	x19, x19, #0x4
    4e08:	eb15027f 	cmp	x19, x21
    4e0c:	54004fa0 	b.eq	5800 <setlocale@plt+0x19a0>  // b.none
    4e10:	b9400274 	ldr	w20, [x19]
    4e14:	aa1603e0 	mov	x0, x22
    4e18:	2a1403e1 	mov	w1, w20
    4e1c:	97fffb7d 	bl	3c10 <sigismember@plt>
    4e20:	34ffff20 	cbz	w0, 4e04 <setlocale@plt+0xfa4>
    4e24:	2a1403e0 	mov	w0, w20
    4e28:	d2800001 	mov	x1, #0x0                   	// #0
    4e2c:	97fffae1 	bl	39b0 <signal@plt>
    4e30:	17fffff5 	b	4e04 <setlocale@plt+0xfa4>
    4e34:	f946b800 	ldr	x0, [x0, #3440]
    4e38:	b4ffdc00 	cbz	x0, 49b8 <setlocale@plt+0xb58>
    4e3c:	71001adf 	cmp	w22, #0x6
    4e40:	54ffdbc8 	b.hi	49b8 <setlocale@plt+0xb58>  // b.pmore
    4e44:	d2800940 	mov	x0, #0x4a                  	// #74
    4e48:	9ad62400 	lsr	x0, x0, x22
    4e4c:	36004e80 	tbz	w0, #0, 581c <setlocale@plt+0x19bc>
    4e50:	910ac336 	add	x22, x25, #0x2b0
    4e54:	52800020 	mov	w0, #0x1                   	// #1
    4e58:	393f42c0 	strb	w0, [x22, #4048]
    4e5c:	94002e82 	bl	10864 <_obstack_memory_used@@Base+0x3a24>
    4e60:	f9063ac0 	str	x0, [x22, #3184]
    4e64:	17fffedb 	b	49d0 <setlocale@plt+0xb70>
    4e68:	b90003e0 	str	w0, [sp]
    4e6c:	97fffbe5 	bl	3e00 <__errno_location@plt>
    4e70:	b94003e1 	ldr	w1, [sp]
    4e74:	7100043f 	cmp	w1, #0x1
    4e78:	54004e80 	b.eq	5848 <setlocale@plt+0x19e8>  // b.none
    4e7c:	71000c3f 	cmp	w1, #0x3
    4e80:	54ffc2c1 	b.ne	46d8 <setlocale@plt+0x878>  // b.any
    4e84:	b900001f 	str	wzr, [x0]
    4e88:	17fffe14 	b	46d8 <setlocale@plt+0x878>
    4e8c:	aa1703f5 	mov	x21, x23
    4e90:	17fffc1d 	b	3f04 <setlocale@plt+0xa4>
    4e94:	3941e2a0 	ldrb	w0, [x21, #120]
    4e98:	36004cc0 	tbz	w0, #0, 5830 <setlocale@plt+0x19d0>
    4e9c:	b00000a0 	adrp	x0, 19000 <_obstack_memory_used@@Base+0xc1c0>
    4ea0:	52800022 	mov	w2, #0x1                   	// #1
    4ea4:	912a0003 	add	x3, x0, #0xa80
    4ea8:	52800061 	mov	w1, #0x3                   	// #3
    4eac:	f00000a0 	adrp	x0, 1b000 <_obstack_memory_used@@Base+0xe1c0>
    4eb0:	91292000 	add	x0, x0, #0xa48
    4eb4:	9400415b 	bl	15420 <_obstack_memory_used@@Base+0x85e0>
    4eb8:	910ac320 	add	x0, x25, #0x2b0
    4ebc:	f9461800 	ldr	x0, [x0, #3120]
    4ec0:	b5003ac0 	cbnz	x0, 5618 <setlocale@plt+0x17b8>
    4ec4:	910ec340 	add	x0, x26, #0x3b0
    4ec8:	f8598000 	ldur	x0, [x0, #-104]
    4ecc:	b4fff4c0 	cbz	x0, 4d64 <setlocale@plt+0xf04>
    4ed0:	f9400c00 	ldr	x0, [x0, #24]
    4ed4:	b4005840 	cbz	x0, 59dc <setlocale@plt+0x1b7c>
    4ed8:	910ec340 	add	x0, x26, #0x3b0
    4edc:	f8598013 	ldur	x19, [x0, #-104]
    4ee0:	17ffff6a 	b	4c88 <setlocale@plt+0xe28>
    4ee4:	b6ffd29c 	tbz	x28, #63, 4934 <setlocale@plt+0xad4>
    4ee8:	d2800a1c 	mov	x28, #0x50                  	// #80
    4eec:	17fffe92 	b	4934 <setlocale@plt+0xad4>
    4ef0:	3975b040 	ldrb	w0, [x2, #3436]
    4ef4:	3707e660 	tbnz	w0, #0, 4bc0 <setlocale@plt+0xd60>
    4ef8:	3971e040 	ldrb	w0, [x2, #3192]
    4efc:	3707e620 	tbnz	w0, #0, 4bc0 <setlocale@plt+0xd60>
    4f00:	394ec340 	ldrb	w0, [x26, #944]
    4f04:	3902447f 	strb	wzr, [x3, #145]
    4f08:	370000a0 	tbnz	w0, #0, 4f1c <setlocale@plt+0x10bc>
    4f0c:	397f8440 	ldrb	w0, [x2, #4065]
    4f10:	37000060 	tbnz	w0, #0, 4f1c <setlocale@plt+0x10bc>
    4f14:	b94cd040 	ldr	w0, [x2, #3280]
    4f18:	340052e0 	cbz	w0, 5974 <setlocale@plt+0x1b14>
    4f1c:	52800020 	mov	w0, #0x1                   	// #1
    4f20:	17ffff2c 	b	4bd0 <setlocale@plt+0xd70>
    4f24:	910ac320 	add	x0, x25, #0x2b0
    4f28:	b94cd001 	ldr	w1, [x0, #3280]
    4f2c:	71000c3f 	cmp	w1, #0x3
    4f30:	54ffdfe0 	b.eq	4b2c <setlocale@plt+0xccc>  // b.none
    4f34:	b94c7c01 	ldr	w1, [x0, #3196]
    4f38:	52800060 	mov	w0, #0x3                   	// #3
    4f3c:	7100003f 	cmp	w1, #0x0
    4f40:	1a9f1400 	csinc	w0, w0, wzr, ne	// ne = any
    4f44:	17fffefb 	b	4b30 <setlocale@plt+0xcd0>
    4f48:	b9400c01 	ldr	w1, [x0, #12]
    4f4c:	32000021 	orr	w1, w1, #0x1
    4f50:	b9000c01 	str	w1, [x0, #12]
    4f54:	17fffe9f 	b	49d0 <setlocale@plt+0xb70>
    4f58:	d503249f 	bti	j
    4f5c:	52800020 	mov	w0, #0x1                   	// #1
    4f60:	b9002fe0 	str	w0, [sp, #44]
    4f64:	17fffc1d 	b	3fd8 <setlocale@plt+0x178>
    4f68:	d503249f 	bti	j
    4f6c:	b9000bff 	str	wzr, [sp, #8]
    4f70:	17fffc1a 	b	3fd8 <setlocale@plt+0x178>
    4f74:	d2800101 	mov	x1, #0x8                   	// #8
    4f78:	f00000a0 	adrp	x0, 1b000 <_obstack_memory_used@@Base+0xe1c0>
    4f7c:	913a4000 	add	x0, x0, #0xe90
    4f80:	f90006a1 	str	x1, [x21, #8]
    4f84:	97fffba7 	bl	3e20 <getenv@plt>
    4f88:	aa0003f6 	mov	x22, x0
    4f8c:	b4ffcf20 	cbz	x0, 4970 <setlocale@plt+0xb10>
    4f90:	b00000a1 	adrp	x1, 19000 <_obstack_memory_used@@Base+0xc1c0>
    4f94:	910183e2 	add	x2, sp, #0x60
    4f98:	912a0023 	add	x3, x1, #0xa80
    4f9c:	d2800001 	mov	x1, #0x0                   	// #0
    4fa0:	94002e8c 	bl	109d0 <_obstack_memory_used@@Base+0x3b90>
    4fa4:	35006760 	cbnz	w0, 5c90 <setlocale@plt+0x1e30>
    4fa8:	f94033e0 	ldr	x0, [sp, #96]
    4fac:	f90006a0 	str	x0, [x21, #8]
    4fb0:	17fffe70 	b	4970 <setlocale@plt+0xb10>
    4fb4:	b942b320 	ldr	w0, [x25, #688]
    4fb8:	35004e20 	cbnz	w0, 597c <setlocale@plt+0x1b1c>
    4fbc:	910ac333 	add	x19, x25, #0x2b0
    4fc0:	397f8260 	ldrb	w0, [x19, #4064]
    4fc4:	37003000 	tbnz	w0, #0, 55c4 <setlocale@plt+0x1764>
    4fc8:	910ec35a 	add	x26, x26, #0x3b0
    4fcc:	f85a0340 	ldur	x0, [x26, #-96]
    4fd0:	b4000080 	cbz	x0, 4fe0 <setlocale@plt+0x1180>
    4fd4:	f9401001 	ldr	x1, [x0, #32]
    4fd8:	b5006d01 	cbnz	x1, 5d78 <setlocale@plt+0x1f18>
    4fdc:	94001b05 	bl	bbf0 <setlocale@plt+0x7d90>
    4fe0:	f0000141 	adrp	x1, 2f000 <_obstack_memory_used@@Base+0x221c0>
    4fe4:	f947e821 	ldr	x1, [x1, #4048]
    4fe8:	910ac339 	add	x25, x25, #0x2b0
    4fec:	f94077e3 	ldr	x3, [sp, #232]
    4ff0:	f9400022 	ldr	x2, [x1]
    4ff4:	eb020063 	subs	x3, x3, x2
    4ff8:	d2800002 	mov	x2, #0x0                   	// #0
    4ffc:	b94c9320 	ldr	w0, [x25, #3216]
    5000:	54006ba1 	b.ne	5d74 <setlocale@plt+0x1f14>  // b.any
    5004:	a94f7bfd 	ldp	x29, x30, [sp, #240]
    5008:	a95053f3 	ldp	x19, x20, [sp, #256]
    500c:	a9515bf5 	ldp	x21, x22, [sp, #272]
    5010:	a95263f7 	ldp	x23, x24, [sp, #288]
    5014:	a9536bf9 	ldp	x25, x26, [sp, #304]
    5018:	a95473fb 	ldp	x27, x28, [sp, #320]
    501c:	910543ff 	add	sp, sp, #0x150
    5020:	d50323bf 	autiasp
    5024:	d65f03c0 	ret
    5028:	f9400aa0 	ldr	x0, [x21, #16]
    502c:	f94016a1 	ldr	x1, [x21, #40]
    5030:	9e230004 	ucvtf	s4, x0
    5034:	f9400ea0 	ldr	x0, [x21, #24]
    5038:	bd400020 	ldr	s0, [x1]
    503c:	d1000400 	sub	x0, x0, #0x1
    5040:	f9000ea0 	str	x0, [x21, #24]
    5044:	1e200880 	fmul	s0, s4, s0
    5048:	9e230005 	ucvtf	s5, x0
    504c:	1e2020b0 	fcmpe	s5, s0
    5050:	54000044 	b.mi	5058 <setlocale@plt+0x11f8>  // b.first
    5054:	17ffff3a 	b	4d3c <setlocale@plt+0xedc>
    5058:	aa1503e0 	mov	x0, x21
    505c:	94001aaa 	bl	bb04 <setlocale@plt+0x7ca4>
    5060:	f94016a0 	ldr	x0, [x21, #40]
    5064:	bd400000 	ldr	s0, [x0]
    5068:	1e200880 	fmul	s0, s4, s0
    506c:	1e2020b0 	fcmpe	s5, s0
    5070:	54004624 	b.mi	5934 <setlocale@plt+0x1ad4>  // b.first
    5074:	17ffff32 	b	4d3c <setlocale@plt+0xedc>
    5078:	d00000a0 	adrp	x0, 1b000 <_obstack_memory_used@@Base+0xe1c0>
    507c:	913b6000 	add	x0, x0, #0xed8
    5080:	97fffb68 	bl	3e20 <getenv@plt>
    5084:	aa0003f5 	mov	x21, x0
    5088:	b40001a0 	cbz	x0, 50bc <setlocale@plt+0x125c>
    508c:	f0000083 	adrp	x3, 18000 <_obstack_memory_used@@Base+0xb1c0>
    5090:	910a0063 	add	x3, x3, #0x280
    5094:	91068076 	add	x22, x3, #0x1a0
    5098:	b0000141 	adrp	x1, 2e000 <_obstack_memory_used@@Base+0x211c0>
    509c:	913d0021 	add	x1, x1, #0xf40
    50a0:	aa1603e2 	mov	x2, x22
    50a4:	91258021 	add	x1, x1, #0x960
    50a8:	94002e07 	bl	108c4 <_obstack_memory_used@@Base+0x3a84>
    50ac:	37f86360 	tbnz	w0, #31, 5d18 <setlocale@plt+0x1eb8>
    50b0:	b860dac0 	ldr	w0, [x22, w0, sxtw #2]
    50b4:	b9001be0 	str	w0, [sp, #24]
    50b8:	36ffc6c0 	tbz	w0, #31, 4990 <setlocale@plt+0xb30>
    50bc:	94000f31 	bl	8d80 <setlocale@plt+0x4f20>
    50c0:	3607c6e0 	tbz	w0, #0, 499c <setlocale@plt+0xb3c>
    50c4:	52800060 	mov	w0, #0x3                   	// #3
    50c8:	b9001be0 	str	w0, [sp, #24]
    50cc:	17fffe31 	b	4990 <setlocale@plt+0xb30>
    50d0:	94000f2c 	bl	8d80 <setlocale@plt+0x4f20>
    50d4:	12001c00 	and	w0, w0, #0xff
    50d8:	17fffe2a 	b	4980 <setlocale@plt+0xb20>
    50dc:	34002d35 	cbz	w21, 5680 <setlocale@plt+0x1820>
    50e0:	b94c84a1 	ldr	w1, [x5, #3204]
    50e4:	528000a0 	mov	w0, #0x5                   	// #5
    50e8:	51000421 	sub	w1, w1, #0x1
    50ec:	71000c3f 	cmp	w1, #0x3
    50f0:	1a9f3000 	csel	w0, w0, wzr, cc	// cc = lo, ul, last
    50f4:	17fffe67 	b	4a90 <setlocale@plt+0xc30>
    50f8:	f00000a0 	adrp	x0, 1c000 <_obstack_memory_used@@Base+0xf1c0>
    50fc:	91012000 	add	x0, x0, #0x48
    5100:	97fffb48 	bl	3e20 <getenv@plt>
    5104:	f9002be0 	str	x0, [sp, #80]
    5108:	b40030c0 	cbz	x0, 5720 <setlocale@plt+0x18c0>
    510c:	39400001 	ldrb	w1, [x0]
    5110:	34003081 	cbz	w1, 5720 <setlocale@plt+0x18c0>
    5114:	f00000a1 	adrp	x1, 1c000 <_obstack_memory_used@@Base+0xf1c0>
    5118:	91076021 	add	x1, x1, #0x1d8
    511c:	9101e3f5 	add	x21, sp, #0x78
    5120:	79400022 	ldrh	w2, [x1]
    5124:	39400821 	ldrb	w1, [x1, #2]
    5128:	7900f3e2 	strh	w2, [sp, #120]
    512c:	39000aa1 	strb	w1, [x21, #2]
    5130:	94002995 	bl	f784 <_obstack_memory_used@@Base+0x2944>
    5134:	f9002fe0 	str	x0, [sp, #88]
    5138:	910ec342 	add	x2, x26, #0x3b0
    513c:	b0000141 	adrp	x1, 2e000 <_obstack_memory_used@@Base+0x211c0>
    5140:	913d0021 	add	x1, x1, #0xf40
    5144:	91270036 	add	x22, x1, #0x9c0
    5148:	d00000a1 	adrp	x1, 1b000 <_obstack_memory_used@@Base+0xe1c0>
    514c:	91326037 	add	x23, x1, #0xc98
    5150:	f9004440 	str	x0, [x2, #136]
    5154:	f9402bfb 	ldr	x27, [sp, #80]
    5158:	39400360 	ldrb	w0, [x27]
    515c:	7100a81f 	cmp	w0, #0x2a
    5160:	540037a0 	b.eq	5854 <setlocale@plt+0x19f4>  // b.none
    5164:	7100e81f 	cmp	w0, #0x3a
    5168:	54003bc0 	b.eq	58e0 <setlocale@plt+0x1a80>  // b.none
    516c:	35000560 	cbnz	w0, 5218 <setlocale@plt+0x13b8>
    5170:	910ac320 	add	x0, x25, #0x2b0
    5174:	f947f418 	ldr	x24, [x0, #4072]
    5178:	b4003bb8 	cbz	x24, 58ec <setlocale@plt+0x1a8c>
    517c:	aa1803fc 	mov	x28, x24
    5180:	f9401718 	ldr	x24, [x24, #40]
    5184:	b4003b58 	cbz	x24, 58ec <setlocale@plt+0x1a8c>
    5188:	aa1803fb 	mov	x27, x24
    518c:	b9000bff 	str	wzr, [sp, #8]
    5190:	14000003 	b	519c <setlocale@plt+0x133c>
    5194:	f940177b 	ldr	x27, [x27, #40]
    5198:	b4ffff3b 	cbz	x27, 517c <setlocale@plt+0x131c>
    519c:	f9400377 	ldr	x23, [x27]
    51a0:	b10006ff 	cmn	x23, #0x1
    51a4:	54ffff80 	b.eq	5194 <setlocale@plt+0x1334>  // b.none
    51a8:	f9400380 	ldr	x0, [x28]
    51ac:	eb0002ff 	cmp	x23, x0
    51b0:	54ffff21 	b.ne	5194 <setlocale@plt+0x1334>  // b.any
    51b4:	f9400775 	ldr	x21, [x27, #8]
    51b8:	aa1703e2 	mov	x2, x23
    51bc:	f9400796 	ldr	x22, [x28, #8]
    51c0:	aa1503e1 	mov	x1, x21
    51c4:	aa1603e0 	mov	x0, x22
    51c8:	97fffa82 	bl	3bd0 <memcmp@plt>
    51cc:	35000080 	cbnz	w0, 51dc <setlocale@plt+0x137c>
    51d0:	92800000 	mov	x0, #0xffffffffffffffff    	// #-1
    51d4:	f9000360 	str	x0, [x27]
    51d8:	17ffffef 	b	5194 <setlocale@plt+0x1334>
    51dc:	f10002ff 	cmp	x23, #0x0
    51e0:	fa5512c4 	ccmp	x22, x21, #0x4, ne	// ne = any
    51e4:	540000c0 	b.eq	51fc <setlocale@plt+0x139c>  // b.none
    51e8:	aa1703e2 	mov	x2, x23
    51ec:	aa1503e1 	mov	x1, x21
    51f0:	aa1603e0 	mov	x0, x22
    51f4:	940007a7 	bl	7090 <setlocale@plt+0x3230>
    51f8:	35fffce0 	cbnz	w0, 5194 <setlocale@plt+0x1334>
    51fc:	f94007e0 	ldr	x0, [sp, #8]
    5200:	360018c0 	tbz	w0, #0, 5518 <setlocale@plt+0x16b8>
    5204:	b94013e1 	ldr	w1, [sp, #16]
    5208:	92800000 	mov	x0, #0xffffffffffffffff    	// #-1
    520c:	f9000360 	str	x0, [x27]
    5210:	b9000be1 	str	w1, [sp, #8]
    5214:	17ffffe0 	b	5194 <setlocale@plt+0x1334>
    5218:	3901e3e0 	strb	w0, [sp, #120]
    521c:	91000760 	add	x0, x27, #0x1
    5220:	f9002be0 	str	x0, [sp, #80]
    5224:	39400761 	ldrb	w1, [x27, #1]
    5228:	34003581 	cbz	w1, 58d8 <setlocale@plt+0x1a78>
    522c:	3901e7e1 	strb	w1, [sp, #121]
    5230:	91000801 	add	x1, x0, #0x2
    5234:	f9002be1 	str	x1, [sp, #80]
    5238:	39400400 	ldrb	w0, [x0, #1]
    523c:	7100f41f 	cmp	w0, #0x3d
    5240:	540034c1 	b.ne	58d8 <setlocale@plt+0x1a78>  // b.any
    5244:	aa1703e1 	mov	x1, x23
    5248:	d280001b 	mov	x27, #0x0                   	// #0
    524c:	14000004 	b	525c <setlocale@plt+0x13fc>
    5250:	9100077b 	add	x27, x27, #0x1
    5254:	f87b7ac1 	ldr	x1, [x22, x27, lsl #3]
    5258:	b4001701 	cbz	x1, 5538 <setlocale@plt+0x16d8>
    525c:	aa1503e0 	mov	x0, x21
    5260:	97fffa70 	bl	3c20 <strcmp@plt>
    5264:	35ffff60 	cbnz	w0, 5250 <setlocale@plt+0x13f0>
    5268:	f0000158 	adrp	x24, 30000 <_obstack_memory_used@@Base+0x231c0>
    526c:	91038300 	add	x0, x24, #0xe0
    5270:	f9402fe5 	ldr	x5, [sp, #88]
    5274:	91004000 	add	x0, x0, #0x10
    5278:	8b3bd003 	add	x3, x0, w27, sxtw #4
    527c:	910143e1 	add	x1, sp, #0x50
    5280:	910163e0 	add	x0, sp, #0x58
    5284:	52800002 	mov	w2, #0x0                   	// #0
    5288:	f9000465 	str	x5, [x3, #8]
    528c:	94000355 	bl	5fe0 <setlocale@plt+0x2180>
    5290:	3707f620 	tbnz	w0, #0, 5154 <setlocale@plt+0x12f4>
    5294:	f00000a1 	adrp	x1, 1c000 <_obstack_memory_used@@Base+0xf1c0>
    5298:	9101e021 	add	x1, x1, #0x78
    529c:	528000a2 	mov	w2, #0x5                   	// #5
    52a0:	d2800000 	mov	x0, #0x0                   	// #0
    52a4:	97fffaaf 	bl	3d60 <dcgettext@plt>
    52a8:	aa0003f6 	mov	x22, x0
    52ac:	aa1503e0 	mov	x0, x21
    52b0:	94000e18 	bl	8b10 <setlocale@plt+0x4cb0>
    52b4:	aa1603e2 	mov	x2, x22
    52b8:	aa0003e3 	mov	x3, x0
    52bc:	52800001 	mov	w1, #0x0                   	// #0
    52c0:	52800000 	mov	w0, #0x0                   	// #0
    52c4:	97fff96b 	bl	3870 <error@plt>
    52c8:	528000a2 	mov	w2, #0x5                   	// #5
    52cc:	f00000a1 	adrp	x1, 1c000 <_obstack_memory_used@@Base+0xf1c0>
    52d0:	d2800000 	mov	x0, #0x0                   	// #0
    52d4:	91024021 	add	x1, x1, #0x90
    52d8:	97fffaa2 	bl	3d60 <dcgettext@plt>
    52dc:	aa0003e2 	mov	x2, x0
    52e0:	52800001 	mov	w1, #0x0                   	// #0
    52e4:	52800000 	mov	w0, #0x0                   	// #0
    52e8:	97fff962 	bl	3870 <error@plt>
    52ec:	910ec340 	add	x0, x26, #0x3b0
    52f0:	f9404400 	ldr	x0, [x0, #136]
    52f4:	97fffa5b 	bl	3c60 <free@plt>
    52f8:	910ac320 	add	x0, x25, #0x2b0
    52fc:	f947f400 	ldr	x0, [x0, #4072]
    5300:	b4004820 	cbz	x0, 5c04 <setlocale@plt+0x1da4>
    5304:	f9401415 	ldr	x21, [x0, #40]
    5308:	97fffa56 	bl	3c60 <free@plt>
    530c:	aa1503e0 	mov	x0, x21
    5310:	17fffffc 	b	5300 <setlocale@plt+0x14a0>
    5314:	910ac322 	add	x2, x25, #0x2b0
    5318:	d2800000 	mov	x0, #0x0                   	// #0
    531c:	913b4042 	add	x2, x2, #0xed0
    5320:	528005a4 	mov	w4, #0x2d                  	// #45
    5324:	52800be5 	mov	w5, #0x5f                  	// #95
    5328:	f101681f 	cmp	x0, #0x5a
    532c:	54000768 	b.hi	5418 <setlocale@plt+0x15b8>  // b.pmore
    5330:	f101001f 	cmp	x0, #0x40
    5334:	54000668 	b.hi	5400 <setlocale@plt+0x15a0>  // b.pmore
    5338:	5100c001 	sub	w1, w0, #0x30
    533c:	7100243f 	cmp	w1, #0x9
    5340:	54000609 	b.ls	5400 <setlocale@plt+0x15a0>  // b.plast
    5344:	7101f81f 	cmp	w0, #0x7e
    5348:	7a441004 	ccmp	w0, w4, #0x4, ne	// ne = any
    534c:	540005a0 	b.eq	5400 <setlocale@plt+0x15a0>  // b.none
    5350:	7100b81f 	cmp	w0, #0x2e
    5354:	7a451004 	ccmp	w0, w5, #0x4, ne	// ne = any
    5358:	1a9f17e1 	cset	w1, eq	// eq = none
    535c:	38626803 	ldrb	w3, [x0, x2]
    5360:	2a030021 	orr	w1, w1, w3
    5364:	38226801 	strb	w1, [x0, x2]
    5368:	91000400 	add	x0, x0, #0x1
    536c:	f104001f 	cmp	x0, #0x100
    5370:	54fffdc1 	b.ne	5328 <setlocale@plt+0x14c8>  // b.any
    5374:	d2800c80 	mov	x0, #0x64                  	// #100
    5378:	9282003b 	mov	x27, #0xffffffffffffeffe    	// #-4098
    537c:	f2bff7fb 	movk	x27, #0xffbf, lsl #16
    5380:	910203f6 	add	x22, sp, #0x80
    5384:	910183f8 	add	x24, sp, #0x60
    5388:	f90033e0 	str	x0, [sp, #96]
    538c:	97fffa9d 	bl	3e00 <__errno_location@plt>
    5390:	aa0003f7 	mov	x23, x0
    5394:	d2800015 	mov	x21, #0x0                   	// #0
    5398:	f2dffdfb 	movk	x27, #0xffef, lsl #32
    539c:	d503201f 	nop
    53a0:	f94033e1 	ldr	x1, [sp, #96]
    53a4:	aa1603e0 	mov	x0, x22
    53a8:	d100043c 	sub	x28, x1, #0x1
    53ac:	aa1c03e1 	mov	x1, x28
    53b0:	383c6adf 	strb	wzr, [x22, x28]
    53b4:	b90002ff 	str	wzr, [x23]
    53b8:	97fffa5e 	bl	3d30 <gethostname@plt>
    53bc:	350000e0 	cbnz	w0, 53d8 <setlocale@plt+0x1578>
    53c0:	aa1603e0 	mov	x0, x22
    53c4:	97fff90f 	bl	3800 <strlen@plt>
    53c8:	91000403 	add	x3, x0, #0x1
    53cc:	eb03039f 	cmp	x28, x3
    53d0:	540015cc 	b.gt	5688 <setlocale@plt+0x1828>
    53d4:	b90002ff 	str	wzr, [x23]
    53d8:	aa1503e0 	mov	x0, x21
    53dc:	97fffa21 	bl	3c60 <free@plt>
    53e0:	b94002e0 	ldr	w0, [x23]
    53e4:	7100901f 	cmp	w0, #0x24
    53e8:	54000229 	b.ls	542c <setlocale@plt+0x15cc>  // b.plast
    53ec:	910ac320 	add	x0, x25, #0x2b0
    53f0:	900000a1 	adrp	x1, 19000 <_obstack_memory_used@@Base+0xc1c0>
    53f4:	912a0021 	add	x1, x1, #0xa80
    53f8:	f907ec01 	str	x1, [x0, #4056]
    53fc:	17fffdfe 	b	4bf4 <setlocale@plt+0xd94>
    5400:	38626801 	ldrb	w1, [x0, x2]
    5404:	32000021 	orr	w1, w1, #0x1
    5408:	38226801 	strb	w1, [x0, x2]
    540c:	91000400 	add	x0, x0, #0x1
    5410:	f101681f 	cmp	x0, #0x5a
    5414:	54fff8e9 	b.ls	5330 <setlocale@plt+0x14d0>  // b.plast
    5418:	51018403 	sub	w3, w0, #0x61
    541c:	52800021 	mov	w1, #0x1                   	// #1
    5420:	7100647f 	cmp	w3, #0x19
    5424:	54fff908 	b.hi	5344 <setlocale@plt+0x14e4>  // b.pmore
    5428:	17ffffcd 	b	535c <setlocale@plt+0x14fc>
    542c:	9ac02b60 	asr	x0, x27, x0
    5430:	3707fde0 	tbnz	w0, #0, 53ec <setlocale@plt+0x158c>
    5434:	d2800024 	mov	x4, #0x1                   	// #1
    5438:	aa1803e1 	mov	x1, x24
    543c:	aa0403e2 	mov	x2, x4
    5440:	92800003 	mov	x3, #0xffffffffffffffff    	// #-1
    5444:	d2800000 	mov	x0, #0x0                   	// #0
    5448:	9400288e 	bl	f680 <_obstack_memory_used@@Base+0x2840>
    544c:	aa0003f5 	mov	x21, x0
    5450:	aa0003f6 	mov	x22, x0
    5454:	17ffffd3 	b	53a0 <setlocale@plt+0x1540>
    5458:	d00000a0 	adrp	x0, 1b000 <_obstack_memory_used@@Base+0xe1c0>
    545c:	9138a000 	add	x0, x0, #0xe28
    5460:	97fffa70 	bl	3e20 <getenv@plt>
    5464:	aa0003f5 	mov	x21, x0
    5468:	94002e8e 	bl	10ea0 <_obstack_memory_used@@Base+0x4060>
    546c:	b4003075 	cbz	x21, 5a78 <setlocale@plt+0x1c18>
    5470:	910ac321 	add	x1, x25, #0x2b0
    5474:	f0000140 	adrp	x0, 30000 <_obstack_memory_used@@Base+0x231c0>
    5478:	91004000 	add	x0, x0, #0x10
    547c:	910ec342 	add	x2, x26, #0x3b0
    5480:	f946b023 	ldr	x3, [x1, #3424]
    5484:	f9006003 	str	x3, [x0, #192]
    5488:	b94d6820 	ldr	w0, [x1, #3432]
    548c:	b8120040 	stur	w0, [x2, #-224]
    5490:	b9402fe0 	ldr	w0, [sp, #44]
    5494:	34ffa3a0 	cbz	w0, 4908 <setlocale@plt+0xaa8>
    5498:	910ac320 	add	x0, x25, #0x2b0
    549c:	d2808001 	mov	x1, #0x400                 	// #1024
    54a0:	f906b001 	str	x1, [x0, #3424]
    54a4:	b90d681f 	str	wzr, [x0, #3432]
    54a8:	17fffd18 	b	4908 <setlocale@plt+0xaa8>
    54ac:	d0000144 	adrp	x4, 2f000 <_obstack_memory_used@@Base+0x221c0>
    54b0:	f947f084 	ldr	x4, [x4, #4064]
    54b4:	d10302a0 	sub	x0, x21, #0xc0
    54b8:	d0000143 	adrp	x3, 2f000 <_obstack_memory_used@@Base+0x221c0>
    54bc:	f947d863 	ldr	x3, [x3, #4016]
    54c0:	d2800002 	mov	x2, #0x0                   	// #0
    54c4:	d2800001 	mov	x1, #0x0                   	// #0
    54c8:	94001d96 	bl	cb20 <_obstack_begin@@Base>
    54cc:	d0000144 	adrp	x4, 2f000 <_obstack_memory_used@@Base+0x221c0>
    54d0:	f947f084 	ldr	x4, [x4, #4064]
    54d4:	910022a0 	add	x0, x21, #0x8
    54d8:	d0000143 	adrp	x3, 2f000 <_obstack_memory_used@@Base+0x221c0>
    54dc:	f947d863 	ldr	x3, [x3, #4016]
    54e0:	d2800002 	mov	x2, #0x0                   	// #0
    54e4:	d2800001 	mov	x1, #0x0                   	// #0
    54e8:	94001d8e 	bl	cb20 <_obstack_begin@@Base>
    54ec:	17fffdbf 	b	4be8 <setlocale@plt+0xd88>
    54f0:	f0000083 	adrp	x3, 18000 <_obstack_memory_used@@Base+0xb1c0>
    54f4:	910a0063 	add	x3, x3, #0x280
    54f8:	d00000a1 	adrp	x1, 1b000 <_obstack_memory_used@@Base+0xe1c0>
    54fc:	f00000a0 	adrp	x0, 1c000 <_obstack_memory_used@@Base+0xf1c0>
    5500:	9107c063 	add	x3, x3, #0x1f0
    5504:	912aa021 	add	x1, x1, #0xaa8
    5508:	91056000 	add	x0, x0, #0x158
    550c:	5280e182 	mov	w2, #0x70c                 	// #1804
    5510:	97fffa38 	bl	3df0 <__assert_fail@plt>
    5514:	94001fd0 	bl	d454 <_obstack_memory_used@@Base+0x614>
    5518:	f9400b60 	ldr	x0, [x27, #16]
    551c:	f9400b82 	ldr	x2, [x28, #16]
    5520:	eb00005f 	cmp	x2, x0
    5524:	54002680 	b.eq	59f4 <setlocale@plt+0x1b94>  // b.none
    5528:	52800020 	mov	w0, #0x1                   	// #1
    552c:	39008380 	strb	w0, [x28, #32]
    5530:	39008360 	strb	w0, [x27, #32]
    5534:	17ffff18 	b	5194 <setlocale@plt+0x1334>
    5538:	f0000158 	adrp	x24, 30000 <_obstack_memory_used@@Base+0x231c0>
    553c:	17ffff56 	b	5294 <setlocale@plt+0x1434>
    5540:	d00000a0 	adrp	x0, 1b000 <_obstack_memory_used@@Base+0xe1c0>
    5544:	913d8000 	add	x0, x0, #0xf60
    5548:	97fffa36 	bl	3e20 <getenv@plt>
    554c:	f90003e0 	str	x0, [sp]
    5550:	b5ffaaa0 	cbnz	x0, 4aa4 <setlocale@plt+0xc44>
    5554:	d00000a0 	adrp	x0, 1b000 <_obstack_memory_used@@Base+0xe1c0>
    5558:	91324000 	add	x0, x0, #0xc90
    555c:	f90003e0 	str	x0, [sp]
    5560:	f94003e0 	ldr	x0, [sp]
    5564:	39400000 	ldrb	w0, [x0]
    5568:	7100ac1f 	cmp	w0, #0x2b
    556c:	540024e0 	b.eq	5a08 <setlocale@plt+0x1ba8>  // b.none
    5570:	b0000140 	adrp	x0, 2e000 <_obstack_memory_used@@Base+0x211c0>
    5574:	913d0015 	add	x21, x0, #0xf40
    5578:	f94003e0 	ldr	x0, [sp]
    557c:	910902b5 	add	x21, x21, #0x240
    5580:	f0000082 	adrp	x2, 18000 <_obstack_memory_used@@Base+0xb1c0>
    5584:	910a0042 	add	x2, x2, #0x280
    5588:	aa1503e1 	mov	x1, x21
    558c:	91074042 	add	x2, x2, #0x1d0
    5590:	94002ccd 	bl	108c4 <_obstack_memory_used@@Base+0x3a84>
    5594:	b7f82e60 	tbnz	x0, #63, 5b60 <setlocale@plt+0x1d00>
    5598:	f100081f 	cmp	x0, #0x2
    559c:	54002a40 	b.eq	5ae4 <setlocale@plt+0x1c84>  // b.none
    55a0:	54001f8c 	b.gt	5990 <setlocale@plt+0x1b30>
    55a4:	b4002b20 	cbz	x0, 5b08 <setlocale@plt+0x1ca8>
    55a8:	f0000158 	adrp	x24, 30000 <_obstack_memory_used@@Base+0x231c0>
    55ac:	91038301 	add	x1, x24, #0xe0
    55b0:	f00000a0 	adrp	x0, 1c000 <_obstack_memory_used@@Base+0xf1c0>
    55b4:	91006000 	add	x0, x0, #0x18
    55b8:	a9000020 	stp	x0, x0, [x1]
    55bc:	940007ed 	bl	7570 <setlocale@plt+0x3710>
    55c0:	17fffd48 	b	4ae0 <setlocale@plt+0xc80>
    55c4:	910ec354 	add	x20, x26, #0x3b0
    55c8:	f00000a0 	adrp	x0, 1c000 <_obstack_memory_used@@Base+0xf1c0>
    55cc:	d1030281 	sub	x1, x20, #0xc0
    55d0:	91058000 	add	x0, x0, #0x160
    55d4:	940007a7 	bl	7470 <setlocale@plt+0x3610>
    55d8:	91002281 	add	x1, x20, #0x8
    55dc:	f00000a0 	adrp	x0, 1c000 <_obstack_memory_used@@Base+0xf1c0>
    55e0:	9105c000 	add	x0, x0, #0x170
    55e4:	940007a3 	bl	7470 <setlocale@plt+0x3610>
    55e8:	f9463a60 	ldr	x0, [x19, #3184]
    55ec:	b4002420 	cbz	x0, 5a70 <setlocale@plt+0x1c10>
    55f0:	b9400003 	ldr	w3, [x0]
    55f4:	b0000141 	adrp	x1, 2e000 <_obstack_memory_used@@Base+0x211c0>
    55f8:	913d0022 	add	x2, x1, #0xf40
    55fc:	52800040 	mov	w0, #0x2                   	// #2
    5600:	91258042 	add	x2, x2, #0x960
    5604:	f00000a1 	adrp	x1, 1c000 <_obstack_memory_used@@Base+0xf1c0>
    5608:	91060021 	add	x1, x1, #0x180
    560c:	f8637842 	ldr	x2, [x2, x3, lsl #3]
    5610:	97fff91c 	bl	3a80 <__printf_chk@plt>
    5614:	17fffe6d 	b	4fc8 <setlocale@plt+0x1168>
    5618:	94001fb6 	bl	d4f0 <_obstack_memory_used@@Base+0x6b0>
    561c:	910ec340 	add	x0, x26, #0x3b0
    5620:	3941e000 	ldrb	w0, [x0, #120]
    5624:	360021e0 	tbz	w0, #0, 5a60 <setlocale@plt+0x1c00>
    5628:	910ac333 	add	x19, x25, #0x2b0
    562c:	f9461a60 	ldr	x0, [x19, #3120]
    5630:	b4ffb1e0 	cbz	x0, 4c6c <setlocale@plt+0xe0c>
    5634:	940026fb 	bl	f220 <_obstack_memory_used@@Base+0x23e0>
    5638:	910ec340 	add	x0, x26, #0x3b0
    563c:	f8598000 	ldur	x0, [x0, #-104]
    5640:	b4ffb920 	cbz	x0, 4d64 <setlocale@plt+0xf04>
    5644:	d0000140 	adrp	x0, 2f000 <_obstack_memory_used@@Base+0x221c0>
    5648:	f947e000 	ldr	x0, [x0, #4032]
    564c:	f9400a61 	ldr	x1, [x19, #16]
    5650:	f9400000 	ldr	x0, [x0]
    5654:	91000421 	add	x1, x1, #0x1
    5658:	f9000a61 	str	x1, [x19, #16]
    565c:	f9401401 	ldr	x1, [x0, #40]
    5660:	f9401802 	ldr	x2, [x0, #48]
    5664:	eb02003f 	cmp	x1, x2
    5668:	54001c02 	b.cs	59e8 <setlocale@plt+0x1b88>  // b.hs, b.nlast
    566c:	91000422 	add	x2, x1, #0x1
    5670:	f9001402 	str	x2, [x0, #40]
    5674:	52800140 	mov	w0, #0xa                   	// #10
    5678:	39000020 	strb	w0, [x1]
    567c:	17fffe17 	b	4ed8 <setlocale@plt+0x1078>
    5680:	52800000 	mov	w0, #0x0                   	// #0
    5684:	17fffd03 	b	4a90 <setlocale@plt+0xc30>
    5688:	b4002155 	cbz	x21, 5ab0 <setlocale@plt+0x1c50>
    568c:	910ac320 	add	x0, x25, #0x2b0
    5690:	f907ec15 	str	x21, [x0, #4056]
    5694:	17fffd58 	b	4bf4 <setlocale@plt+0xd94>
    5698:	94000dba 	bl	8d80 <setlocale@plt+0x4f20>
    569c:	36000100 	tbz	w0, #0, 56bc <setlocale@plt+0x185c>
    56a0:	910183e2 	add	x2, sp, #0x60
    56a4:	d28a8261 	mov	x1, #0x5413                	// #21523
    56a8:	52800020 	mov	w0, #0x1                   	// #1
    56ac:	97fff9e9 	bl	3e50 <ioctl@plt>
    56b0:	37f80060 	tbnz	w0, #31, 56bc <setlocale@plt+0x185c>
    56b4:	7940c7fc 	ldrh	w28, [sp, #98]
    56b8:	35ff93fc 	cbnz	w28, 4934 <setlocale@plt+0xad4>
    56bc:	d00000a0 	adrp	x0, 1b000 <_obstack_memory_used@@Base+0xe1c0>
    56c0:	91392000 	add	x0, x0, #0xe48
    56c4:	97fff9d7 	bl	3e20 <getenv@plt>
    56c8:	aa0003f5 	mov	x21, x0
    56cc:	b4ffc0e0 	cbz	x0, 4ee8 <setlocale@plt+0x1088>
    56d0:	39400001 	ldrb	w1, [x0]
    56d4:	34ffc0a1 	cbz	w1, 4ee8 <setlocale@plt+0x1088>
    56d8:	94000a27 	bl	7f74 <setlocale@plt+0x4114>
    56dc:	aa0003fc 	mov	x28, x0
    56e0:	b6ff92a0 	tbz	x0, #63, 4934 <setlocale@plt+0xad4>
    56e4:	d00000a1 	adrp	x1, 1b000 <_obstack_memory_used@@Base+0xe1c0>
    56e8:	91394021 	add	x1, x1, #0xe50
    56ec:	528000a2 	mov	w2, #0x5                   	// #5
    56f0:	d2800000 	mov	x0, #0x0                   	// #0
    56f4:	97fff99b 	bl	3d60 <dcgettext@plt>
    56f8:	aa0003f6 	mov	x22, x0
    56fc:	aa1503e0 	mov	x0, x21
    5700:	94000d04 	bl	8b10 <setlocale@plt+0x4cb0>
    5704:	aa1603e2 	mov	x2, x22
    5708:	aa0003e3 	mov	x3, x0
    570c:	52800001 	mov	w1, #0x0                   	// #0
    5710:	52800000 	mov	w0, #0x0                   	// #0
    5714:	d2800a1c 	mov	x28, #0x50                  	// #80
    5718:	97fff856 	bl	3870 <error@plt>
    571c:	17fffc86 	b	4934 <setlocale@plt+0xad4>
    5720:	f00000a0 	adrp	x0, 1c000 <_obstack_memory_used@@Base+0xf1c0>
    5724:	91016000 	add	x0, x0, #0x58
    5728:	97fff9be 	bl	3e20 <getenv@plt>
    572c:	b4000060 	cbz	x0, 5738 <setlocale@plt+0x18d8>
    5730:	39400000 	ldrb	w0, [x0]
    5734:	35000400 	cbnz	w0, 57b4 <setlocale@plt+0x1954>
    5738:	f00000a0 	adrp	x0, 1c000 <_obstack_memory_used@@Base+0xf1c0>
    573c:	9101a000 	add	x0, x0, #0x68
    5740:	97fff9b8 	bl	3e20 <getenv@plt>
    5744:	aa0003f8 	mov	x24, x0
    5748:	b4001ae0 	cbz	x0, 5aa4 <setlocale@plt+0x1c44>
    574c:	39400000 	ldrb	w0, [x0]
    5750:	34001aa0 	cbz	w0, 5aa4 <setlocale@plt+0x1c44>
    5754:	f000009b 	adrp	x27, 18000 <_obstack_memory_used@@Base+0xb1c0>
    5758:	9112037b 	add	x27, x27, #0x480
    575c:	f00000b5 	adrp	x21, 1c000 <_obstack_memory_used@@Base+0xf1c0>
    5760:	aa1b03f7 	mov	x23, x27
    5764:	9101c2b5 	add	x21, x21, #0x70
    5768:	d282ad16 	mov	x22, #0x1568                	// #5480
    576c:	14000005 	b	5780 <setlocale@plt+0x1920>
    5770:	aa1b03e0 	mov	x0, x27
    5774:	97fff823 	bl	3800 <strlen@plt>
    5778:	91000400 	add	x0, x0, #0x1
    577c:	8b00037b 	add	x27, x27, x0
    5780:	cb170360 	sub	x0, x27, x23
    5784:	eb16001f 	cmp	x0, x22
    5788:	540018e8 	b.hi	5aa4 <setlocale@plt+0x1c44>  // b.pmore
    578c:	aa1503e1 	mov	x1, x21
    5790:	aa1b03e0 	mov	x0, x27
    5794:	d28000a2 	mov	x2, #0x5                   	// #5
    5798:	97fff8b2 	bl	3a60 <strncmp@plt>
    579c:	35fffea0 	cbnz	w0, 5770 <setlocale@plt+0x1910>
    57a0:	aa1803e1 	mov	x1, x24
    57a4:	91001760 	add	x0, x27, #0x5
    57a8:	52800002 	mov	w2, #0x0                   	// #0
    57ac:	97fff945 	bl	3cc0 <fnmatch@plt>
    57b0:	35fffe00 	cbnz	w0, 5770 <setlocale@plt+0x1910>
    57b4:	910ac323 	add	x3, x25, #0x2b0
    57b8:	397f8461 	ldrb	w1, [x3, #4065]
    57bc:	397b2060 	ldrb	w0, [x3, #3784]
    57c0:	36079a01 	tbz	w1, #0, 4b00 <setlocale@plt+0xca0>
    57c4:	f900047f 	str	xzr, [x3, #8]
    57c8:	37079a20 	tbnz	w0, #0, 4b0c <setlocale@plt+0xcac>
    57cc:	528001a0 	mov	w0, #0xd                   	// #13
    57d0:	94001534 	bl	aca0 <setlocale@plt+0x6e40>
    57d4:	370799c0 	tbnz	w0, #0, 4b0c <setlocale@plt+0xcac>
    57d8:	528001c0 	mov	w0, #0xe                   	// #14
    57dc:	94001531 	bl	aca0 <setlocale@plt+0x6e40>
    57e0:	37000d20 	tbnz	w0, #0, 5984 <setlocale@plt+0x1b24>
    57e4:	52800180 	mov	w0, #0xc                   	// #12
    57e8:	9400152e 	bl	aca0 <setlocale@plt+0x6e40>
    57ec:	36079960 	tbz	w0, #0, 4b18 <setlocale@plt+0xcb8>
    57f0:	910ac320 	add	x0, x25, #0x2b0
    57f4:	b94c7c00 	ldr	w0, [x0, #3196]
    57f8:	34ff98a0 	cbz	w0, 4b0c <setlocale@plt+0xcac>
    57fc:	17fffcc7 	b	4b18 <setlocale@plt+0xcb8>
    5800:	910ac320 	add	x0, x25, #0x2b0
    5804:	b9400413 	ldr	w19, [x0, #4]
    5808:	34ffbd73 	cbz	w19, 4fb4 <setlocale@plt+0x1154>
    580c:	52800260 	mov	w0, #0x13                  	// #19
    5810:	51000673 	sub	w19, w19, #0x1
    5814:	97fff80f 	bl	3850 <raise@plt>
    5818:	17fffffc 	b	5808 <setlocale@plt+0x19a8>
    581c:	910ac336 	add	x22, x25, #0x2b0
    5820:	393f42df 	strb	wzr, [x22, #4048]
    5824:	94002c10 	bl	10864 <_obstack_memory_used@@Base+0x3a24>
    5828:	f9063ac0 	str	x0, [x22, #3184]
    582c:	17fffc69 	b	49d0 <setlocale@plt+0xb70>
    5830:	d00000a0 	adrp	x0, 1b000 <_obstack_memory_used@@Base+0xe1c0>
    5834:	52800022 	mov	w2, #0x1                   	// #1
    5838:	91292000 	add	x0, x0, #0xa48
    583c:	d2800001 	mov	x1, #0x0                   	// #0
    5840:	940027e4 	bl	f7d0 <_obstack_memory_used@@Base+0x2990>
    5844:	17fffd9d 	b	4eb8 <setlocale@plt+0x1058>
    5848:	52800961 	mov	w1, #0x4b                  	// #75
    584c:	b9000001 	str	w1, [x0]
    5850:	17fffba2 	b	46d8 <setlocale@plt+0x878>
    5854:	d2800600 	mov	x0, #0x30                  	// #48
    5858:	97fff866 	bl	39f0 <malloc@plt>
    585c:	aa0003ec 	mov	x12, x0
    5860:	b4ffe5a0 	cbz	x0, 5514 <setlocale@plt+0x16b4>
    5864:	910ac324 	add	x4, x25, #0x2b0
    5868:	910163ed 	add	x13, sp, #0x58
    586c:	f9402fe6 	ldr	x6, [sp, #88]
    5870:	9100077b 	add	x27, x27, #0x1
    5874:	f947f485 	ldr	x5, [x4, #4072]
    5878:	aa0d03e0 	mov	x0, x13
    587c:	aa0c03e3 	mov	x3, x12
    5880:	910143e1 	add	x1, sp, #0x50
    5884:	52800022 	mov	w2, #0x1                   	// #1
    5888:	f9000586 	str	x6, [x12, #8]
    588c:	3900819f 	strb	wzr, [x12, #32]
    5890:	f9001585 	str	x5, [x12, #40]
    5894:	f9002bfb 	str	x27, [sp, #80]
    5898:	f907f48c 	str	x12, [x4, #4072]
    589c:	940001d1 	bl	5fe0 <setlocale@plt+0x2180>
    58a0:	360001c0 	tbz	w0, #0, 58d8 <setlocale@plt+0x1a78>
    58a4:	f9402be0 	ldr	x0, [sp, #80]
    58a8:	91000402 	add	x2, x0, #0x1
    58ac:	f9002be2 	str	x2, [sp, #80]
    58b0:	39400000 	ldrb	w0, [x0]
    58b4:	7100f41f 	cmp	w0, #0x3d
    58b8:	54000101 	b.ne	58d8 <setlocale@plt+0x1a78>  // b.any
    58bc:	f9402fe4 	ldr	x4, [sp, #88]
    58c0:	aa0d03e0 	mov	x0, x13
    58c4:	91004183 	add	x3, x12, #0x10
    58c8:	52800002 	mov	w2, #0x0                   	// #0
    58cc:	f9000d84 	str	x4, [x12, #24]
    58d0:	940001c4 	bl	5fe0 <setlocale@plt+0x2180>
    58d4:	3707c400 	tbnz	w0, #0, 5154 <setlocale@plt+0x12f4>
    58d8:	f0000158 	adrp	x24, 30000 <_obstack_memory_used@@Base+0x231c0>
    58dc:	17fffe7b 	b	52c8 <setlocale@plt+0x1468>
    58e0:	9100077b 	add	x27, x27, #0x1
    58e4:	f9002bfb 	str	x27, [sp, #80]
    58e8:	17fffe1b 	b	5154 <setlocale@plt+0x12f4>
    58ec:	f0000158 	adrp	x24, 30000 <_obstack_memory_used@@Base+0x231c0>
    58f0:	91038300 	add	x0, x24, #0xe0
    58f4:	91004000 	add	x0, x0, #0x10
    58f8:	f9403802 	ldr	x2, [x0, #112]
    58fc:	f100185f 	cmp	x2, #0x6
    5900:	54fff5a1 	b.ne	57b4 <setlocale@plt+0x1954>  // b.any
    5904:	f9403c00 	ldr	x0, [x0, #120]
    5908:	f00000a1 	adrp	x1, 1c000 <_obstack_memory_used@@Base+0xf1c0>
    590c:	91032021 	add	x1, x1, #0xc8
    5910:	97fff854 	bl	3a60 <strncmp@plt>
    5914:	35fff500 	cbnz	w0, 57b4 <setlocale@plt+0x1954>
    5918:	910ac320 	add	x0, x25, #0x2b0
    591c:	52800021 	mov	w1, #0x1                   	// #1
    5920:	393f8801 	strb	w1, [x0, #4066]
    5924:	17ffffa4 	b	57b4 <setlocale@plt+0x1954>
    5928:	d503249f 	bti	j
    592c:	52800000 	mov	w0, #0x0                   	// #0
    5930:	940009b4 	bl	8000 <setlocale@plt+0x41a0>
    5934:	39404001 	ldrb	w1, [x0, #16]
    5938:	bd400400 	ldr	s0, [x0, #4]
    593c:	1e200884 	fmul	s4, s4, s0
    5940:	37000061 	tbnz	w1, #0, 594c <setlocale@plt+0x1aec>
    5944:	bd400800 	ldr	s0, [x0, #8]
    5948:	1e200884 	fmul	s4, s4, s0
    594c:	9e390081 	fcvtzu	x1, s4
    5950:	aa1503e0 	mov	x0, x21
    5954:	94001363 	bl	a6e0 <setlocale@plt+0x6880>
    5958:	37079f20 	tbnz	w0, #0, 4d3c <setlocale@plt+0xedc>
    595c:	f94026a0 	ldr	x0, [x21, #72]
    5960:	b4000be0 	cbz	x0, 5adc <setlocale@plt+0x1c7c>
    5964:	f940041c 	ldr	x28, [x0, #8]
    5968:	97fff8be 	bl	3c60 <free@plt>
    596c:	aa1c03e0 	mov	x0, x28
    5970:	17fffffc 	b	5960 <setlocale@plt+0x1b00>
    5974:	397b2040 	ldrb	w0, [x2, #3784]
    5978:	17fffc96 	b	4bd0 <setlocale@plt+0xd70>
    597c:	97fff7b5 	bl	3850 <raise@plt>
    5980:	17fffd8f 	b	4fbc <setlocale@plt+0x115c>
    5984:	397f8860 	ldrb	w0, [x3, #4066]
    5988:	37078c20 	tbnz	w0, #0, 4b0c <setlocale@plt+0xcac>
    598c:	17ffff96 	b	57e4 <setlocale@plt+0x1984>
    5990:	f1000c1f 	cmp	x0, #0x3
    5994:	54ffe141 	b.ne	55bc <setlocale@plt+0x175c>  // b.any
    5998:	52800040 	mov	w0, #0x2                   	// #2
    599c:	94001825 	bl	ba30 <setlocale@plt+0x7bd0>
    59a0:	3607e0e0 	tbz	w0, #0, 55bc <setlocale@plt+0x175c>
    59a4:	f0000158 	adrp	x24, 30000 <_obstack_memory_used@@Base+0x231c0>
    59a8:	91038315 	add	x21, x24, #0xe0
    59ac:	52800042 	mov	w2, #0x2                   	// #2
    59b0:	d2800000 	mov	x0, #0x0                   	// #0
    59b4:	f9407301 	ldr	x1, [x24, #224]
    59b8:	97fff8ea 	bl	3d60 <dcgettext@plt>
    59bc:	f9007300 	str	x0, [x24, #224]
    59c0:	f94006a1 	ldr	x1, [x21, #8]
    59c4:	52800042 	mov	w2, #0x2                   	// #2
    59c8:	d2800000 	mov	x0, #0x0                   	// #0
    59cc:	97fff8e5 	bl	3d60 <dcgettext@plt>
    59d0:	f90006a0 	str	x0, [x21, #8]
    59d4:	940006e7 	bl	7570 <setlocale@plt+0x3710>
    59d8:	17fffc42 	b	4ae0 <setlocale@plt+0xc80>
    59dc:	910ec340 	add	x0, x26, #0x3b0
    59e0:	3900041f 	strb	wzr, [x0, #1]
    59e4:	17fffd3d 	b	4ed8 <setlocale@plt+0x1078>
    59e8:	52800141 	mov	w1, #0xa                   	// #10
    59ec:	97fff871 	bl	3bb0 <__overflow@plt>
    59f0:	17fffca3 	b	4c7c <setlocale@plt+0xe1c>
    59f4:	f9400f61 	ldr	x1, [x27, #24]
    59f8:	f9400f80 	ldr	x0, [x28, #24]
    59fc:	97fff875 	bl	3bd0 <memcmp@plt>
    5a00:	35ffd940 	cbnz	w0, 5528 <setlocale@plt+0x16c8>
    5a04:	17fffe00 	b	5204 <setlocale@plt+0x13a4>
    5a08:	f94003e0 	ldr	x0, [sp]
    5a0c:	52800141 	mov	w1, #0xa                   	// #10
    5a10:	91000416 	add	x22, x0, #0x1
    5a14:	aa1603e0 	mov	x0, x22
    5a18:	97fff89e 	bl	3c90 <strchr@plt>
    5a1c:	aa0003f5 	mov	x21, x0
    5a20:	b4000820 	cbz	x0, 5b24 <setlocale@plt+0x1cc4>
    5a24:	91000417 	add	x23, x0, #0x1
    5a28:	52800141 	mov	w1, #0xa                   	// #10
    5a2c:	aa1703e0 	mov	x0, x23
    5a30:	97fff898 	bl	3c90 <strchr@plt>
    5a34:	b50007c0 	cbnz	x0, 5b2c <setlocale@plt+0x1ccc>
    5a38:	390002bf 	strb	wzr, [x21]
    5a3c:	f0000158 	adrp	x24, 30000 <_obstack_memory_used@@Base+0x231c0>
    5a40:	91038300 	add	x0, x24, #0xe0
    5a44:	a9005c16 	stp	x22, x23, [x0]
    5a48:	940006ca 	bl	7570 <setlocale@plt+0x3710>
    5a4c:	17fffc25 	b	4ae0 <setlocale@plt+0xc80>
    5a50:	94000ccc 	bl	8d80 <setlocale@plt+0x4f20>
    5a54:	12001c00 	and	w0, w0, #0xff
    5a58:	11000400 	add	w0, w0, #0x1
    5a5c:	17fffbae 	b	4914 <setlocale@plt+0xab4>
    5a60:	52800021 	mov	w1, #0x1                   	// #1
    5a64:	d2800000 	mov	x0, #0x0                   	// #0
    5a68:	9400277e 	bl	f860 <_obstack_memory_used@@Base+0x2a20>
    5a6c:	17fffeef 	b	5628 <setlocale@plt+0x17c8>
    5a70:	91326260 	add	x0, x19, #0xc98
    5a74:	17fffedf 	b	55f0 <setlocale@plt+0x1790>
    5a78:	d00000a0 	adrp	x0, 1b000 <_obstack_memory_used@@Base+0xe1c0>
    5a7c:	9138e000 	add	x0, x0, #0xe38
    5a80:	97fff8e8 	bl	3e20 <getenv@plt>
    5a84:	b5ffcf60 	cbnz	x0, 5470 <setlocale@plt+0x1610>
    5a88:	17fffe82 	b	5490 <setlocale@plt+0x1630>
    5a8c:	94000cbd 	bl	8d80 <setlocale@plt+0x4f20>
    5a90:	12001c00 	and	w0, w0, #0xff
    5a94:	17fffa52 	b	43dc <setlocale@plt+0x57c>
    5a98:	94000cba 	bl	8d80 <setlocale@plt+0x4f20>
    5a9c:	12001c00 	and	w0, w0, #0xff
    5aa0:	17fff9fb 	b	428c <setlocale@plt+0x42c>
    5aa4:	910ac320 	add	x0, x25, #0x2b0
    5aa8:	393f841f 	strb	wzr, [x0, #4065]
    5aac:	17ffff42 	b	57b4 <setlocale@plt+0x1954>
    5ab0:	aa0303e0 	mov	x0, x3
    5ab4:	f90007e3 	str	x3, [sp, #8]
    5ab8:	97fff7ce 	bl	39f0 <malloc@plt>
    5abc:	b4ffd2c0 	cbz	x0, 5514 <setlocale@plt+0x16b4>
    5ac0:	f94007e3 	ldr	x3, [sp, #8]
    5ac4:	aa1603e1 	mov	x1, x22
    5ac8:	aa0303e2 	mov	x2, x3
    5acc:	97fff7b5 	bl	39a0 <__memcpy_chk@plt>
    5ad0:	910ac321 	add	x1, x25, #0x2b0
    5ad4:	f907ec20 	str	x0, [x1, #4056]
    5ad8:	17fffc47 	b	4bf4 <setlocale@plt+0xd94>
    5adc:	f90026bf 	str	xzr, [x21, #72]
    5ae0:	17fffc97 	b	4d3c <setlocale@plt+0xedc>
    5ae4:	f0000158 	adrp	x24, 30000 <_obstack_memory_used@@Base+0x231c0>
    5ae8:	f00000a1 	adrp	x1, 1c000 <_obstack_memory_used@@Base+0xf1c0>
    5aec:	91038302 	add	x2, x24, #0xe0
    5af0:	9100a021 	add	x1, x1, #0x28
    5af4:	f00000a0 	adrp	x0, 1c000 <_obstack_memory_used@@Base+0xf1c0>
    5af8:	9100e000 	add	x0, x0, #0x38
    5afc:	a9000041 	stp	x1, x0, [x2]
    5b00:	9400069c 	bl	7570 <setlocale@plt+0x3710>
    5b04:	17fffbf7 	b	4ae0 <setlocale@plt+0xc80>
    5b08:	f0000158 	adrp	x24, 30000 <_obstack_memory_used@@Base+0x231c0>
    5b0c:	f00000a0 	adrp	x0, 1c000 <_obstack_memory_used@@Base+0xf1c0>
    5b10:	91038301 	add	x1, x24, #0xe0
    5b14:	91000000 	add	x0, x0, #0x0
    5b18:	a9000020 	stp	x0, x0, [x1]
    5b1c:	94000695 	bl	7570 <setlocale@plt+0x3710>
    5b20:	17fffbf0 	b	4ae0 <setlocale@plt+0xc80>
    5b24:	aa1603f7 	mov	x23, x22
    5b28:	17ffffc5 	b	5a3c <setlocale@plt+0x1bdc>
    5b2c:	d00000a1 	adrp	x1, 1b000 <_obstack_memory_used@@Base+0xe1c0>
    5b30:	913dc021 	add	x1, x1, #0xf70
    5b34:	528000a2 	mov	w2, #0x5                   	// #5
    5b38:	d2800000 	mov	x0, #0x0                   	// #0
    5b3c:	97fff889 	bl	3d60 <dcgettext@plt>
    5b40:	aa0003f3 	mov	x19, x0
    5b44:	aa1603e0 	mov	x0, x22
    5b48:	94000bf2 	bl	8b10 <setlocale@plt+0x4cb0>
    5b4c:	aa1303e2 	mov	x2, x19
    5b50:	aa0003e3 	mov	x3, x0
    5b54:	52800001 	mov	w1, #0x0                   	// #0
    5b58:	52800040 	mov	w0, #0x2                   	// #2
    5b5c:	97fff745 	bl	3870 <error@plt>
    5b60:	f94003e1 	ldr	x1, [sp]
    5b64:	aa0003e2 	mov	x2, x0
    5b68:	d0000153 	adrp	x19, 2f000 <_obstack_memory_used@@Base+0x221c0>
    5b6c:	f947d273 	ldr	x19, [x19, #4000]
    5b70:	d00000a0 	adrp	x0, 1b000 <_obstack_memory_used@@Base+0xe1c0>
    5b74:	913e4000 	add	x0, x0, #0xf90
    5b78:	940015e6 	bl	b310 <setlocale@plt+0x74b0>
    5b7c:	528000a2 	mov	w2, #0x5                   	// #5
    5b80:	d00000a1 	adrp	x1, 1b000 <_obstack_memory_used@@Base+0xe1c0>
    5b84:	d2800000 	mov	x0, #0x0                   	// #0
    5b88:	913e8021 	add	x1, x1, #0xfa0
    5b8c:	97fff875 	bl	3d60 <dcgettext@plt>
    5b90:	d00000b4 	adrp	x20, 1b000 <_obstack_memory_used@@Base+0xe1c0>
    5b94:	f9400261 	ldr	x1, [x19]
    5b98:	913ee294 	add	x20, x20, #0xfb8
    5b9c:	97fff875 	bl	3d70 <fputs_unlocked@plt>
    5ba0:	14000006 	b	5bb8 <setlocale@plt+0x1d58>
    5ba4:	f9400260 	ldr	x0, [x19]
    5ba8:	910022b5 	add	x21, x21, #0x8
    5bac:	aa1403e2 	mov	x2, x20
    5bb0:	52800041 	mov	w1, #0x2                   	// #2
    5bb4:	97fff813 	bl	3c00 <__fprintf_chk@plt>
    5bb8:	f94002a3 	ldr	x3, [x21]
    5bbc:	b5ffff43 	cbnz	x3, 5ba4 <setlocale@plt+0x1d44>
    5bc0:	528000a2 	mov	w2, #0x5                   	// #5
    5bc4:	d00000a1 	adrp	x1, 1b000 <_obstack_memory_used@@Base+0xe1c0>
    5bc8:	d2800000 	mov	x0, #0x0                   	// #0
    5bcc:	913f2021 	add	x1, x1, #0xfc8
    5bd0:	97fff864 	bl	3d60 <dcgettext@plt>
    5bd4:	f9400261 	ldr	x1, [x19]
    5bd8:	97fff866 	bl	3d70 <fputs_unlocked@plt>
    5bdc:	17fff90b 	b	4008 <setlocale@plt+0x1a8>
    5be0:	528000a2 	mov	w2, #0x5                   	// #5
    5be4:	d00000a1 	adrp	x1, 1b000 <_obstack_memory_used@@Base+0xe1c0>
    5be8:	d2800000 	mov	x0, #0x0                   	// #0
    5bec:	913ce021 	add	x1, x1, #0xf38
    5bf0:	97fff85c 	bl	3d60 <dcgettext@plt>
    5bf4:	aa0003e2 	mov	x2, x0
    5bf8:	52800001 	mov	w1, #0x0                   	// #0
    5bfc:	52800040 	mov	w0, #0x2                   	// #2
    5c00:	97fff71c 	bl	3870 <error@plt>
    5c04:	910ac320 	add	x0, x25, #0x2b0
    5c08:	393f841f 	strb	wzr, [x0, #4065]
    5c0c:	17ffff39 	b	58f0 <setlocale@plt+0x1a90>
    5c10:	f0000142 	adrp	x2, 30000 <_obstack_memory_used@@Base+0x231c0>
    5c14:	91004043 	add	x3, x2, #0x10
    5c18:	f9400035 	ldr	x21, [x1]
    5c1c:	b9407074 	ldr	w20, [x3, #112]
    5c20:	b9404fe2 	ldr	w2, [sp, #76]
    5c24:	71000c1f 	cmp	w0, #0x3
    5c28:	540005c8 	b.hi	5ce0 <setlocale@plt+0x1e80>  // b.pmore
    5c2c:	7100041f 	cmp	w0, #0x1
    5c30:	d00000a1 	adrp	x1, 1b000 <_obstack_memory_used@@Base+0xe1c0>
    5c34:	d00000a0 	adrp	x0, 1b000 <_obstack_memory_used@@Base+0xe1c0>
    5c38:	9130c021 	add	x1, x1, #0xc30
    5c3c:	91316000 	add	x0, x0, #0xc58
    5c40:	9a801021 	csel	x1, x1, x0, ne	// ne = any
    5c44:	93407c40 	sxtw	x0, w2
    5c48:	37f80402 	tbnz	w2, #31, 5cc8 <setlocale@plt+0x1e68>
    5c4c:	b0000142 	adrp	x2, 2e000 <_obstack_memory_used@@Base+0x211c0>
    5c50:	913d0042 	add	x2, x2, #0xf40
    5c54:	8b001440 	add	x0, x2, x0, lsl #5
    5c58:	d00000b3 	adrp	x19, 1b000 <_obstack_memory_used@@Base+0xe1c0>
    5c5c:	9131e273 	add	x19, x19, #0xc78
    5c60:	f9413416 	ldr	x22, [x0, #616]
    5c64:	528000a2 	mov	w2, #0x5                   	// #5
    5c68:	d2800000 	mov	x0, #0x0                   	// #0
    5c6c:	97fff83d 	bl	3d60 <dcgettext@plt>
    5c70:	aa1503e5 	mov	x5, x21
    5c74:	aa0003e2 	mov	x2, x0
    5c78:	aa1603e4 	mov	x4, x22
    5c7c:	aa1303e3 	mov	x3, x19
    5c80:	2a1403e0 	mov	w0, w20
    5c84:	52800001 	mov	w1, #0x0                   	// #0
    5c88:	97fff6fa 	bl	3870 <error@plt>
    5c8c:	97fff7bd 	bl	3b80 <abort@plt>
    5c90:	d00000a1 	adrp	x1, 1b000 <_obstack_memory_used@@Base+0xe1c0>
    5c94:	913a6021 	add	x1, x1, #0xe98
    5c98:	528000a2 	mov	w2, #0x5                   	// #5
    5c9c:	d2800000 	mov	x0, #0x0                   	// #0
    5ca0:	97fff830 	bl	3d60 <dcgettext@plt>
    5ca4:	aa0003f5 	mov	x21, x0
    5ca8:	aa1603e0 	mov	x0, x22
    5cac:	94000b99 	bl	8b10 <setlocale@plt+0x4cb0>
    5cb0:	aa1503e2 	mov	x2, x21
    5cb4:	aa0003e3 	mov	x3, x0
    5cb8:	52800001 	mov	w1, #0x0                   	// #0
    5cbc:	52800000 	mov	w0, #0x0                   	// #0
    5cc0:	97fff6ec 	bl	3870 <error@plt>
    5cc4:	17fffb2b 	b	4970 <setlocale@plt+0xb10>
    5cc8:	d00000b3 	adrp	x19, 1b000 <_obstack_memory_used@@Base+0xe1c0>
    5ccc:	9131e273 	add	x19, x19, #0xc78
    5cd0:	cb000273 	sub	x19, x19, x0
    5cd4:	910203f6 	add	x22, sp, #0x80
    5cd8:	790103ff 	strh	wzr, [sp, #128]
    5cdc:	17ffffe2 	b	5c64 <setlocale@plt+0x1e04>
    5ce0:	7100101f 	cmp	w0, #0x4
    5ce4:	54fffd41 	b.ne	5c8c <setlocale@plt+0x1e2c>  // b.any
    5ce8:	d00000a1 	adrp	x1, 1b000 <_obstack_memory_used@@Base+0xe1c0>
    5cec:	91304021 	add	x1, x1, #0xc10
    5cf0:	17ffffd5 	b	5c44 <setlocale@plt+0x1de4>
    5cf4:	d0000143 	adrp	x3, 2f000 <_obstack_memory_used@@Base+0x221c0>
    5cf8:	f947d063 	ldr	x3, [x3, #4000]
    5cfc:	d28006e2 	mov	x2, #0x37                  	// #55
    5d00:	d2800021 	mov	x1, #0x1                   	// #1
    5d04:	d00000a0 	adrp	x0, 1b000 <_obstack_memory_used@@Base+0xe1c0>
    5d08:	91328000 	add	x0, x0, #0xca0
    5d0c:	f9400063 	ldr	x3, [x3]
    5d10:	97fff7e8 	bl	3cb0 <fwrite@plt>
    5d14:	97fff79b 	bl	3b80 <abort@plt>
    5d18:	d00000a1 	adrp	x1, 1b000 <_obstack_memory_used@@Base+0xe1c0>
    5d1c:	913ba021 	add	x1, x1, #0xee8
    5d20:	528000a2 	mov	w2, #0x5                   	// #5
    5d24:	d2800000 	mov	x0, #0x0                   	// #0
    5d28:	97fff80e 	bl	3d60 <dcgettext@plt>
    5d2c:	aa0003f6 	mov	x22, x0
    5d30:	aa1503e0 	mov	x0, x21
    5d34:	94000b77 	bl	8b10 <setlocale@plt+0x4cb0>
    5d38:	aa1603e2 	mov	x2, x22
    5d3c:	aa0003e3 	mov	x3, x0
    5d40:	52800001 	mov	w1, #0x0                   	// #0
    5d44:	52800000 	mov	w0, #0x0                   	// #0
    5d48:	97fff6ca 	bl	3870 <error@plt>
    5d4c:	17fffcdc 	b	50bc <setlocale@plt+0x125c>
    5d50:	f0000083 	adrp	x3, 18000 <_obstack_memory_used@@Base+0xb1c0>
    5d54:	910a0063 	add	x3, x3, #0x280
    5d58:	d00000a1 	adrp	x1, 1b000 <_obstack_memory_used@@Base+0xe1c0>
    5d5c:	f00000a0 	adrp	x0, 1c000 <_obstack_memory_used@@Base+0xf1c0>
    5d60:	91078063 	add	x3, x3, #0x1e0
    5d64:	912aa021 	add	x1, x1, #0xaa8
    5d68:	91034000 	add	x0, x0, #0xd0
    5d6c:	528083a2 	mov	w2, #0x41d                 	// #1053
    5d70:	97fff820 	bl	3df0 <__assert_fail@plt>
    5d74:	97fff767 	bl	3b10 <__stack_chk_fail@plt>
    5d78:	f0000083 	adrp	x3, 18000 <_obstack_memory_used@@Base+0xb1c0>
    5d7c:	910a0063 	add	x3, x3, #0x280
    5d80:	d00000a1 	adrp	x1, 1b000 <_obstack_memory_used@@Base+0xe1c0>
    5d84:	f00000a0 	adrp	x0, 1c000 <_obstack_memory_used@@Base+0xf1c0>
    5d88:	9107c063 	add	x3, x3, #0x1f0
    5d8c:	912aa021 	add	x1, x1, #0xaa8
    5d90:	9106a000 	add	x0, x0, #0x1a8
    5d94:	5280e802 	mov	w2, #0x740                 	// #1856
    5d98:	97fff816 	bl	3df0 <__assert_fail@plt>
    5d9c:	d503201f 	nop
    5da0:	d503201f 	nop
    5da4:	d503201f 	nop
    5da8:	d503201f 	nop
    5dac:	d503201f 	nop
    5db0:	d503201f 	nop
    5db4:	d503201f 	nop
    5db8:	d503201f 	nop
    5dbc:	d503201f 	nop
    5dc0:	d503201f 	nop
    5dc4:	d280001d 	mov	x29, #0x0                   	// #0
    5dc8:	d280001e 	mov	x30, #0x0                   	// #0
    5dcc:	aa0003e5 	mov	x5, x0
    5dd0:	f94003e1 	ldr	x1, [sp]
    5dd4:	910023e2 	add	x2, sp, #0x8
    5dd8:	910003e6 	mov	x6, sp
    5ddc:	d0000140 	adrp	x0, 2f000 <_obstack_memory_used@@Base+0x221c0>
    5de0:	f947f400 	ldr	x0, [x0, #4072]
    5de4:	d2800003 	mov	x3, #0x0                   	// #0
    5de8:	d2800004 	mov	x4, #0x0                   	// #0
    5dec:	97fff69d 	bl	3860 <__libc_start_main@plt>
    5df0:	97fff764 	bl	3b80 <abort@plt>
    5df4:	d0000140 	adrp	x0, 2f000 <_obstack_memory_used@@Base+0x221c0>
    5df8:	f947e400 	ldr	x0, [x0, #4040]
    5dfc:	b4000040 	cbz	x0, 5e04 <setlocale@plt+0x1fa4>
    5e00:	17fff754 	b	3b50 <__gmon_start__@plt>
    5e04:	d65f03c0 	ret
    5e08:	d503201f 	nop
    5e0c:	d503201f 	nop
    5e10:	f0000140 	adrp	x0, 30000 <_obstack_memory_used@@Base+0x231c0>
    5e14:	910a6000 	add	x0, x0, #0x298
    5e18:	f0000141 	adrp	x1, 30000 <_obstack_memory_used@@Base+0x231c0>
    5e1c:	910a6021 	add	x1, x1, #0x298
    5e20:	eb00003f 	cmp	x1, x0
    5e24:	540000c0 	b.eq	5e3c <setlocale@plt+0x1fdc>  // b.none
    5e28:	d0000141 	adrp	x1, 2f000 <_obstack_memory_used@@Base+0x221c0>
    5e2c:	f947c821 	ldr	x1, [x1, #3984]
    5e30:	b4000061 	cbz	x1, 5e3c <setlocale@plt+0x1fdc>
    5e34:	aa0103f0 	mov	x16, x1
    5e38:	d61f0200 	br	x16
    5e3c:	d65f03c0 	ret
    5e40:	f0000140 	adrp	x0, 30000 <_obstack_memory_used@@Base+0x231c0>
    5e44:	910a6000 	add	x0, x0, #0x298
    5e48:	f0000141 	adrp	x1, 30000 <_obstack_memory_used@@Base+0x231c0>
    5e4c:	910a6021 	add	x1, x1, #0x298
    5e50:	cb000021 	sub	x1, x1, x0
    5e54:	d37ffc22 	lsr	x2, x1, #63
    5e58:	8b810c41 	add	x1, x2, x1, asr #3
    5e5c:	9341fc21 	asr	x1, x1, #1
    5e60:	b40000c1 	cbz	x1, 5e78 <setlocale@plt+0x2018>
    5e64:	d0000142 	adrp	x2, 2f000 <_obstack_memory_used@@Base+0x221c0>
    5e68:	f947fc42 	ldr	x2, [x2, #4088]
    5e6c:	b4000062 	cbz	x2, 5e78 <setlocale@plt+0x2018>
    5e70:	aa0203f0 	mov	x16, x2
    5e74:	d61f0200 	br	x16
    5e78:	d65f03c0 	ret
    5e7c:	d503201f 	nop
    5e80:	a9be7bfd 	stp	x29, x30, [sp, #-32]!
    5e84:	910003fd 	mov	x29, sp
    5e88:	f9000bf3 	str	x19, [sp, #16]
    5e8c:	f0000153 	adrp	x19, 30000 <_obstack_memory_used@@Base+0x231c0>
    5e90:	394a8260 	ldrb	w0, [x19, #672]
    5e94:	37000140 	tbnz	w0, #0, 5ebc <setlocale@plt+0x205c>
    5e98:	d0000140 	adrp	x0, 2f000 <_obstack_memory_used@@Base+0x221c0>
    5e9c:	f947cc00 	ldr	x0, [x0, #3992]
    5ea0:	b4000080 	cbz	x0, 5eb0 <setlocale@plt+0x2050>
    5ea4:	f0000140 	adrp	x0, 30000 <_obstack_memory_used@@Base+0x231c0>
    5ea8:	f9400400 	ldr	x0, [x0, #8]
    5eac:	97fff689 	bl	38d0 <__cxa_finalize@plt>
    5eb0:	97ffffd8 	bl	5e10 <setlocale@plt+0x1fb0>
    5eb4:	52800020 	mov	w0, #0x1                   	// #1
    5eb8:	390a8260 	strb	w0, [x19, #672]
    5ebc:	f9400bf3 	ldr	x19, [sp, #16]
    5ec0:	a8c27bfd 	ldp	x29, x30, [sp], #32
    5ec4:	d65f03c0 	ret
    5ec8:	d503201f 	nop
    5ecc:	d503201f 	nop
    5ed0:	17ffffdc 	b	5e40 <setlocale@plt+0x1fe0>
    5ed4:	d503201f 	nop
    5ed8:	d503201f 	nop
    5edc:	d503201f 	nop
    5ee0:	d503233f 	paciasp
    5ee4:	a9bf7bfd 	stp	x29, x30, [sp, #-16]!
    5ee8:	910003fd 	mov	x29, sp
    5eec:	f9400000 	ldr	x0, [x0]
    5ef0:	a8c17bfd 	ldp	x29, x30, [sp], #16
    5ef4:	d50323bf 	autiasp
    5ef8:	9ac10802 	udiv	x2, x0, x1
    5efc:	9b018040 	msub	x0, x2, x1, x0
    5f00:	d65f03c0 	ret
    5f04:	d503233f 	paciasp
    5f08:	a9bf7bfd 	stp	x29, x30, [sp, #-16]!
    5f0c:	910003fd 	mov	x29, sp
    5f10:	f9400003 	ldr	x3, [x0]
    5f14:	f9400022 	ldr	x2, [x1]
    5f18:	eb02007f 	cmp	x3, x2
    5f1c:	540000a0 	b.eq	5f30 <setlocale@plt+0x20d0>  // b.none
    5f20:	a8c17bfd 	ldp	x29, x30, [sp], #16
    5f24:	d50323bf 	autiasp
    5f28:	52800000 	mov	w0, #0x0                   	// #0
    5f2c:	d65f03c0 	ret
    5f30:	f9400402 	ldr	x2, [x0, #8]
    5f34:	f9400420 	ldr	x0, [x1, #8]
    5f38:	a8c17bfd 	ldp	x29, x30, [sp], #16
    5f3c:	d50323bf 	autiasp
    5f40:	eb00005f 	cmp	x2, x0
    5f44:	1a9f17e0 	cset	w0, eq	// eq = none
    5f48:	d65f03c0 	ret
    5f4c:	d503201f 	nop
    5f50:	d503245f 	bti	c
    5f54:	f0000141 	adrp	x1, 30000 <_obstack_memory_used@@Base+0x231c0>
    5f58:	d503233f 	paciasp
    5f5c:	a9bf7bfd 	stp	x29, x30, [sp, #-16]!
    5f60:	910003fd 	mov	x29, sp
    5f64:	b942b022 	ldr	w2, [x1, #688]
    5f68:	35000042 	cbnz	w2, 5f70 <setlocale@plt+0x2110>
    5f6c:	b902b020 	str	w0, [x1, #688]
    5f70:	a8c17bfd 	ldp	x29, x30, [sp], #16
    5f74:	d50323bf 	autiasp
    5f78:	d65f03c0 	ret
    5f7c:	d503201f 	nop
    5f80:	d503245f 	bti	c
    5f84:	f0000140 	adrp	x0, 30000 <_obstack_memory_used@@Base+0x231c0>
    5f88:	d503233f 	paciasp
    5f8c:	a9bf7bfd 	stp	x29, x30, [sp, #-16]!
    5f90:	910ac001 	add	x1, x0, #0x2b0
    5f94:	910003fd 	mov	x29, sp
    5f98:	b942b000 	ldr	w0, [x0, #688]
    5f9c:	35000080 	cbnz	w0, 5fac <setlocale@plt+0x214c>
    5fa0:	b9400420 	ldr	w0, [x1, #4]
    5fa4:	11000400 	add	w0, w0, #0x1
    5fa8:	b9000420 	str	w0, [x1, #4]
    5fac:	a8c17bfd 	ldp	x29, x30, [sp], #16
    5fb0:	d50323bf 	autiasp
    5fb4:	d65f03c0 	ret
    5fb8:	d503201f 	nop
    5fbc:	d503201f 	nop
    5fc0:	d503233f 	paciasp
    5fc4:	a9bf7bfd 	stp	x29, x30, [sp, #-16]!
    5fc8:	910003fd 	mov	x29, sp
    5fcc:	a8c17bfd 	ldp	x29, x30, [sp], #16
    5fd0:	d50323bf 	autiasp
    5fd4:	17fff723 	b	3c60 <free@plt>
    5fd8:	d503201f 	nop
    5fdc:	d503201f 	nop
    5fe0:	d503233f 	paciasp
    5fe4:	a9bf7bfd 	stp	x29, x30, [sp, #-16]!
    5fe8:	aa0003ea 	mov	x10, x0
    5fec:	910003fd 	mov	x29, sp
    5ff0:	f9400027 	ldr	x7, [x1]
    5ff4:	12001c40 	and	w0, w2, #0xff
    5ff8:	f9400144 	ldr	x4, [x10]
    5ffc:	52800008 	mov	w8, #0x0                   	// #0
    6000:	394000e6 	ldrb	w6, [x7]
    6004:	d2800009 	mov	x9, #0x0                   	// #0
    6008:	52800005 	mov	w5, #0x0                   	// #0
    600c:	aa0703e2 	mov	x2, x7
    6010:	7100051f 	cmp	w8, #0x1
    6014:	540002a1 	b.ne	6068 <setlocale@plt+0x2208>  // b.any
    6018:	34000fe6 	cbz	w6, 6214 <setlocale@plt+0x23b4>
    601c:	5100c0c8 	sub	w8, w6, #0x30
    6020:	12001d05 	and	w5, w8, #0xff
    6024:	710120bf 	cmp	w5, #0x48
    6028:	54000128 	b.hi	604c <setlocale@plt+0x21ec>  // b.pmore
    602c:	7101211f 	cmp	w8, #0x48
    6030:	540000e8 	b.hi	604c <setlocale@plt+0x21ec>  // b.pmore
    6034:	b000008b 	adrp	x11, 17000 <_obstack_memory_used@@Base+0xa1c0>
    6038:	913f016b 	add	x11, x11, #0xfc0
    603c:	7868596b 	ldrh	w11, [x11, w8, uxtw #1]
    6040:	10000068 	adr	x8, 604c <setlocale@plt+0x21ec>
    6044:	8b2ba90b 	add	x11, x8, w11, sxth #2
    6048:	d61f0160 	br	x11
    604c:	d503249f 	bti	j
    6050:	2a0603e5 	mov	w5, w6
    6054:	91000529 	add	x9, x9, #0x1
    6058:	52800008 	mov	w8, #0x0                   	// #0
    605c:	38001485 	strb	w5, [x4], #1
    6060:	394004e6 	ldrb	w6, [x7, #1]
    6064:	910004e2 	add	x2, x7, #0x1
    6068:	7100091f 	cmp	w8, #0x2
    606c:	54000101 	b.ne	608c <setlocale@plt+0x222c>  // b.any
    6070:	5100c0c7 	sub	w7, w6, #0x30
    6074:	12001ce7 	and	w7, w7, #0xff
    6078:	71001cff 	cmp	w7, #0x7
    607c:	54000329 	b.ls	60e0 <setlocale@plt+0x2280>  // b.plast
    6080:	38001485 	strb	w5, [x4], #1
    6084:	91000529 	add	x9, x9, #0x1
    6088:	39400046 	ldrb	w6, [x2]
    608c:	710170df 	cmp	w6, #0x5c
    6090:	54000200 	b.eq	60d0 <setlocale@plt+0x2270>  // b.none
    6094:	54000548 	b.hi	613c <setlocale@plt+0x22dc>  // b.pmore
    6098:	7100f4df 	cmp	w6, #0x3d
    609c:	54000300 	b.eq	60fc <setlocale@plt+0x229c>  // b.none
    60a0:	540003e8 	b.hi	611c <setlocale@plt+0x22bc>  // b.pmore
    60a4:	34000066 	cbz	w6, 60b0 <setlocale@plt+0x2250>
    60a8:	7100e8df 	cmp	w6, #0x3a
    60ac:	54000381 	b.ne	611c <setlocale@plt+0x22bc>  // b.any
    60b0:	f9000144 	str	x4, [x10]
    60b4:	aa0203e7 	mov	x7, x2
    60b8:	f9000027 	str	x7, [x1]
    60bc:	52800020 	mov	w0, #0x1                   	// #1
    60c0:	a8c17bfd 	ldp	x29, x30, [sp], #16
    60c4:	d50323bf 	autiasp
    60c8:	f9000069 	str	x9, [x3]
    60cc:	d65f03c0 	ret
    60d0:	39400446 	ldrb	w6, [x2, #1]
    60d4:	91000447 	add	x7, x2, #0x1
    60d8:	52800028 	mov	w8, #0x1                   	// #1
    60dc:	17ffffcc 	b	600c <setlocale@plt+0x21ac>
    60e0:	0b050cc5 	add	w5, w6, w5, lsl #3
    60e4:	91000442 	add	x2, x2, #0x1
    60e8:	12001ca5 	and	w5, w5, #0xff
    60ec:	39400046 	ldrb	w6, [x2]
    60f0:	5100c0a5 	sub	w5, w5, #0x30
    60f4:	12001ca5 	and	w5, w5, #0xff
    60f8:	17ffffde 	b	6070 <setlocale@plt+0x2210>
    60fc:	36000100 	tbz	w0, #0, 611c <setlocale@plt+0x22bc>
    6100:	f9000144 	str	x4, [x10]
    6104:	aa0203e7 	mov	x7, x2
    6108:	f9000027 	str	x7, [x1]
    610c:	a8c17bfd 	ldp	x29, x30, [sp], #16
    6110:	d50323bf 	autiasp
    6114:	f9000069 	str	x9, [x3]
    6118:	d65f03c0 	ret
    611c:	38001486 	strb	w6, [x4], #1
    6120:	91000529 	add	x9, x9, #0x1
    6124:	91000442 	add	x2, x2, #0x1
    6128:	39400046 	ldrb	w6, [x2]
    612c:	17ffffd8 	b	608c <setlocale@plt+0x222c>
    6130:	d503249f 	bti	j
    6134:	52800048 	mov	w8, #0x2                   	// #2
    6138:	17ffffca 	b	6060 <setlocale@plt+0x2200>
    613c:	710178df 	cmp	w6, #0x5e
    6140:	54fffee1 	b.ne	611c <setlocale@plt+0x22bc>  // b.any
    6144:	39400446 	ldrb	w6, [x2, #1]
    6148:	510100c7 	sub	w7, w6, #0x40
    614c:	12001ce7 	and	w7, w7, #0xff
    6150:	7100f8ff 	cmp	w7, #0x3e
    6154:	54000108 	b.hi	6174 <setlocale@plt+0x2314>  // b.pmore
    6158:	120010c6 	and	w6, w6, #0x1f
    615c:	38001486 	strb	w6, [x4], #1
    6160:	91000529 	add	x9, x9, #0x1
    6164:	91000847 	add	x7, x2, #0x2
    6168:	39400846 	ldrb	w6, [x2, #2]
    616c:	52800008 	mov	w8, #0x0                   	// #0
    6170:	17ffffa7 	b	600c <setlocale@plt+0x21ac>
    6174:	91000447 	add	x7, x2, #0x1
    6178:	7100fcdf 	cmp	w6, #0x3f
    617c:	54000100 	b.eq	619c <setlocale@plt+0x233c>  // b.none
    6180:	f9000144 	str	x4, [x10]
    6184:	52800000 	mov	w0, #0x0                   	// #0
    6188:	f9000027 	str	x7, [x1]
    618c:	a8c17bfd 	ldp	x29, x30, [sp], #16
    6190:	d50323bf 	autiasp
    6194:	f9000069 	str	x9, [x3]
    6198:	d65f03c0 	ret
    619c:	52800fe6 	mov	w6, #0x7f                  	// #127
    61a0:	38001486 	strb	w6, [x4], #1
    61a4:	91000529 	add	x9, x9, #0x1
    61a8:	52800008 	mov	w8, #0x0                   	// #0
    61ac:	39400446 	ldrb	w6, [x2, #1]
    61b0:	17ffff97 	b	600c <setlocale@plt+0x21ac>
    61b4:	d503249f 	bti	j
    61b8:	52800fe5 	mov	w5, #0x7f                  	// #127
    61bc:	17ffffa6 	b	6054 <setlocale@plt+0x21f4>
    61c0:	d503249f 	bti	j
    61c4:	528001a5 	mov	w5, #0xd                   	// #13
    61c8:	17ffffa3 	b	6054 <setlocale@plt+0x21f4>
    61cc:	d503249f 	bti	j
    61d0:	52800405 	mov	w5, #0x20                  	// #32
    61d4:	17ffffa0 	b	6054 <setlocale@plt+0x21f4>
    61d8:	d503249f 	bti	j
    61dc:	52800125 	mov	w5, #0x9                   	// #9
    61e0:	17ffff9d 	b	6054 <setlocale@plt+0x21f4>
    61e4:	d503249f 	bti	j
    61e8:	52800165 	mov	w5, #0xb                   	// #11
    61ec:	17ffff9a 	b	6054 <setlocale@plt+0x21f4>
    61f0:	d503249f 	bti	j
    61f4:	52800365 	mov	w5, #0x1b                  	// #27
    61f8:	17ffff97 	b	6054 <setlocale@plt+0x21f4>
    61fc:	d503249f 	bti	j
    6200:	52800185 	mov	w5, #0xc                   	// #12
    6204:	17ffff94 	b	6054 <setlocale@plt+0x21f4>
    6208:	d503249f 	bti	j
    620c:	52800145 	mov	w5, #0xa                   	// #10
    6210:	17ffff91 	b	6054 <setlocale@plt+0x21f4>
    6214:	f9000144 	str	x4, [x10]
    6218:	910004e7 	add	x7, x7, #0x1
    621c:	f9000027 	str	x7, [x1]
    6220:	52800000 	mov	w0, #0x0                   	// #0
    6224:	a8c17bfd 	ldp	x29, x30, [sp], #16
    6228:	d50323bf 	autiasp
    622c:	f9000069 	str	x9, [x3]
    6230:	d65f03c0 	ret
    6234:	d503249f 	bti	j
    6238:	394004e6 	ldrb	w6, [x7, #1]
    623c:	910004e2 	add	x2, x7, #0x1
    6240:	52800005 	mov	w5, #0x0                   	// #0
    6244:	d503201f 	nop
    6248:	710118df 	cmp	w6, #0x46
    624c:	540001e8 	b.hi	6288 <setlocale@plt+0x2428>  // b.pmore
    6250:	710100df 	cmp	w6, #0x40
    6254:	54000468 	b.hi	62e0 <setlocale@plt+0x2480>  // b.pmore
    6258:	5100c0c7 	sub	w7, w6, #0x30
    625c:	12001ce7 	and	w7, w7, #0xff
    6260:	710024ff 	cmp	w7, #0x9
    6264:	54000348 	b.hi	62cc <setlocale@plt+0x246c>  // b.pmore
    6268:	0b0510c5 	add	w5, w6, w5, lsl #4
    626c:	39400446 	ldrb	w6, [x2, #1]
    6270:	12001ca5 	and	w5, w5, #0xff
    6274:	91000442 	add	x2, x2, #0x1
    6278:	5100c0a5 	sub	w5, w5, #0x30
    627c:	12001ca5 	and	w5, w5, #0xff
    6280:	710118df 	cmp	w6, #0x46
    6284:	54fffe69 	b.ls	6250 <setlocale@plt+0x23f0>  // b.plast
    6288:	510184c7 	sub	w7, w6, #0x61
    628c:	12001ce7 	and	w7, w7, #0xff
    6290:	710014ff 	cmp	w7, #0x5
    6294:	540001c8 	b.hi	62cc <setlocale@plt+0x246c>  // b.pmore
    6298:	0b0510c5 	add	w5, w6, w5, lsl #4
    629c:	91000442 	add	x2, x2, #0x1
    62a0:	12001ca5 	and	w5, w5, #0xff
    62a4:	39400046 	ldrb	w6, [x2]
    62a8:	51015ca5 	sub	w5, w5, #0x57
    62ac:	12001ca5 	and	w5, w5, #0xff
    62b0:	17ffffe6 	b	6248 <setlocale@plt+0x23e8>
    62b4:	d503249f 	bti	j
    62b8:	52800105 	mov	w5, #0x8                   	// #8
    62bc:	17ffff66 	b	6054 <setlocale@plt+0x21f4>
    62c0:	d503249f 	bti	j
    62c4:	528000e5 	mov	w5, #0x7                   	// #7
    62c8:	17ffff63 	b	6054 <setlocale@plt+0x21f4>
    62cc:	38001485 	strb	w5, [x4], #1
    62d0:	91000529 	add	x9, x9, #0x1
    62d4:	52800008 	mov	w8, #0x0                   	// #0
    62d8:	39400046 	ldrb	w6, [x2]
    62dc:	17ffff63 	b	6068 <setlocale@plt+0x2208>
    62e0:	0b0510c5 	add	w5, w6, w5, lsl #4
    62e4:	91000442 	add	x2, x2, #0x1
    62e8:	12001ca5 	and	w5, w5, #0xff
    62ec:	39400046 	ldrb	w6, [x2]
    62f0:	5100dca5 	sub	w5, w5, #0x37
    62f4:	12001ca5 	and	w5, w5, #0xff
    62f8:	17ffffd4 	b	6248 <setlocale@plt+0x23e8>
    62fc:	d503201f 	nop
    6300:	d503245f 	bti	c
    6304:	aa0103e3 	mov	x3, x1
    6308:	d503233f 	paciasp
    630c:	a9bf7bfd 	stp	x29, x30, [sp, #-16]!
    6310:	aa0003e4 	mov	x4, x0
    6314:	910003fd 	mov	x29, sp
    6318:	f9404001 	ldr	x1, [x0, #128]
    631c:	f9404060 	ldr	x0, [x3, #128]
    6320:	f9404485 	ldr	x5, [x4, #136]
    6324:	eb00003f 	cmp	x1, x0
    6328:	f9404461 	ldr	x1, [x3, #136]
    632c:	1a9fa7e0 	cset	w0, lt	// lt = tstop
    6330:	1a9fd7e2 	cset	w2, gt
    6334:	eb0100bf 	cmp	x5, x1
    6338:	4b000042 	sub	w2, w2, w0
    633c:	1a9fa7e1 	cset	w1, lt	// lt = tstop
    6340:	1a9fd7e0 	cset	w0, gt
    6344:	4b010000 	sub	w0, w0, w1
    6348:	2b020400 	adds	w0, w0, w2, lsl #1
    634c:	540000c1 	b.ne	6364 <setlocale@plt+0x2504>  // b.any
    6350:	a8c17bfd 	ldp	x29, x30, [sp], #16
    6354:	d50323bf 	autiasp
    6358:	f9400060 	ldr	x0, [x3]
    635c:	f9400081 	ldr	x1, [x4]
    6360:	17fff630 	b	3c20 <strcmp@plt>
    6364:	a8c17bfd 	ldp	x29, x30, [sp], #16
    6368:	d50323bf 	autiasp
    636c:	d65f03c0 	ret
    6370:	d503233f 	paciasp
    6374:	a9bf7bfd 	stp	x29, x30, [sp, #-16]!
    6378:	aa0003e3 	mov	x3, x0
    637c:	910003fd 	mov	x29, sp
    6380:	a9481422 	ldp	x2, x5, [x1, #128]
    6384:	f9404000 	ldr	x0, [x0, #128]
    6388:	f9404464 	ldr	x4, [x3, #136]
    638c:	eb00005f 	cmp	x2, x0
    6390:	1a9fa7e0 	cset	w0, lt	// lt = tstop
    6394:	1a9fd7e2 	cset	w2, gt
    6398:	eb0400bf 	cmp	x5, x4
    639c:	4b000042 	sub	w2, w2, w0
    63a0:	1a9fa7e4 	cset	w4, lt	// lt = tstop
    63a4:	1a9fd7e0 	cset	w0, gt
    63a8:	4b040000 	sub	w0, w0, w4
    63ac:	2b020400 	adds	w0, w0, w2, lsl #1
    63b0:	540000c1 	b.ne	63c8 <setlocale@plt+0x2568>  // b.any
    63b4:	a8c17bfd 	ldp	x29, x30, [sp], #16
    63b8:	d50323bf 	autiasp
    63bc:	f9400021 	ldr	x1, [x1]
    63c0:	f9400060 	ldr	x0, [x3]
    63c4:	17fff617 	b	3c20 <strcmp@plt>
    63c8:	a8c17bfd 	ldp	x29, x30, [sp], #16
    63cc:	d50323bf 	autiasp
    63d0:	d65f03c0 	ret
    63d4:	d503233f 	paciasp
    63d8:	a9bf7bfd 	stp	x29, x30, [sp, #-16]!
    63dc:	aa0003e3 	mov	x3, x0
    63e0:	910003fd 	mov	x29, sp
    63e4:	b9409804 	ldr	w4, [x0, #152]
    63e8:	b9409822 	ldr	w2, [x1, #152]
    63ec:	71000c9f 	cmp	w4, #0x3
    63f0:	1a9f17e0 	cset	w0, eq	// eq = none
    63f4:	7100249f 	cmp	w4, #0x9
    63f8:	1a9f17e4 	cset	w4, eq	// eq = none
    63fc:	71000c5f 	cmp	w2, #0x3
    6400:	2a040000 	orr	w0, w0, w4
    6404:	7a491844 	ccmp	w2, #0x9, #0x4, ne	// ne = any
    6408:	54000180 	b.eq	6438 <setlocale@plt+0x25d8>  // b.none
    640c:	b9409c22 	ldr	w2, [x1, #156]
    6410:	52800024 	mov	w4, #0x1                   	// #1
    6414:	12140c42 	and	w2, w2, #0xf000
    6418:	7140105f 	cmp	w2, #0x4, lsl #12
    641c:	1a9f17e2 	cset	w2, eq	// eq = none
    6420:	34000320 	cbz	w0, 6484 <setlocale@plt+0x2624>
    6424:	6b040040 	subs	w0, w2, w4
    6428:	540000c0 	b.eq	6440 <setlocale@plt+0x25e0>  // b.none
    642c:	a8c17bfd 	ldp	x29, x30, [sp], #16
    6430:	d50323bf 	autiasp
    6434:	d65f03c0 	ret
    6438:	52800022 	mov	w2, #0x1                   	// #1
    643c:	34000240 	cbz	w0, 6484 <setlocale@plt+0x2624>
    6440:	a9481060 	ldp	x0, x4, [x3, #128]
    6444:	a9481422 	ldp	x2, x5, [x1, #128]
    6448:	eb00005f 	cmp	x2, x0
    644c:	1a9fa7e0 	cset	w0, lt	// lt = tstop
    6450:	1a9fd7e2 	cset	w2, gt
    6454:	eb0400bf 	cmp	x5, x4
    6458:	4b000042 	sub	w2, w2, w0
    645c:	1a9fa7e4 	cset	w4, lt	// lt = tstop
    6460:	1a9fd7e0 	cset	w0, gt
    6464:	4b040000 	sub	w0, w0, w4
    6468:	2b020400 	adds	w0, w0, w2, lsl #1
    646c:	54fffe01 	b.ne	642c <setlocale@plt+0x25cc>  // b.any
    6470:	a8c17bfd 	ldp	x29, x30, [sp], #16
    6474:	d50323bf 	autiasp
    6478:	f9400021 	ldr	x1, [x1]
    647c:	f9400060 	ldr	x0, [x3]
    6480:	17fff5e8 	b	3c20 <strcmp@plt>
    6484:	b9409c60 	ldr	w0, [x3, #156]
    6488:	12140c00 	and	w0, w0, #0xf000
    648c:	7140101f 	cmp	w0, #0x4, lsl #12
    6490:	1a9f17e4 	cset	w4, eq	// eq = none
    6494:	6b040040 	subs	w0, w2, w4
    6498:	54fffca1 	b.ne	642c <setlocale@plt+0x25cc>  // b.any
    649c:	17ffffe9 	b	6440 <setlocale@plt+0x25e0>
    64a0:	d503233f 	paciasp
    64a4:	a9bf7bfd 	stp	x29, x30, [sp, #-16]!
    64a8:	aa0103e4 	mov	x4, x1
    64ac:	910003fd 	mov	x29, sp
    64b0:	b9409802 	ldr	w2, [x0, #152]
    64b4:	aa0003e3 	mov	x3, x0
    64b8:	b9409821 	ldr	w1, [x1, #152]
    64bc:	71000c5f 	cmp	w2, #0x3
    64c0:	1a9f17e0 	cset	w0, eq	// eq = none
    64c4:	7100245f 	cmp	w2, #0x9
    64c8:	1a9f17e2 	cset	w2, eq	// eq = none
    64cc:	71000c3f 	cmp	w1, #0x3
    64d0:	2a020000 	orr	w0, w0, w2
    64d4:	7a491824 	ccmp	w1, #0x9, #0x4, ne	// ne = any
    64d8:	54000180 	b.eq	6508 <setlocale@plt+0x26a8>  // b.none
    64dc:	b9409c82 	ldr	w2, [x4, #156]
    64e0:	52800021 	mov	w1, #0x1                   	// #1
    64e4:	12140c42 	and	w2, w2, #0xf000
    64e8:	7140105f 	cmp	w2, #0x4, lsl #12
    64ec:	1a9f17e2 	cset	w2, eq	// eq = none
    64f0:	34000340 	cbz	w0, 6558 <setlocale@plt+0x26f8>
    64f4:	6b010040 	subs	w0, w2, w1
    64f8:	540000c0 	b.eq	6510 <setlocale@plt+0x26b0>  // b.none
    64fc:	a8c17bfd 	ldp	x29, x30, [sp], #16
    6500:	d50323bf 	autiasp
    6504:	d65f03c0 	ret
    6508:	52800022 	mov	w2, #0x1                   	// #1
    650c:	34000260 	cbz	w0, 6558 <setlocale@plt+0x26f8>
    6510:	a9481461 	ldp	x1, x5, [x3, #128]
    6514:	f9404080 	ldr	x0, [x4, #128]
    6518:	eb00003f 	cmp	x1, x0
    651c:	f9404481 	ldr	x1, [x4, #136]
    6520:	1a9fa7e0 	cset	w0, lt	// lt = tstop
    6524:	1a9fd7e2 	cset	w2, gt
    6528:	eb0100bf 	cmp	x5, x1
    652c:	4b000042 	sub	w2, w2, w0
    6530:	1a9fa7e1 	cset	w1, lt	// lt = tstop
    6534:	1a9fd7e0 	cset	w0, gt
    6538:	4b010000 	sub	w0, w0, w1
    653c:	2b020400 	adds	w0, w0, w2, lsl #1
    6540:	54fffde1 	b.ne	64fc <setlocale@plt+0x269c>  // b.any
    6544:	a8c17bfd 	ldp	x29, x30, [sp], #16
    6548:	d50323bf 	autiasp
    654c:	f9400061 	ldr	x1, [x3]
    6550:	f9400080 	ldr	x0, [x4]
    6554:	17fff5b3 	b	3c20 <strcmp@plt>
    6558:	b9409c60 	ldr	w0, [x3, #156]
    655c:	12140c00 	and	w0, w0, #0xf000
    6560:	7140101f 	cmp	w0, #0x4, lsl #12
    6564:	1a9f17e1 	cset	w1, eq	// eq = none
    6568:	6b010040 	subs	w0, w2, w1
    656c:	54fffc81 	b.ne	64fc <setlocale@plt+0x269c>  // b.any
    6570:	17ffffe8 	b	6510 <setlocale@plt+0x26b0>
    6574:	d503245f 	bti	c
    6578:	aa0103e3 	mov	x3, x1
    657c:	d503233f 	paciasp
    6580:	a9bf7bfd 	stp	x29, x30, [sp, #-16]!
    6584:	aa0003e4 	mov	x4, x0
    6588:	910003fd 	mov	x29, sp
    658c:	f9403801 	ldr	x1, [x0, #112]
    6590:	f9403860 	ldr	x0, [x3, #112]
    6594:	f9403c85 	ldr	x5, [x4, #120]
    6598:	eb00003f 	cmp	x1, x0
    659c:	f9403c61 	ldr	x1, [x3, #120]
    65a0:	1a9fa7e0 	cset	w0, lt	// lt = tstop
    65a4:	1a9fd7e2 	cset	w2, gt
    65a8:	eb0100bf 	cmp	x5, x1
    65ac:	4b000042 	sub	w2, w2, w0
    65b0:	1a9fa7e1 	cset	w1, lt	// lt = tstop
    65b4:	1a9fd7e0 	cset	w0, gt
    65b8:	4b010000 	sub	w0, w0, w1
    65bc:	2b020400 	adds	w0, w0, w2, lsl #1
    65c0:	540000c1 	b.ne	65d8 <setlocale@plt+0x2778>  // b.any
    65c4:	a8c17bfd 	ldp	x29, x30, [sp], #16
    65c8:	d50323bf 	autiasp
    65cc:	f9400060 	ldr	x0, [x3]
    65d0:	f9400081 	ldr	x1, [x4]
    65d4:	17fff593 	b	3c20 <strcmp@plt>
    65d8:	a8c17bfd 	ldp	x29, x30, [sp], #16
    65dc:	d50323bf 	autiasp
    65e0:	d65f03c0 	ret
    65e4:	d503233f 	paciasp
    65e8:	a9bf7bfd 	stp	x29, x30, [sp, #-16]!
    65ec:	aa0003e3 	mov	x3, x0
    65f0:	910003fd 	mov	x29, sp
    65f4:	a9471422 	ldp	x2, x5, [x1, #112]
    65f8:	f9403800 	ldr	x0, [x0, #112]
    65fc:	f9403c64 	ldr	x4, [x3, #120]
    6600:	eb00005f 	cmp	x2, x0
    6604:	1a9fa7e0 	cset	w0, lt	// lt = tstop
    6608:	1a9fd7e2 	cset	w2, gt
    660c:	eb0400bf 	cmp	x5, x4
    6610:	4b000042 	sub	w2, w2, w0
    6614:	1a9fa7e4 	cset	w4, lt	// lt = tstop
    6618:	1a9fd7e0 	cset	w0, gt
    661c:	4b040000 	sub	w0, w0, w4
    6620:	2b020400 	adds	w0, w0, w2, lsl #1
    6624:	540000c1 	b.ne	663c <setlocale@plt+0x27dc>  // b.any
    6628:	a8c17bfd 	ldp	x29, x30, [sp], #16
    662c:	d50323bf 	autiasp
    6630:	f9400021 	ldr	x1, [x1]
    6634:	f9400060 	ldr	x0, [x3]
    6638:	17fff57a 	b	3c20 <strcmp@plt>
    663c:	a8c17bfd 	ldp	x29, x30, [sp], #16
    6640:	d50323bf 	autiasp
    6644:	d65f03c0 	ret
    6648:	d503201f 	nop
    664c:	d503201f 	nop
    6650:	d503233f 	paciasp
    6654:	a9bf7bfd 	stp	x29, x30, [sp, #-16]!
    6658:	aa0003e3 	mov	x3, x0
    665c:	910003fd 	mov	x29, sp
    6660:	b9409804 	ldr	w4, [x0, #152]
    6664:	b9409822 	ldr	w2, [x1, #152]
    6668:	71000c9f 	cmp	w4, #0x3
    666c:	1a9f17e0 	cset	w0, eq	// eq = none
    6670:	7100249f 	cmp	w4, #0x9
    6674:	1a9f17e4 	cset	w4, eq	// eq = none
    6678:	71000c5f 	cmp	w2, #0x3
    667c:	2a040000 	orr	w0, w0, w4
    6680:	7a491844 	ccmp	w2, #0x9, #0x4, ne	// ne = any
    6684:	54000180 	b.eq	66b4 <setlocale@plt+0x2854>  // b.none
    6688:	b9409c22 	ldr	w2, [x1, #156]
    668c:	52800024 	mov	w4, #0x1                   	// #1
    6690:	12140c42 	and	w2, w2, #0xf000
    6694:	7140105f 	cmp	w2, #0x4, lsl #12
    6698:	1a9f17e2 	cset	w2, eq	// eq = none
    669c:	34000320 	cbz	w0, 6700 <setlocale@plt+0x28a0>
    66a0:	6b040040 	subs	w0, w2, w4
    66a4:	540000c0 	b.eq	66bc <setlocale@plt+0x285c>  // b.none
    66a8:	a8c17bfd 	ldp	x29, x30, [sp], #16
    66ac:	d50323bf 	autiasp
    66b0:	d65f03c0 	ret
    66b4:	52800022 	mov	w2, #0x1                   	// #1
    66b8:	34000240 	cbz	w0, 6700 <setlocale@plt+0x28a0>
    66bc:	a9471060 	ldp	x0, x4, [x3, #112]
    66c0:	a9471422 	ldp	x2, x5, [x1, #112]
    66c4:	eb00005f 	cmp	x2, x0
    66c8:	1a9fa7e0 	cset	w0, lt	// lt = tstop
    66cc:	1a9fd7e2 	cset	w2, gt
    66d0:	eb0400bf 	cmp	x5, x4
    66d4:	4b000042 	sub	w2, w2, w0
    66d8:	1a9fa7e4 	cset	w4, lt	// lt = tstop
    66dc:	1a9fd7e0 	cset	w0, gt
    66e0:	4b040000 	sub	w0, w0, w4
    66e4:	2b020400 	adds	w0, w0, w2, lsl #1
    66e8:	54fffe01 	b.ne	66a8 <setlocale@plt+0x2848>  // b.any
    66ec:	a8c17bfd 	ldp	x29, x30, [sp], #16
    66f0:	d50323bf 	autiasp
    66f4:	f9400021 	ldr	x1, [x1]
    66f8:	f9400060 	ldr	x0, [x3]
    66fc:	17fff549 	b	3c20 <strcmp@plt>
    6700:	b9409c60 	ldr	w0, [x3, #156]
    6704:	12140c00 	and	w0, w0, #0xf000
    6708:	7140101f 	cmp	w0, #0x4, lsl #12
    670c:	1a9f17e4 	cset	w4, eq	// eq = none
    6710:	6b040040 	subs	w0, w2, w4
    6714:	54fffca1 	b.ne	66a8 <setlocale@plt+0x2848>  // b.any
    6718:	17ffffe9 	b	66bc <setlocale@plt+0x285c>
    671c:	d503201f 	nop
    6720:	d503233f 	paciasp
    6724:	a9bf7bfd 	stp	x29, x30, [sp, #-16]!
    6728:	aa0103e4 	mov	x4, x1
    672c:	910003fd 	mov	x29, sp
    6730:	b9409802 	ldr	w2, [x0, #152]
    6734:	aa0003e3 	mov	x3, x0
    6738:	b9409821 	ldr	w1, [x1, #152]
    673c:	71000c5f 	cmp	w2, #0x3
    6740:	1a9f17e0 	cset	w0, eq	// eq = none
    6744:	7100245f 	cmp	w2, #0x9
    6748:	1a9f17e2 	cset	w2, eq	// eq = none
    674c:	71000c3f 	cmp	w1, #0x3
    6750:	2a020000 	orr	w0, w0, w2
    6754:	7a491824 	ccmp	w1, #0x9, #0x4, ne	// ne = any
    6758:	54000180 	b.eq	6788 <setlocale@plt+0x2928>  // b.none
    675c:	b9409c82 	ldr	w2, [x4, #156]
    6760:	52800021 	mov	w1, #0x1                   	// #1
    6764:	12140c42 	and	w2, w2, #0xf000
    6768:	7140105f 	cmp	w2, #0x4, lsl #12
    676c:	1a9f17e2 	cset	w2, eq	// eq = none
    6770:	34000340 	cbz	w0, 67d8 <setlocale@plt+0x2978>
    6774:	6b010040 	subs	w0, w2, w1
    6778:	540000c0 	b.eq	6790 <setlocale@plt+0x2930>  // b.none
    677c:	a8c17bfd 	ldp	x29, x30, [sp], #16
    6780:	d50323bf 	autiasp
    6784:	d65f03c0 	ret
    6788:	52800022 	mov	w2, #0x1                   	// #1
    678c:	34000260 	cbz	w0, 67d8 <setlocale@plt+0x2978>
    6790:	a9471461 	ldp	x1, x5, [x3, #112]
    6794:	f9403880 	ldr	x0, [x4, #112]
    6798:	eb00003f 	cmp	x1, x0
    679c:	f9403c81 	ldr	x1, [x4, #120]
    67a0:	1a9fa7e0 	cset	w0, lt	// lt = tstop
    67a4:	1a9fd7e2 	cset	w2, gt
    67a8:	eb0100bf 	cmp	x5, x1
    67ac:	4b000042 	sub	w2, w2, w0
    67b0:	1a9fa7e1 	cset	w1, lt	// lt = tstop
    67b4:	1a9fd7e0 	cset	w0, gt
    67b8:	4b010000 	sub	w0, w0, w1
    67bc:	2b020400 	adds	w0, w0, w2, lsl #1
    67c0:	54fffde1 	b.ne	677c <setlocale@plt+0x291c>  // b.any
    67c4:	a8c17bfd 	ldp	x29, x30, [sp], #16
    67c8:	d50323bf 	autiasp
    67cc:	f9400061 	ldr	x1, [x3]
    67d0:	f9400080 	ldr	x0, [x4]
    67d4:	17fff513 	b	3c20 <strcmp@plt>
    67d8:	b9409c60 	ldr	w0, [x3, #156]
    67dc:	12140c00 	and	w0, w0, #0xf000
    67e0:	7140101f 	cmp	w0, #0x4, lsl #12
    67e4:	1a9f17e1 	cset	w1, eq	// eq = none
    67e8:	6b010040 	subs	w0, w2, w1
    67ec:	54fffc81 	b.ne	677c <setlocale@plt+0x291c>  // b.any
    67f0:	17ffffe8 	b	6790 <setlocale@plt+0x2930>
    67f4:	d503245f 	bti	c
    67f8:	aa0103e3 	mov	x3, x1
    67fc:	d503233f 	paciasp
    6800:	a9bf7bfd 	stp	x29, x30, [sp, #-16]!
    6804:	aa0003e4 	mov	x4, x0
    6808:	910003fd 	mov	x29, sp
    680c:	f9403001 	ldr	x1, [x0, #96]
    6810:	f9403060 	ldr	x0, [x3, #96]
    6814:	f9403485 	ldr	x5, [x4, #104]
    6818:	eb00003f 	cmp	x1, x0
    681c:	f9403461 	ldr	x1, [x3, #104]
    6820:	1a9fa7e0 	cset	w0, lt	// lt = tstop
    6824:	1a9fd7e2 	cset	w2, gt
    6828:	eb0100bf 	cmp	x5, x1
    682c:	4b000042 	sub	w2, w2, w0
    6830:	1a9fa7e1 	cset	w1, lt	// lt = tstop
    6834:	1a9fd7e0 	cset	w0, gt
    6838:	4b010000 	sub	w0, w0, w1
    683c:	2b020400 	adds	w0, w0, w2, lsl #1
    6840:	540000c1 	b.ne	6858 <setlocale@plt+0x29f8>  // b.any
    6844:	a8c17bfd 	ldp	x29, x30, [sp], #16
    6848:	d50323bf 	autiasp
    684c:	f9400060 	ldr	x0, [x3]
    6850:	f9400081 	ldr	x1, [x4]
    6854:	17fff4f3 	b	3c20 <strcmp@plt>
    6858:	a8c17bfd 	ldp	x29, x30, [sp], #16
    685c:	d50323bf 	autiasp
    6860:	d65f03c0 	ret
    6864:	d503233f 	paciasp
    6868:	a9bf7bfd 	stp	x29, x30, [sp, #-16]!
    686c:	aa0003e3 	mov	x3, x0
    6870:	910003fd 	mov	x29, sp
    6874:	a9461422 	ldp	x2, x5, [x1, #96]
    6878:	f9403000 	ldr	x0, [x0, #96]
    687c:	f9403464 	ldr	x4, [x3, #104]
    6880:	eb00005f 	cmp	x2, x0
    6884:	1a9fa7e0 	cset	w0, lt	// lt = tstop
    6888:	1a9fd7e2 	cset	w2, gt
    688c:	eb0400bf 	cmp	x5, x4
    6890:	4b000042 	sub	w2, w2, w0
    6894:	1a9fa7e4 	cset	w4, lt	// lt = tstop
    6898:	1a9fd7e0 	cset	w0, gt
    689c:	4b040000 	sub	w0, w0, w4
    68a0:	2b020400 	adds	w0, w0, w2, lsl #1
    68a4:	540000c1 	b.ne	68bc <setlocale@plt+0x2a5c>  // b.any
    68a8:	a8c17bfd 	ldp	x29, x30, [sp], #16
    68ac:	d50323bf 	autiasp
    68b0:	f9400021 	ldr	x1, [x1]
    68b4:	f9400060 	ldr	x0, [x3]
    68b8:	17fff4da 	b	3c20 <strcmp@plt>
    68bc:	a8c17bfd 	ldp	x29, x30, [sp], #16
    68c0:	d50323bf 	autiasp
    68c4:	d65f03c0 	ret
    68c8:	d503201f 	nop
    68cc:	d503201f 	nop
    68d0:	d503233f 	paciasp
    68d4:	a9bf7bfd 	stp	x29, x30, [sp, #-16]!
    68d8:	aa0003e3 	mov	x3, x0
    68dc:	910003fd 	mov	x29, sp
    68e0:	b9409804 	ldr	w4, [x0, #152]
    68e4:	b9409822 	ldr	w2, [x1, #152]
    68e8:	71000c9f 	cmp	w4, #0x3
    68ec:	1a9f17e0 	cset	w0, eq	// eq = none
    68f0:	7100249f 	cmp	w4, #0x9
    68f4:	1a9f17e4 	cset	w4, eq	// eq = none
    68f8:	71000c5f 	cmp	w2, #0x3
    68fc:	2a040000 	orr	w0, w0, w4
    6900:	7a491844 	ccmp	w2, #0x9, #0x4, ne	// ne = any
    6904:	54000180 	b.eq	6934 <setlocale@plt+0x2ad4>  // b.none
    6908:	b9409c22 	ldr	w2, [x1, #156]
    690c:	52800024 	mov	w4, #0x1                   	// #1
    6910:	12140c42 	and	w2, w2, #0xf000
    6914:	7140105f 	cmp	w2, #0x4, lsl #12
    6918:	1a9f17e2 	cset	w2, eq	// eq = none
    691c:	34000320 	cbz	w0, 6980 <setlocale@plt+0x2b20>
    6920:	6b040040 	subs	w0, w2, w4
    6924:	540000c0 	b.eq	693c <setlocale@plt+0x2adc>  // b.none
    6928:	a8c17bfd 	ldp	x29, x30, [sp], #16
    692c:	d50323bf 	autiasp
    6930:	d65f03c0 	ret
    6934:	52800022 	mov	w2, #0x1                   	// #1
    6938:	34000240 	cbz	w0, 6980 <setlocale@plt+0x2b20>
    693c:	a9461060 	ldp	x0, x4, [x3, #96]
    6940:	a9461422 	ldp	x2, x5, [x1, #96]
    6944:	eb00005f 	cmp	x2, x0
    6948:	1a9fa7e0 	cset	w0, lt	// lt = tstop
    694c:	1a9fd7e2 	cset	w2, gt
    6950:	eb0400bf 	cmp	x5, x4
    6954:	4b000042 	sub	w2, w2, w0
    6958:	1a9fa7e4 	cset	w4, lt	// lt = tstop
    695c:	1a9fd7e0 	cset	w0, gt
    6960:	4b040000 	sub	w0, w0, w4
    6964:	2b020400 	adds	w0, w0, w2, lsl #1
    6968:	54fffe01 	b.ne	6928 <setlocale@plt+0x2ac8>  // b.any
    696c:	a8c17bfd 	ldp	x29, x30, [sp], #16
    6970:	d50323bf 	autiasp
    6974:	f9400021 	ldr	x1, [x1]
    6978:	f9400060 	ldr	x0, [x3]
    697c:	17fff4a9 	b	3c20 <strcmp@plt>
    6980:	b9409c60 	ldr	w0, [x3, #156]
    6984:	12140c00 	and	w0, w0, #0xf000
    6988:	7140101f 	cmp	w0, #0x4, lsl #12
    698c:	1a9f17e4 	cset	w4, eq	// eq = none
    6990:	6b040040 	subs	w0, w2, w4
    6994:	54fffca1 	b.ne	6928 <setlocale@plt+0x2ac8>  // b.any
    6998:	17ffffe9 	b	693c <setlocale@plt+0x2adc>
    699c:	d503201f 	nop
    69a0:	d503233f 	paciasp
    69a4:	a9bf7bfd 	stp	x29, x30, [sp, #-16]!
    69a8:	aa0103e4 	mov	x4, x1
    69ac:	910003fd 	mov	x29, sp
    69b0:	b9409802 	ldr	w2, [x0, #152]
    69b4:	aa0003e3 	mov	x3, x0
    69b8:	b9409821 	ldr	w1, [x1, #152]
    69bc:	71000c5f 	cmp	w2, #0x3
    69c0:	1a9f17e0 	cset	w0, eq	// eq = none
    69c4:	7100245f 	cmp	w2, #0x9
    69c8:	1a9f17e2 	cset	w2, eq	// eq = none
    69cc:	71000c3f 	cmp	w1, #0x3
    69d0:	2a020000 	orr	w0, w0, w2
    69d4:	7a491824 	ccmp	w1, #0x9, #0x4, ne	// ne = any
    69d8:	54000180 	b.eq	6a08 <setlocale@plt+0x2ba8>  // b.none
    69dc:	b9409c82 	ldr	w2, [x4, #156]
    69e0:	52800021 	mov	w1, #0x1                   	// #1
    69e4:	12140c42 	and	w2, w2, #0xf000
    69e8:	7140105f 	cmp	w2, #0x4, lsl #12
    69ec:	1a9f17e2 	cset	w2, eq	// eq = none
    69f0:	34000340 	cbz	w0, 6a58 <setlocale@plt+0x2bf8>
    69f4:	6b010040 	subs	w0, w2, w1
    69f8:	540000c0 	b.eq	6a10 <setlocale@plt+0x2bb0>  // b.none
    69fc:	a8c17bfd 	ldp	x29, x30, [sp], #16
    6a00:	d50323bf 	autiasp
    6a04:	d65f03c0 	ret
    6a08:	52800022 	mov	w2, #0x1                   	// #1
    6a0c:	34000260 	cbz	w0, 6a58 <setlocale@plt+0x2bf8>
    6a10:	a9461461 	ldp	x1, x5, [x3, #96]
    6a14:	f9403080 	ldr	x0, [x4, #96]
    6a18:	eb00003f 	cmp	x1, x0
    6a1c:	f9403481 	ldr	x1, [x4, #104]
    6a20:	1a9fa7e0 	cset	w0, lt	// lt = tstop
    6a24:	1a9fd7e2 	cset	w2, gt
    6a28:	eb0100bf 	cmp	x5, x1
    6a2c:	4b000042 	sub	w2, w2, w0
    6a30:	1a9fa7e1 	cset	w1, lt	// lt = tstop
    6a34:	1a9fd7e0 	cset	w0, gt
    6a38:	4b010000 	sub	w0, w0, w1
    6a3c:	2b020400 	adds	w0, w0, w2, lsl #1
    6a40:	54fffde1 	b.ne	69fc <setlocale@plt+0x2b9c>  // b.any
    6a44:	a8c17bfd 	ldp	x29, x30, [sp], #16
    6a48:	d50323bf 	autiasp
    6a4c:	f9400061 	ldr	x1, [x3]
    6a50:	f9400080 	ldr	x0, [x4]
    6a54:	17fff473 	b	3c20 <strcmp@plt>
    6a58:	b9409c60 	ldr	w0, [x3, #156]
    6a5c:	12140c00 	and	w0, w0, #0xf000
    6a60:	7140101f 	cmp	w0, #0x4, lsl #12
    6a64:	1a9f17e1 	cset	w1, eq	// eq = none
    6a68:	6b010040 	subs	w0, w2, w1
    6a6c:	54fffc81 	b.ne	69fc <setlocale@plt+0x2b9c>  // b.any
    6a70:	17ffffe8 	b	6a10 <setlocale@plt+0x2bb0>
    6a74:	d503233f 	paciasp
    6a78:	a9bf7bfd 	stp	x29, x30, [sp, #-16]!
    6a7c:	aa0003e4 	mov	x4, x0
    6a80:	910003fd 	mov	x29, sp
    6a84:	a9471426 	ldp	x6, x5, [x1, #112]
    6a88:	f9403803 	ldr	x3, [x0, #112]
    6a8c:	eb0300df 	cmp	x6, x3
    6a90:	f9403c83 	ldr	x3, [x4, #120]
    6a94:	1a9fa7e0 	cset	w0, lt	// lt = tstop
    6a98:	1a9fd7e2 	cset	w2, gt
    6a9c:	eb0300bf 	cmp	x5, x3
    6aa0:	4b000042 	sub	w2, w2, w0
    6aa4:	1a9fd7e3 	cset	w3, gt
    6aa8:	1a9fa7e0 	cset	w0, lt	// lt = tstop
    6aac:	4b000063 	sub	w3, w3, w0
    6ab0:	2b020460 	adds	w0, w3, w2, lsl #1
    6ab4:	540000c1 	b.ne	6acc <setlocale@plt+0x2c6c>  // b.any
    6ab8:	a8c17bfd 	ldp	x29, x30, [sp], #16
    6abc:	d50323bf 	autiasp
    6ac0:	f9400021 	ldr	x1, [x1]
    6ac4:	f9400080 	ldr	x0, [x4]
    6ac8:	17fff456 	b	3c20 <strcmp@plt>
    6acc:	a8c17bfd 	ldp	x29, x30, [sp], #16
    6ad0:	d50323bf 	autiasp
    6ad4:	d65f03c0 	ret
    6ad8:	d503201f 	nop
    6adc:	d503201f 	nop
    6ae0:	d503233f 	paciasp
    6ae4:	a9bf7bfd 	stp	x29, x30, [sp, #-16]!
    6ae8:	aa0103e4 	mov	x4, x1
    6aec:	910003fd 	mov	x29, sp
    6af0:	a9470c06 	ldp	x6, x3, [x0, #112]
    6af4:	aa0003e5 	mov	x5, x0
    6af8:	a9470422 	ldp	x2, x1, [x1, #112]
    6afc:	eb0200df 	cmp	x6, x2
    6b00:	1a9fa7e0 	cset	w0, lt	// lt = tstop
    6b04:	1a9fd7e2 	cset	w2, gt
    6b08:	eb01007f 	cmp	x3, x1
    6b0c:	4b000042 	sub	w2, w2, w0
    6b10:	1a9fd7e3 	cset	w3, gt
    6b14:	1a9fa7e0 	cset	w0, lt	// lt = tstop
    6b18:	4b000063 	sub	w3, w3, w0
    6b1c:	2b020460 	adds	w0, w3, w2, lsl #1
    6b20:	540000c1 	b.ne	6b38 <setlocale@plt+0x2cd8>  // b.any
    6b24:	a8c17bfd 	ldp	x29, x30, [sp], #16
    6b28:	d50323bf 	autiasp
    6b2c:	f9400080 	ldr	x0, [x4]
    6b30:	f94000a1 	ldr	x1, [x5]
    6b34:	17fff43b 	b	3c20 <strcmp@plt>
    6b38:	a8c17bfd 	ldp	x29, x30, [sp], #16
    6b3c:	d50323bf 	autiasp
    6b40:	d65f03c0 	ret
    6b44:	d503233f 	paciasp
    6b48:	a9bf7bfd 	stp	x29, x30, [sp, #-16]!
    6b4c:	aa0003e3 	mov	x3, x0
    6b50:	910003fd 	mov	x29, sp
    6b54:	b9409804 	ldr	w4, [x0, #152]
    6b58:	b9409822 	ldr	w2, [x1, #152]
    6b5c:	71000c9f 	cmp	w4, #0x3
    6b60:	1a9f17e0 	cset	w0, eq	// eq = none
    6b64:	7100249f 	cmp	w4, #0x9
    6b68:	1a9f17e4 	cset	w4, eq	// eq = none
    6b6c:	71000c5f 	cmp	w2, #0x3
    6b70:	2a040000 	orr	w0, w0, w4
    6b74:	7a491844 	ccmp	w2, #0x9, #0x4, ne	// ne = any
    6b78:	54000180 	b.eq	6ba8 <setlocale@plt+0x2d48>  // b.none
    6b7c:	b9409c22 	ldr	w2, [x1, #156]
    6b80:	52800024 	mov	w4, #0x1                   	// #1
    6b84:	12140c42 	and	w2, w2, #0xf000
    6b88:	7140105f 	cmp	w2, #0x4, lsl #12
    6b8c:	1a9f17e2 	cset	w2, eq	// eq = none
    6b90:	34000340 	cbz	w0, 6bf8 <setlocale@plt+0x2d98>
    6b94:	6b040040 	subs	w0, w2, w4
    6b98:	540000c0 	b.eq	6bb0 <setlocale@plt+0x2d50>  // b.none
    6b9c:	a8c17bfd 	ldp	x29, x30, [sp], #16
    6ba0:	d50323bf 	autiasp
    6ba4:	d65f03c0 	ret
    6ba8:	52800022 	mov	w2, #0x1                   	// #1
    6bac:	34000260 	cbz	w0, 6bf8 <setlocale@plt+0x2d98>
    6bb0:	a9471426 	ldp	x6, x5, [x1, #112]
    6bb4:	f9403864 	ldr	x4, [x3, #112]
    6bb8:	eb0400df 	cmp	x6, x4
    6bbc:	f9403c64 	ldr	x4, [x3, #120]
    6bc0:	1a9fa7e0 	cset	w0, lt	// lt = tstop
    6bc4:	1a9fd7e2 	cset	w2, gt
    6bc8:	eb0400bf 	cmp	x5, x4
    6bcc:	4b000042 	sub	w2, w2, w0
    6bd0:	1a9fa7e4 	cset	w4, lt	// lt = tstop
    6bd4:	1a9fd7e0 	cset	w0, gt
    6bd8:	4b040000 	sub	w0, w0, w4
    6bdc:	2b020400 	adds	w0, w0, w2, lsl #1
    6be0:	54fffde1 	b.ne	6b9c <setlocale@plt+0x2d3c>  // b.any
    6be4:	a8c17bfd 	ldp	x29, x30, [sp], #16
    6be8:	d50323bf 	autiasp
    6bec:	f9400021 	ldr	x1, [x1]
    6bf0:	f9400060 	ldr	x0, [x3]
    6bf4:	17fff40b 	b	3c20 <strcmp@plt>
    6bf8:	b9409c60 	ldr	w0, [x3, #156]
    6bfc:	12140c00 	and	w0, w0, #0xf000
    6c00:	7140101f 	cmp	w0, #0x4, lsl #12
    6c04:	1a9f17e4 	cset	w4, eq	// eq = none
    6c08:	6b040040 	subs	w0, w2, w4
    6c0c:	54fffc81 	b.ne	6b9c <setlocale@plt+0x2d3c>  // b.any
    6c10:	17ffffe8 	b	6bb0 <setlocale@plt+0x2d50>
    6c14:	d503233f 	paciasp
    6c18:	a9bf7bfd 	stp	x29, x30, [sp, #-16]!
    6c1c:	aa0103e4 	mov	x4, x1
    6c20:	910003fd 	mov	x29, sp
    6c24:	b9409802 	ldr	w2, [x0, #152]
    6c28:	aa0003e3 	mov	x3, x0
    6c2c:	b9409821 	ldr	w1, [x1, #152]
    6c30:	71000c5f 	cmp	w2, #0x3
    6c34:	1a9f17e0 	cset	w0, eq	// eq = none
    6c38:	7100245f 	cmp	w2, #0x9
    6c3c:	1a9f17e2 	cset	w2, eq	// eq = none
    6c40:	71000c3f 	cmp	w1, #0x3
    6c44:	2a020000 	orr	w0, w0, w2
    6c48:	7a491824 	ccmp	w1, #0x9, #0x4, ne	// ne = any
    6c4c:	54000180 	b.eq	6c7c <setlocale@plt+0x2e1c>  // b.none
    6c50:	b9409c82 	ldr	w2, [x4, #156]
    6c54:	52800021 	mov	w1, #0x1                   	// #1
    6c58:	12140c42 	and	w2, w2, #0xf000
    6c5c:	7140105f 	cmp	w2, #0x4, lsl #12
    6c60:	1a9f17e2 	cset	w2, eq	// eq = none
    6c64:	34000320 	cbz	w0, 6cc8 <setlocale@plt+0x2e68>
    6c68:	6b010040 	subs	w0, w2, w1
    6c6c:	540000c0 	b.eq	6c84 <setlocale@plt+0x2e24>  // b.none
    6c70:	a8c17bfd 	ldp	x29, x30, [sp], #16
    6c74:	d50323bf 	autiasp
    6c78:	d65f03c0 	ret
    6c7c:	52800022 	mov	w2, #0x1                   	// #1
    6c80:	34000240 	cbz	w0, 6cc8 <setlocale@plt+0x2e68>
    6c84:	a9470482 	ldp	x2, x1, [x4, #112]
    6c88:	a9471466 	ldp	x6, x5, [x3, #112]
    6c8c:	eb0200df 	cmp	x6, x2
    6c90:	1a9fa7e0 	cset	w0, lt	// lt = tstop
    6c94:	1a9fd7e2 	cset	w2, gt
    6c98:	eb0100bf 	cmp	x5, x1
    6c9c:	4b000042 	sub	w2, w2, w0
    6ca0:	1a9fa7e1 	cset	w1, lt	// lt = tstop
    6ca4:	1a9fd7e0 	cset	w0, gt
    6ca8:	4b010000 	sub	w0, w0, w1
    6cac:	2b020400 	adds	w0, w0, w2, lsl #1
    6cb0:	54fffe01 	b.ne	6c70 <setlocale@plt+0x2e10>  // b.any
    6cb4:	a8c17bfd 	ldp	x29, x30, [sp], #16
    6cb8:	d50323bf 	autiasp
    6cbc:	f9400061 	ldr	x1, [x3]
    6cc0:	f9400080 	ldr	x0, [x4]
    6cc4:	17fff3d7 	b	3c20 <strcmp@plt>
    6cc8:	b9409c60 	ldr	w0, [x3, #156]
    6ccc:	12140c00 	and	w0, w0, #0xf000
    6cd0:	7140101f 	cmp	w0, #0x4, lsl #12
    6cd4:	1a9f17e1 	cset	w1, eq	// eq = none
    6cd8:	6b010040 	subs	w0, w2, w1
    6cdc:	54fffca1 	b.ne	6c70 <setlocale@plt+0x2e10>  // b.any
    6ce0:	17ffffe9 	b	6c84 <setlocale@plt+0x2e24>
    6ce4:	d503245f 	bti	c
    6ce8:	aa0103e3 	mov	x3, x1
    6cec:	d503233f 	paciasp
    6cf0:	a9bf7bfd 	stp	x29, x30, [sp, #-16]!
    6cf4:	aa0003e4 	mov	x4, x0
    6cf8:	910003fd 	mov	x29, sp
    6cfc:	f9402401 	ldr	x1, [x0, #72]
    6d00:	f9402460 	ldr	x0, [x3, #72]
    6d04:	eb00003f 	cmp	x1, x0
    6d08:	1a9fd7e2 	cset	w2, gt
    6d0c:	1a9fa7e0 	cset	w0, lt	// lt = tstop
    6d10:	6b000040 	subs	w0, w2, w0
    6d14:	540000c1 	b.ne	6d2c <setlocale@plt+0x2ecc>  // b.any
    6d18:	a8c17bfd 	ldp	x29, x30, [sp], #16
    6d1c:	d50323bf 	autiasp
    6d20:	f9400060 	ldr	x0, [x3]
    6d24:	f9400081 	ldr	x1, [x4]
    6d28:	17fff3be 	b	3c20 <strcmp@plt>
    6d2c:	a8c17bfd 	ldp	x29, x30, [sp], #16
    6d30:	d50323bf 	autiasp
    6d34:	d65f03c0 	ret
    6d38:	d503201f 	nop
    6d3c:	d503201f 	nop
    6d40:	d503233f 	paciasp
    6d44:	a9bf7bfd 	stp	x29, x30, [sp, #-16]!
    6d48:	aa0003e3 	mov	x3, x0
    6d4c:	910003fd 	mov	x29, sp
    6d50:	f9402400 	ldr	x0, [x0, #72]
    6d54:	f9402422 	ldr	x2, [x1, #72]
    6d58:	eb00005f 	cmp	x2, x0
    6d5c:	1a9fd7e2 	cset	w2, gt
    6d60:	1a9fa7e0 	cset	w0, lt	// lt = tstop
    6d64:	6b000040 	subs	w0, w2, w0
    6d68:	540000c1 	b.ne	6d80 <setlocale@plt+0x2f20>  // b.any
    6d6c:	a8c17bfd 	ldp	x29, x30, [sp], #16
    6d70:	d50323bf 	autiasp
    6d74:	f9400021 	ldr	x1, [x1]
    6d78:	f9400060 	ldr	x0, [x3]
    6d7c:	17fff3a9 	b	3c20 <strcmp@plt>
    6d80:	a8c17bfd 	ldp	x29, x30, [sp], #16
    6d84:	d50323bf 	autiasp
    6d88:	d65f03c0 	ret
    6d8c:	d503201f 	nop
    6d90:	d503233f 	paciasp
    6d94:	a9bf7bfd 	stp	x29, x30, [sp, #-16]!
    6d98:	aa0003e3 	mov	x3, x0
    6d9c:	910003fd 	mov	x29, sp
    6da0:	b9409804 	ldr	w4, [x0, #152]
    6da4:	b9409822 	ldr	w2, [x1, #152]
    6da8:	71000c9f 	cmp	w4, #0x3
    6dac:	1a9f17e0 	cset	w0, eq	// eq = none
    6db0:	7100249f 	cmp	w4, #0x9
    6db4:	1a9f17e4 	cset	w4, eq	// eq = none
    6db8:	71000c5f 	cmp	w2, #0x3
    6dbc:	2a040000 	orr	w0, w0, w4
    6dc0:	7a491844 	ccmp	w2, #0x9, #0x4, ne	// ne = any
    6dc4:	54000180 	b.eq	6df4 <setlocale@plt+0x2f94>  // b.none
    6dc8:	b9409c22 	ldr	w2, [x1, #156]
    6dcc:	52800024 	mov	w4, #0x1                   	// #1
    6dd0:	12140c42 	and	w2, w2, #0xf000
    6dd4:	7140105f 	cmp	w2, #0x4, lsl #12
    6dd8:	1a9f17e2 	cset	w2, eq	// eq = none
    6ddc:	34000280 	cbz	w0, 6e2c <setlocale@plt+0x2fcc>
    6de0:	6b040040 	subs	w0, w2, w4
    6de4:	540000c0 	b.eq	6dfc <setlocale@plt+0x2f9c>  // b.none
    6de8:	a8c17bfd 	ldp	x29, x30, [sp], #16
    6dec:	d50323bf 	autiasp
    6df0:	d65f03c0 	ret
    6df4:	52800022 	mov	w2, #0x1                   	// #1
    6df8:	340001a0 	cbz	w0, 6e2c <setlocale@plt+0x2fcc>
    6dfc:	f9402422 	ldr	x2, [x1, #72]
    6e00:	f9402460 	ldr	x0, [x3, #72]
    6e04:	eb00005f 	cmp	x2, x0
    6e08:	1a9fd7e2 	cset	w2, gt
    6e0c:	1a9fa7e0 	cset	w0, lt	// lt = tstop
    6e10:	6b000040 	subs	w0, w2, w0
    6e14:	54fffea1 	b.ne	6de8 <setlocale@plt+0x2f88>  // b.any
    6e18:	a8c17bfd 	ldp	x29, x30, [sp], #16
    6e1c:	d50323bf 	autiasp
    6e20:	f9400021 	ldr	x1, [x1]
    6e24:	f9400060 	ldr	x0, [x3]
    6e28:	17fff37e 	b	3c20 <strcmp@plt>
    6e2c:	b9409c60 	ldr	w0, [x3, #156]
    6e30:	12140c00 	and	w0, w0, #0xf000
    6e34:	7140101f 	cmp	w0, #0x4, lsl #12
    6e38:	1a9f17e4 	cset	w4, eq	// eq = none
    6e3c:	6b040040 	subs	w0, w2, w4
    6e40:	54fffd41 	b.ne	6de8 <setlocale@plt+0x2f88>  // b.any
    6e44:	17ffffee 	b	6dfc <setlocale@plt+0x2f9c>
    6e48:	d503201f 	nop
    6e4c:	d503201f 	nop
    6e50:	d503233f 	paciasp
    6e54:	a9bf7bfd 	stp	x29, x30, [sp, #-16]!
    6e58:	aa0103e4 	mov	x4, x1
    6e5c:	910003fd 	mov	x29, sp
    6e60:	b9409802 	ldr	w2, [x0, #152]
    6e64:	aa0003e3 	mov	x3, x0
    6e68:	b9409821 	ldr	w1, [x1, #152]
    6e6c:	71000c5f 	cmp	w2, #0x3
    6e70:	1a9f17e0 	cset	w0, eq	// eq = none
    6e74:	7100245f 	cmp	w2, #0x9
    6e78:	1a9f17e2 	cset	w2, eq	// eq = none
    6e7c:	71000c3f 	cmp	w1, #0x3
    6e80:	2a020000 	orr	w0, w0, w2
    6e84:	7a491824 	ccmp	w1, #0x9, #0x4, ne	// ne = any
    6e88:	54000180 	b.eq	6eb8 <setlocale@plt+0x3058>  // b.none
    6e8c:	b9409c82 	ldr	w2, [x4, #156]
    6e90:	52800021 	mov	w1, #0x1                   	// #1
    6e94:	12140c42 	and	w2, w2, #0xf000
    6e98:	7140105f 	cmp	w2, #0x4, lsl #12
    6e9c:	1a9f17e2 	cset	w2, eq	// eq = none
    6ea0:	34000280 	cbz	w0, 6ef0 <setlocale@plt+0x3090>
    6ea4:	6b010040 	subs	w0, w2, w1
    6ea8:	540000c0 	b.eq	6ec0 <setlocale@plt+0x3060>  // b.none
    6eac:	a8c17bfd 	ldp	x29, x30, [sp], #16
    6eb0:	d50323bf 	autiasp
    6eb4:	d65f03c0 	ret
    6eb8:	52800022 	mov	w2, #0x1                   	// #1
    6ebc:	340001a0 	cbz	w0, 6ef0 <setlocale@plt+0x3090>
    6ec0:	f9402480 	ldr	x0, [x4, #72]
    6ec4:	f9402461 	ldr	x1, [x3, #72]
    6ec8:	eb00003f 	cmp	x1, x0
    6ecc:	1a9fd7e2 	cset	w2, gt
    6ed0:	1a9fa7e0 	cset	w0, lt	// lt = tstop
    6ed4:	6b000040 	subs	w0, w2, w0
    6ed8:	54fffea1 	b.ne	6eac <setlocale@plt+0x304c>  // b.any
    6edc:	a8c17bfd 	ldp	x29, x30, [sp], #16
    6ee0:	d50323bf 	autiasp
    6ee4:	f9400061 	ldr	x1, [x3]
    6ee8:	f9400080 	ldr	x0, [x4]
    6eec:	17fff34d 	b	3c20 <strcmp@plt>
    6ef0:	b9409c60 	ldr	w0, [x3, #156]
    6ef4:	12140c00 	and	w0, w0, #0xf000
    6ef8:	7140101f 	cmp	w0, #0x4, lsl #12
    6efc:	1a9f17e1 	cset	w1, eq	// eq = none
    6f00:	6b010040 	subs	w0, w2, w1
    6f04:	54fffd41 	b.ne	6eac <setlocale@plt+0x304c>  // b.any
    6f08:	17ffffee 	b	6ec0 <setlocale@plt+0x3060>
    6f0c:	d503201f 	nop
    6f10:	d503233f 	paciasp
    6f14:	a9bf7bfd 	stp	x29, x30, [sp, #-16]!
    6f18:	910003fd 	mov	x29, sp
    6f1c:	a8c17bfd 	ldp	x29, x30, [sp], #16
    6f20:	d50323bf 	autiasp
    6f24:	f9400000 	ldr	x0, [x0]
    6f28:	f9400021 	ldr	x1, [x1]
    6f2c:	17fff33d 	b	3c20 <strcmp@plt>
    6f30:	d503233f 	paciasp
    6f34:	a9bf7bfd 	stp	x29, x30, [sp, #-16]!
    6f38:	aa0103e2 	mov	x2, x1
    6f3c:	910003fd 	mov	x29, sp
    6f40:	a8c17bfd 	ldp	x29, x30, [sp], #16
    6f44:	d50323bf 	autiasp
    6f48:	f9400001 	ldr	x1, [x0]
    6f4c:	f9400040 	ldr	x0, [x2]
    6f50:	17fff334 	b	3c20 <strcmp@plt>
    6f54:	d503233f 	paciasp
    6f58:	a9bf7bfd 	stp	x29, x30, [sp, #-16]!
    6f5c:	aa0003e2 	mov	x2, x0
    6f60:	910003fd 	mov	x29, sp
    6f64:	b9409804 	ldr	w4, [x0, #152]
    6f68:	b9409820 	ldr	w0, [x1, #152]
    6f6c:	7100249f 	cmp	w4, #0x9
    6f70:	1a9f17e3 	cset	w3, eq	// eq = none
    6f74:	71000c9f 	cmp	w4, #0x3
    6f78:	1a9f17e4 	cset	w4, eq	// eq = none
    6f7c:	71000c1f 	cmp	w0, #0x3
    6f80:	2a040063 	orr	w3, w3, w4
    6f84:	7a491804 	ccmp	w0, #0x9, #0x4, ne	// ne = any
    6f88:	54000180 	b.eq	6fb8 <setlocale@plt+0x3158>  // b.none
    6f8c:	b9409c20 	ldr	w0, [x1, #156]
    6f90:	52800024 	mov	w4, #0x1                   	// #1
    6f94:	12140c00 	and	w0, w0, #0xf000
    6f98:	7140101f 	cmp	w0, #0x4, lsl #12
    6f9c:	1a9f17e0 	cset	w0, eq	// eq = none
    6fa0:	340001a3 	cbz	w3, 6fd4 <setlocale@plt+0x3174>
    6fa4:	6b040000 	subs	w0, w0, w4
    6fa8:	540000c0 	b.eq	6fc0 <setlocale@plt+0x3160>  // b.none
    6fac:	a8c17bfd 	ldp	x29, x30, [sp], #16
    6fb0:	d50323bf 	autiasp
    6fb4:	d65f03c0 	ret
    6fb8:	52800020 	mov	w0, #0x1                   	// #1
    6fbc:	340000c3 	cbz	w3, 6fd4 <setlocale@plt+0x3174>
    6fc0:	a8c17bfd 	ldp	x29, x30, [sp], #16
    6fc4:	d50323bf 	autiasp
    6fc8:	f9400021 	ldr	x1, [x1]
    6fcc:	f9400040 	ldr	x0, [x2]
    6fd0:	17fff314 	b	3c20 <strcmp@plt>
    6fd4:	b9409c43 	ldr	w3, [x2, #156]
    6fd8:	12140c63 	and	w3, w3, #0xf000
    6fdc:	7140107f 	cmp	w3, #0x4, lsl #12
    6fe0:	1a9f17e4 	cset	w4, eq	// eq = none
    6fe4:	6b040000 	subs	w0, w0, w4
    6fe8:	54fffe21 	b.ne	6fac <setlocale@plt+0x314c>  // b.any
    6fec:	17fffff5 	b	6fc0 <setlocale@plt+0x3160>
    6ff0:	d503233f 	paciasp
    6ff4:	a9bf7bfd 	stp	x29, x30, [sp, #-16]!
    6ff8:	aa0003e2 	mov	x2, x0
    6ffc:	910003fd 	mov	x29, sp
    7000:	b9409804 	ldr	w4, [x0, #152]
    7004:	aa0103e3 	mov	x3, x1
    7008:	b9409820 	ldr	w0, [x1, #152]
    700c:	7100249f 	cmp	w4, #0x9
    7010:	1a9f17e1 	cset	w1, eq	// eq = none
    7014:	71000c9f 	cmp	w4, #0x3
    7018:	1a9f17e4 	cset	w4, eq	// eq = none
    701c:	71000c1f 	cmp	w0, #0x3
    7020:	2a040021 	orr	w1, w1, w4
    7024:	7a491804 	ccmp	w0, #0x9, #0x4, ne	// ne = any
    7028:	54000180 	b.eq	7058 <setlocale@plt+0x31f8>  // b.none
    702c:	b9409c60 	ldr	w0, [x3, #156]
    7030:	52800024 	mov	w4, #0x1                   	// #1
    7034:	12140c00 	and	w0, w0, #0xf000
    7038:	7140101f 	cmp	w0, #0x4, lsl #12
    703c:	1a9f17e0 	cset	w0, eq	// eq = none
    7040:	340001a1 	cbz	w1, 7074 <setlocale@plt+0x3214>
    7044:	6b040000 	subs	w0, w0, w4
    7048:	540000c0 	b.eq	7060 <setlocale@plt+0x3200>  // b.none
    704c:	a8c17bfd 	ldp	x29, x30, [sp], #16
    7050:	d50323bf 	autiasp
    7054:	d65f03c0 	ret
    7058:	52800020 	mov	w0, #0x1                   	// #1
    705c:	340000c1 	cbz	w1, 7074 <setlocale@plt+0x3214>
    7060:	a8c17bfd 	ldp	x29, x30, [sp], #16
    7064:	d50323bf 	autiasp
    7068:	f9400041 	ldr	x1, [x2]
    706c:	f9400060 	ldr	x0, [x3]
    7070:	17fff2ec 	b	3c20 <strcmp@plt>
    7074:	b9409c41 	ldr	w1, [x2, #156]
    7078:	12140c21 	and	w1, w1, #0xf000
    707c:	7140103f 	cmp	w1, #0x4, lsl #12
    7080:	1a9f17e4 	cset	w4, eq	// eq = none
    7084:	6b040000 	subs	w0, w0, w4
    7088:	54fffe21 	b.ne	704c <setlocale@plt+0x31ec>  // b.any
    708c:	17fffff5 	b	7060 <setlocale@plt+0x3200>
    7090:	d503233f 	paciasp
    7094:	a9bf7bfd 	stp	x29, x30, [sp, #-16]!
    7098:	d1000442 	sub	x2, x2, #0x1
    709c:	910003fd 	mov	x29, sp
    70a0:	d2800003 	mov	x3, #0x0                   	// #0
    70a4:	14000005 	b	70b8 <setlocale@plt+0x3258>
    70a8:	34000286 	cbz	w6, 70f8 <setlocale@plt+0x3298>
    70ac:	91000463 	add	x3, x3, #0x1
    70b0:	6b0400bf 	cmp	w5, w4
    70b4:	54000221 	b.ne	70f8 <setlocale@plt+0x3298>  // b.any
    70b8:	38636805 	ldrb	w5, [x0, x3]
    70bc:	510104a4 	sub	w4, w5, #0x41
    70c0:	2a0503e6 	mov	w6, w5
    70c4:	7100649f 	cmp	w4, #0x19
    70c8:	54000068 	b.hi	70d4 <setlocale@plt+0x3274>  // b.pmore
    70cc:	110080a6 	add	w6, w5, #0x20
    70d0:	12001cc5 	and	w5, w6, #0xff
    70d4:	38636824 	ldrb	w4, [x1, x3]
    70d8:	51010488 	sub	w8, w4, #0x41
    70dc:	2a0403e7 	mov	w7, w4
    70e0:	7100651f 	cmp	w8, #0x19
    70e4:	54000068 	b.hi	70f0 <setlocale@plt+0x3290>  // b.pmore
    70e8:	11008087 	add	w7, w4, #0x20
    70ec:	12001ce4 	and	w4, w7, #0xff
    70f0:	eb02007f 	cmp	x3, x2
    70f4:	54fffda1 	b.ne	70a8 <setlocale@plt+0x3248>  // b.any
    70f8:	a8c17bfd 	ldp	x29, x30, [sp], #16
    70fc:	d50323bf 	autiasp
    7100:	4b0700c0 	sub	w0, w6, w7
    7104:	d65f03c0 	ret
    7108:	d503201f 	nop
    710c:	d503201f 	nop
    7110:	d503245f 	bti	c
    7114:	93c00c02 	ror	x2, x0, #3
    7118:	d503233f 	paciasp
    711c:	a9bf7bfd 	stp	x29, x30, [sp, #-16]!
    7120:	9ac10840 	udiv	x0, x2, x1
    7124:	910003fd 	mov	x29, sp
    7128:	a8c17bfd 	ldp	x29, x30, [sp], #16
    712c:	d50323bf 	autiasp
    7130:	9b018800 	msub	x0, x0, x1, x2
    7134:	d65f03c0 	ret
    7138:	d503201f 	nop
    713c:	d503201f 	nop
    7140:	d503233f 	paciasp
    7144:	a9bf7bfd 	stp	x29, x30, [sp, #-16]!
    7148:	eb00003f 	cmp	x1, x0
    714c:	910003fd 	mov	x29, sp
    7150:	1a9f17e0 	cset	w0, eq	// eq = none
    7154:	a8c17bfd 	ldp	x29, x30, [sp], #16
    7158:	d50323bf 	autiasp
    715c:	d65f03c0 	ret
    7160:	d503233f 	paciasp
    7164:	a9bf7bfd 	stp	x29, x30, [sp, #-16]!
    7168:	d2800002 	mov	x2, #0x0                   	// #0
    716c:	910003fd 	mov	x29, sp
    7170:	f9400004 	ldr	x4, [x0]
    7174:	39400083 	ldrb	w3, [x4]
    7178:	34000103 	cbz	w3, 7198 <setlocale@plt+0x3338>
    717c:	d503201f 	nop
    7180:	93c2dc42 	ror	x2, x2, #55
    7184:	8b230042 	add	x2, x2, w3, uxtb
    7188:	38401c83 	ldrb	w3, [x4, #1]!
    718c:	35ffffa3 	cbnz	w3, 7180 <setlocale@plt+0x3320>
    7190:	9ac10843 	udiv	x3, x2, x1
    7194:	9b018862 	msub	x2, x3, x1, x2
    7198:	f9400400 	ldr	x0, [x0, #8]
    719c:	a8c17bfd 	ldp	x29, x30, [sp], #16
    71a0:	d50323bf 	autiasp
    71a4:	ca000040 	eor	x0, x2, x0
    71a8:	9ac10802 	udiv	x2, x0, x1
    71ac:	9b018040 	msub	x0, x2, x1, x0
    71b0:	d65f03c0 	ret
    71b4:	d503245f 	bti	c
    71b8:	f9400403 	ldr	x3, [x0, #8]
    71bc:	aa0003e2 	mov	x2, x0
    71c0:	f9400420 	ldr	x0, [x1, #8]
    71c4:	eb00007f 	cmp	x3, x0
    71c8:	54000060 	b.eq	71d4 <setlocale@plt+0x3374>  // b.none
    71cc:	52800000 	mov	w0, #0x0                   	// #0
    71d0:	d65f03c0 	ret
    71d4:	f9400823 	ldr	x3, [x1, #16]
    71d8:	52800000 	mov	w0, #0x0                   	// #0
    71dc:	f9400844 	ldr	x4, [x2, #16]
    71e0:	eb03009f 	cmp	x4, x3
    71e4:	54000040 	b.eq	71ec <setlocale@plt+0x338c>  // b.none
    71e8:	d65f03c0 	ret
    71ec:	d503233f 	paciasp
    71f0:	a9bf7bfd 	stp	x29, x30, [sp, #-16]!
    71f4:	910003fd 	mov	x29, sp
    71f8:	f9400021 	ldr	x1, [x1]
    71fc:	f9400040 	ldr	x0, [x2]
    7200:	97fff288 	bl	3c20 <strcmp@plt>
    7204:	7100001f 	cmp	w0, #0x0
    7208:	a8c17bfd 	ldp	x29, x30, [sp], #16
    720c:	d50323bf 	autiasp
    7210:	1a9f17e0 	cset	w0, eq	// eq = none
    7214:	d65f03c0 	ret
    7218:	d503201f 	nop
    721c:	d503201f 	nop
    7220:	d503233f 	paciasp
    7224:	a9be7bfd 	stp	x29, x30, [sp, #-32]!
    7228:	910003fd 	mov	x29, sp
    722c:	f9000bf3 	str	x19, [sp, #16]
    7230:	aa0003f3 	mov	x19, x0
    7234:	f9400000 	ldr	x0, [x0]
    7238:	97fff28a 	bl	3c60 <free@plt>
    723c:	aa1303e0 	mov	x0, x19
    7240:	f9400bf3 	ldr	x19, [sp, #16]
    7244:	a8c27bfd 	ldp	x29, x30, [sp], #32
    7248:	d50323bf 	autiasp
    724c:	17fff285 	b	3c60 <free@plt>
    7250:	d503233f 	paciasp
    7254:	a9bd7bfd 	stp	x29, x30, [sp, #-48]!
    7258:	910003fd 	mov	x29, sp
    725c:	a90153f3 	stp	x19, x20, [sp, #16]
    7260:	aa0003f3 	mov	x19, x0
    7264:	f90013f5 	str	x21, [sp, #32]
    7268:	b4000462 	cbz	x2, 72f4 <setlocale@plt+0x3494>
    726c:	39414260 	ldrb	w0, [x19, #80]
    7270:	f100003f 	cmp	x1, #0x0
    7274:	d1000455 	sub	x21, x2, #0x1
    7278:	aa0203f4 	mov	x20, x2
    727c:	d281fc02 	mov	x2, #0xfe0                 	// #4064
    7280:	9a821021 	csel	x1, x1, x2, ne	// ne = any
    7284:	f9000261 	str	x1, [x19]
    7288:	f9001a75 	str	x21, [x19, #48]
    728c:	f9401e62 	ldr	x2, [x19, #56]
    7290:	36000460 	tbz	w0, #0, 731c <setlocale@plt+0x34bc>
    7294:	f9402660 	ldr	x0, [x19, #72]
    7298:	d63f0040 	blr	x2
    729c:	aa0003e1 	mov	x1, x0
    72a0:	f9000661 	str	x1, [x19, #8]
    72a4:	b4000441 	cbz	x1, 732c <setlocale@plt+0x34cc>
    72a8:	f9400262 	ldr	x2, [x19]
    72ac:	91004020 	add	x0, x1, #0x10
    72b0:	cb1403f4 	neg	x20, x20
    72b4:	8b150000 	add	x0, x0, x21
    72b8:	f94013f5 	ldr	x21, [sp, #32]
    72bc:	8a140000 	and	x0, x0, x20
    72c0:	a9010260 	stp	x0, x0, [x19, #16]
    72c4:	8b020022 	add	x2, x1, x2
    72c8:	39414263 	ldrb	w3, [x19, #80]
    72cc:	f9000022 	str	x2, [x1]
    72d0:	52800020 	mov	w0, #0x1                   	// #1
    72d4:	f9001262 	str	x2, [x19, #32]
    72d8:	f900043f 	str	xzr, [x1, #8]
    72dc:	121d7461 	and	w1, w3, #0xfffffff9
    72e0:	39014261 	strb	w1, [x19, #80]
    72e4:	a94153f3 	ldp	x19, x20, [sp, #16]
    72e8:	a8c37bfd 	ldp	x29, x30, [sp], #48
    72ec:	d50323bf 	autiasp
    72f0:	d65f03c0 	ret
    72f4:	39414260 	ldrb	w0, [x19, #80]
    72f8:	f100003f 	cmp	x1, #0x0
    72fc:	d281fc02 	mov	x2, #0xfe0                 	// #4064
    7300:	d28001f5 	mov	x21, #0xf                   	// #15
    7304:	9a821021 	csel	x1, x1, x2, ne	// ne = any
    7308:	f9000261 	str	x1, [x19]
    730c:	f9001a75 	str	x21, [x19, #48]
    7310:	d2800214 	mov	x20, #0x10                  	// #16
    7314:	f9401e62 	ldr	x2, [x19, #56]
    7318:	3707fbe0 	tbnz	w0, #0, 7294 <setlocale@plt+0x3434>
    731c:	aa0103e0 	mov	x0, x1
    7320:	d63f0040 	blr	x2
    7324:	aa0003e1 	mov	x1, x0
    7328:	17ffffde 	b	72a0 <setlocale@plt+0x3440>
    732c:	90000140 	adrp	x0, 2f000 <_obstack_memory_used@@Base+0x221c0>
    7330:	f947c000 	ldr	x0, [x0, #3968]
    7334:	f9400000 	ldr	x0, [x0]
    7338:	d63f0000 	blr	x0
    733c:	d503201f 	nop
    7340:	eb01001f 	cmp	x0, x1
    7344:	54000742 	b.cs	742c <setlocale@plt+0x35cc>  // b.hs, b.nlast
    7348:	d503233f 	paciasp
    734c:	a9bb7bfd 	stp	x29, x30, [sp, #-80]!
    7350:	910003fd 	mov	x29, sp
    7354:	a90153f3 	stp	x19, x20, [sp, #16]
    7358:	aa0003f3 	mov	x19, x0
    735c:	a9025bf5 	stp	x21, x22, [sp, #32]
    7360:	b0000156 	adrp	x22, 30000 <_obstack_memory_used@@Base+0x231c0>
    7364:	aa0103f5 	mov	x21, x1
    7368:	910ac2d6 	add	x22, x22, #0x2b0
    736c:	a90363f7 	stp	x23, x24, [sp, #48]
    7370:	52800418 	mov	w24, #0x20                  	// #32
    7374:	90000157 	adrp	x23, 2f000 <_obstack_memory_used@@Base+0x221c0>
    7378:	f947e2f7 	ldr	x23, [x23, #4032]
    737c:	f90023f9 	str	x25, [sp, #64]
    7380:	52800139 	mov	w25, #0x9                   	// #9
    7384:	1400000e 	b	73bc <setlocale@plt+0x355c>
    7388:	9ac30aa4 	udiv	x4, x21, x3
    738c:	9ac30a81 	udiv	x1, x20, x3
    7390:	eb01009f 	cmp	x4, x1
    7394:	540001e9 	b.ls	73d0 <setlocale@plt+0x3570>  // b.plast
    7398:	eb05005f 	cmp	x2, x5
    739c:	54000402 	b.cs	741c <setlocale@plt+0x35bc>  // b.hs, b.nlast
    73a0:	91000441 	add	x1, x2, #0x1
    73a4:	f9001401 	str	x1, [x0, #40]
    73a8:	39000059 	strb	w25, [x2]
    73ac:	9ac30a73 	udiv	x19, x19, x3
    73b0:	9b030e73 	madd	x19, x19, x3, x3
    73b4:	eb1302bf 	cmp	x21, x19
    73b8:	540001c9 	b.ls	73f0 <setlocale@plt+0x3590>  // b.plast
    73bc:	f94002e0 	ldr	x0, [x23]
    73c0:	91000674 	add	x20, x19, #0x1
    73c4:	f94006c3 	ldr	x3, [x22, #8]
    73c8:	a9429402 	ldp	x2, x5, [x0, #40]
    73cc:	b5fffde3 	cbnz	x3, 7388 <setlocale@plt+0x3528>
    73d0:	eb05005f 	cmp	x2, x5
    73d4:	540001c2 	b.cs	740c <setlocale@plt+0x35ac>  // b.hs, b.nlast
    73d8:	91000441 	add	x1, x2, #0x1
    73dc:	aa1403f3 	mov	x19, x20
    73e0:	f9001401 	str	x1, [x0, #40]
    73e4:	39000058 	strb	w24, [x2]
    73e8:	eb1302bf 	cmp	x21, x19
    73ec:	54fffe88 	b.hi	73bc <setlocale@plt+0x355c>  // b.pmore
    73f0:	a94153f3 	ldp	x19, x20, [sp, #16]
    73f4:	a9425bf5 	ldp	x21, x22, [sp, #32]
    73f8:	a94363f7 	ldp	x23, x24, [sp, #48]
    73fc:	f94023f9 	ldr	x25, [sp, #64]
    7400:	a8c57bfd 	ldp	x29, x30, [sp], #80
    7404:	d50323bf 	autiasp
    7408:	d65f03c0 	ret
    740c:	52800401 	mov	w1, #0x20                  	// #32
    7410:	aa1403f3 	mov	x19, x20
    7414:	97fff1e7 	bl	3bb0 <__overflow@plt>
    7418:	17fffff4 	b	73e8 <setlocale@plt+0x3588>
    741c:	52800121 	mov	w1, #0x9                   	// #9
    7420:	97fff1e4 	bl	3bb0 <__overflow@plt>
    7424:	f94006c3 	ldr	x3, [x22, #8]
    7428:	17ffffe1 	b	73ac <setlocale@plt+0x354c>
    742c:	d65f03c0 	ret
    7430:	b0000144 	adrp	x4, 30000 <_obstack_memory_used@@Base+0x231c0>
    7434:	910ac084 	add	x4, x4, #0x2b0
    7438:	d503233f 	paciasp
    743c:	a9bf7bfd 	stp	x29, x30, [sp, #-16]!
    7440:	aa0103e2 	mov	x2, x1
    7444:	910003fd 	mov	x29, sp
    7448:	f9400885 	ldr	x5, [x4, #16]
    744c:	d2800021 	mov	x1, #0x1                   	// #1
    7450:	90000143 	adrp	x3, 2f000 <_obstack_memory_used@@Base+0x221c0>
    7454:	f947e063 	ldr	x3, [x3, #4032]
    7458:	8b0200a5 	add	x5, x5, x2
    745c:	f9000885 	str	x5, [x4, #16]
    7460:	a8c17bfd 	ldp	x29, x30, [sp], #16
    7464:	d50323bf 	autiasp
    7468:	f9400063 	ldr	x3, [x3]
    746c:	17fff0e1 	b	37f0 <fwrite_unlocked@plt>
    7470:	d503233f 	paciasp
    7474:	a9bc7bfd 	stp	x29, x30, [sp, #-64]!
    7478:	aa0103e2 	mov	x2, x1
    747c:	910003fd 	mov	x29, sp
    7480:	a9025bf5 	stp	x21, x22, [sp, #32]
    7484:	a9410435 	ldp	x21, x1, [x1, #16]
    7488:	a90153f3 	stp	x19, x20, [sp, #16]
    748c:	cb150034 	sub	x20, x1, x21
    7490:	f1001e9f 	cmp	x20, #0x7
    7494:	540004e9 	b.ls	7530 <setlocale@plt+0x36d0>  // b.plast
    7498:	f9001bf7 	str	x23, [sp, #48]
    749c:	eb15003f 	cmp	x1, x21
    74a0:	54000520 	b.eq	7544 <setlocale@plt+0x36e4>  // b.none
    74a4:	f9401843 	ldr	x3, [x2, #48]
    74a8:	d0000096 	adrp	x22, 19000 <_obstack_memory_used@@Base+0xc1c0>
    74ac:	f9400444 	ldr	x4, [x2, #8]
    74b0:	8b030021 	add	x1, x1, x3
    74b4:	f9401045 	ldr	x5, [x2, #32]
    74b8:	8a230023 	bic	x3, x1, x3
    74bc:	90000157 	adrp	x23, 2f000 <_obstack_memory_used@@Base+0x221c0>
    74c0:	f947e2f7 	ldr	x23, [x23, #4032]
    74c4:	cb040066 	sub	x6, x3, x4
    74c8:	cb0400a4 	sub	x4, x5, x4
    74cc:	d343fe94 	lsr	x20, x20, #3
    74d0:	eb0400df 	cmp	x6, x4
    74d4:	9127c2d6 	add	x22, x22, #0x9f0
    74d8:	f94002e1 	ldr	x1, [x23]
    74dc:	9a859063 	csel	x3, x3, x5, ls	// ls = plast
    74e0:	a9010c43 	stp	x3, x3, [x2, #16]
    74e4:	d2800013 	mov	x19, #0x0                   	// #0
    74e8:	97fff222 	bl	3d70 <fputs_unlocked@plt>
    74ec:	d503201f 	nop
    74f0:	f8737aa2 	ldr	x2, [x21, x19, lsl #3]
    74f4:	aa1603e1 	mov	x1, x22
    74f8:	52800040 	mov	w0, #0x2                   	// #2
    74fc:	91000673 	add	x19, x19, #0x1
    7500:	97fff160 	bl	3a80 <__printf_chk@plt>
    7504:	eb13029f 	cmp	x20, x19
    7508:	54ffff48 	b.hi	74f0 <setlocale@plt+0x3690>  // b.pmore
    750c:	f94002e0 	ldr	x0, [x23]
    7510:	a9428801 	ldp	x1, x2, [x0, #40]
    7514:	eb02003f 	cmp	x1, x2
    7518:	540001e2 	b.cs	7554 <setlocale@plt+0x36f4>  // b.hs, b.nlast
    751c:	91000422 	add	x2, x1, #0x1
    7520:	f9001402 	str	x2, [x0, #40]
    7524:	52800140 	mov	w0, #0xa                   	// #10
    7528:	39000020 	strb	w0, [x1]
    752c:	f9401bf7 	ldr	x23, [sp, #48]
    7530:	a94153f3 	ldp	x19, x20, [sp, #16]
    7534:	a9425bf5 	ldp	x21, x22, [sp, #32]
    7538:	a8c47bfd 	ldp	x29, x30, [sp], #64
    753c:	d50323bf 	autiasp
    7540:	d65f03c0 	ret
    7544:	39414043 	ldrb	w3, [x2, #80]
    7548:	321f0063 	orr	w3, w3, #0x2
    754c:	39014043 	strb	w3, [x2, #80]
    7550:	17ffffd5 	b	74a4 <setlocale@plt+0x3644>
    7554:	a94153f3 	ldp	x19, x20, [sp, #16]
    7558:	52800141 	mov	w1, #0xa                   	// #10
    755c:	a9425bf5 	ldp	x21, x22, [sp, #32]
    7560:	f9401bf7 	ldr	x23, [sp, #48]
    7564:	a8c47bfd 	ldp	x29, x30, [sp], #64
    7568:	d50323bf 	autiasp
    756c:	17fff191 	b	3bb0 <__overflow@plt>
    7570:	d503233f 	paciasp
    7574:	a9ba7bfd 	stp	x29, x30, [sp, #-96]!
    7578:	910003fd 	mov	x29, sp
    757c:	a90153f3 	stp	x19, x20, [sp, #16]
    7580:	a9025bf5 	stp	x21, x22, [sp, #32]
    7584:	a90363f7 	stp	x23, x24, [sp, #48]
    7588:	a9046bf9 	stp	x25, x26, [sp, #64]
    758c:	a90573fb 	stp	x27, x28, [sp, #80]
    7590:	d119c3ff 	sub	sp, sp, #0x670
    7594:	f90203ff 	str	xzr, [sp, #1024]
    7598:	90000140 	adrp	x0, 2f000 <_obstack_memory_used@@Base+0x221c0>
    759c:	f947e800 	ldr	x0, [x0, #4048]
    75a0:	b0000141 	adrp	x1, 30000 <_obstack_memory_used@@Base+0x231c0>
    75a4:	d2800024 	mov	x4, #0x1                   	// #1
    75a8:	91038025 	add	x5, x1, #0xe0
    75ac:	f9400001 	ldr	x1, [x0]
    75b0:	f90337e1 	str	x1, [sp, #1640]
    75b4:	d2800001 	mov	x1, #0x0                   	// #0
    75b8:	910163e0 	add	x0, sp, #0x58
    75bc:	f90023e0 	str	x0, [sp, #64]
    75c0:	d37df083 	lsl	x3, x4, #3
    75c4:	8b0300a0 	add	x0, x5, x3
    75c8:	f85f8000 	ldur	x0, [x0, #-8]
    75cc:	39400001 	ldrb	w1, [x0]
    75d0:	34000101 	cbz	w1, 75f0 <setlocale@plt+0x3790>
    75d4:	d503201f 	nop
    75d8:	39400402 	ldrb	w2, [x0, #1]
    75dc:	7100943f 	cmp	w1, #0x25
    75e0:	54001680 	b.eq	78b0 <setlocale@plt+0x3a50>  // b.none
    75e4:	2a0203e1 	mov	w1, w2
    75e8:	91000400 	add	x0, x0, #0x1
    75ec:	35ffff61 	cbnz	w1, 75d8 <setlocale@plt+0x3778>
    75f0:	f94023e1 	ldr	x1, [sp, #64]
    75f4:	d2800000 	mov	x0, #0x0                   	// #0
    75f8:	8b030023 	add	x3, x1, x3
    75fc:	f81f8060 	stur	x0, [x3, #-8]
    7600:	f100049f 	cmp	x4, #0x1
    7604:	54001680 	b.eq	78d4 <setlocale@plt+0x3a74>  // b.none
    7608:	f9402fe0 	ldr	x0, [sp, #88]
    760c:	d2800198 	mov	x24, #0xc                   	// #12
    7610:	b4002380 	cbz	x0, 7a80 <setlocale@plt+0x3c20>
    7614:	9101a3e0 	add	x0, sp, #0x68
    7618:	d2800035 	mov	x21, #0x1                   	// #1
    761c:	f9001fe0 	str	x0, [sp, #56]
    7620:	91039fe0 	add	x0, sp, #0xe7
    7624:	f90027e0 	str	x0, [sp, #72]
    7628:	d280c000 	mov	x0, #0x600                 	// #1536
    762c:	f9000be0 	str	x0, [sp, #16]
    7630:	528001c0 	mov	w0, #0xe                   	// #14
    7634:	f90013ff 	str	xzr, [sp, #32]
    7638:	f9401ff4 	ldr	x20, [sp, #56]
    763c:	72a00040 	movk	w0, #0x2, lsl #16
    7640:	f94027fc 	ldr	x28, [sp, #72]
    7644:	b9002be0 	str	w0, [sp, #40]
    7648:	14000025 	b	76dc <setlocale@plt+0x387c>
    764c:	eb13031f 	cmp	x24, x19
    7650:	54001002 	b.cs	7850 <setlocale@plt+0x39f0>  // b.hs, b.nlast
    7654:	aa1803fb 	mov	x27, x24
    7658:	aa1803f3 	mov	x19, x24
    765c:	b9402fe0 	ldr	w0, [sp, #44]
    7660:	34001440 	cbz	w0, 78e8 <setlocale@plt+0x3a88>
    7664:	f9400be3 	ldr	x3, [sp, #16]
    7668:	d2800019 	mov	x25, #0x0                   	// #0
    766c:	d2800fe2 	mov	x2, #0x7f                  	// #127
    7670:	eb02037f 	cmp	x27, x2
    7674:	3900035f 	strb	wzr, [x26]
    7678:	9a829362 	csel	x2, x27, x2, ls	// ls = plast
    767c:	aa1703e1 	mov	x1, x23
    7680:	aa1a03e0 	mov	x0, x26
    7684:	97fff1b3 	bl	3d50 <__mempcpy_chk@plt>
    7688:	3900001f 	strb	wzr, [x0]
    768c:	f9400fe0 	ldr	x0, [sp, #24]
    7690:	97fff174 	bl	3c60 <free@plt>
    7694:	aa1603e0 	mov	x0, x22
    7698:	97fff172 	bl	3c60 <free@plt>
    769c:	8b190366 	add	x6, x27, x25
    76a0:	f101fcdf 	cmp	x6, #0x7f
    76a4:	540015e8 	b.hi	7960 <setlocale@plt+0x3b00>  // b.pmore
    76a8:	f94013e0 	ldr	x0, [sp, #32]
    76ac:	9102039c 	add	x28, x28, #0x80
    76b0:	b9402be1 	ldr	w1, [sp, #40]
    76b4:	91020294 	add	x20, x20, #0x80
    76b8:	eb13001f 	cmp	x0, x19
    76bc:	9a932000 	csel	x0, x0, x19, cs	// cs = hs, nlast
    76c0:	f90013e0 	str	x0, [sp, #32]
    76c4:	f9400be0 	ldr	x0, [sp, #16]
    76c8:	11000421 	add	w1, w1, #0x1
    76cc:	b9002be1 	str	w1, [sp, #40]
    76d0:	f1020000 	subs	x0, x0, #0x80
    76d4:	f9000be0 	str	x0, [sp, #16]
    76d8:	54001640 	b.eq	79a0 <setlocale@plt+0x3b40>  // b.none
    76dc:	b9402be0 	ldr	w0, [sp, #40]
    76e0:	97fff0c0 	bl	39e0 <nl_langinfo@plt>
    76e4:	aa0003f7 	mov	x23, x0
    76e8:	528004a1 	mov	w1, #0x25                  	// #37
    76ec:	97fff169 	bl	3c90 <strchr@plt>
    76f0:	aa0003f6 	mov	x22, x0
    76f4:	b5001360 	cbnz	x0, 7960 <setlocale@plt+0x3b00>
    76f8:	97fff152 	bl	3c40 <__ctype_b_loc@plt>
    76fc:	aa0003e1 	mov	x1, x0
    7700:	394002e2 	ldrb	w2, [x23]
    7704:	aa1703e0 	mov	x0, x23
    7708:	aa1403fa 	mov	x26, x20
    770c:	f9400021 	ldr	x1, [x1]
    7710:	78627821 	ldrh	w1, [x1, x2, lsl #1]
    7714:	12150021 	and	w1, w1, #0x800
    7718:	b9002fe1 	str	w1, [sp, #44]
    771c:	97fff039 	bl	3800 <strlen@plt>
    7720:	aa0003f3 	mov	x19, x0
    7724:	97fff153 	bl	3c70 <__ctype_get_mb_cur_max@plt>
    7728:	f9000fff 	str	xzr, [sp, #24]
    772c:	aa1303fb 	mov	x27, x19
    7730:	f100041f 	cmp	x0, #0x1
    7734:	54fff8c9 	b.ls	764c <setlocale@plt+0x37ec>  // b.plast
    7738:	aa1703e1 	mov	x1, x23
    773c:	d2800002 	mov	x2, #0x0                   	// #0
    7740:	d2800000 	mov	x0, #0x0                   	// #0
    7744:	97fff037 	bl	3820 <mbstowcs@plt>
    7748:	b100041f 	cmn	x0, #0x1
    774c:	540010a0 	b.eq	7960 <setlocale@plt+0x3b00>  // b.none
    7750:	91000400 	add	x0, x0, #0x1
    7754:	f9001be0 	str	x0, [sp, #48]
    7758:	d37ef419 	lsl	x25, x0, #2
    775c:	aa1903e0 	mov	x0, x25
    7760:	97fff0a4 	bl	39f0 <malloc@plt>
    7764:	f9000fe0 	str	x0, [sp, #24]
    7768:	b4000fc0 	cbz	x0, 7960 <setlocale@plt+0x3b00>
    776c:	f9401be2 	ldr	x2, [sp, #48]
    7770:	d342ff23 	lsr	x3, x25, #2
    7774:	aa1703e1 	mov	x1, x23
    7778:	97fff18a 	bl	3da0 <__mbstowcs_chk@plt>
    777c:	b4fff680 	cbz	x0, 764c <setlocale@plt+0x37ec>
    7780:	f9400ffb 	ldr	x27, [sp, #24]
    7784:	8b190360 	add	x0, x27, x25
    7788:	b81fc01f 	stur	wzr, [x0, #-4]
    778c:	b9400360 	ldr	w0, [x27]
    7790:	340018e0 	cbz	w0, 7aac <setlocale@plt+0x3c4c>
    7794:	52800019 	mov	w25, #0x0                   	// #0
    7798:	97fff192 	bl	3de0 <iswprint@plt>
    779c:	35000080 	cbnz	w0, 77ac <setlocale@plt+0x394c>
    77a0:	529fffa0 	mov	w0, #0xfffd                	// #65533
    77a4:	52800039 	mov	w25, #0x1                   	// #1
    77a8:	b9000360 	str	w0, [x27]
    77ac:	b8404f60 	ldr	w0, [x27, #4]!
    77b0:	35ffff40 	cbnz	w0, 7798 <setlocale@plt+0x3938>
    77b4:	f9400fe0 	ldr	x0, [sp, #24]
    77b8:	f9401be1 	ldr	x1, [sp, #48]
    77bc:	97fff0a1 	bl	3a40 <wcswidth@plt>
    77c0:	35001559 	cbnz	w25, 7a68 <setlocale@plt+0x3c08>
    77c4:	93407c00 	sxtw	x0, w0
    77c8:	eb00031f 	cmp	x24, x0
    77cc:	54001482 	b.cs	7a5c <setlocale@plt+0x3bfc>  // b.hs, b.nlast
    77d0:	91000677 	add	x23, x19, #0x1
    77d4:	aa1703e0 	mov	x0, x23
    77d8:	97fff086 	bl	39f0 <malloc@plt>
    77dc:	aa0003f6 	mov	x22, x0
    77e0:	b4001700 	cbz	x0, 7ac0 <setlocale@plt+0x3c60>
    77e4:	f9400ff9 	ldr	x25, [sp, #24]
    77e8:	d2800013 	mov	x19, #0x0                   	// #0
    77ec:	b9400320 	ldr	w0, [x25]
    77f0:	350000a0 	cbnz	w0, 7804 <setlocale@plt+0x39a4>
    77f4:	1400000e 	b	782c <setlocale@plt+0x39cc>
    77f8:	b8404f20 	ldr	w0, [x25, #4]!
    77fc:	aa0103f3 	mov	x19, x1
    7800:	34000160 	cbz	w0, 782c <setlocale@plt+0x39cc>
    7804:	97fff083 	bl	3a10 <wcwidth@plt>
    7808:	93407c01 	sxtw	x1, w0
    780c:	3100041f 	cmn	w0, #0x1
    7810:	54000081 	b.ne	7820 <setlocale@plt+0x39c0>  // b.any
    7814:	529fffa0 	mov	w0, #0xfffd                	// #65533
    7818:	d2800021 	mov	x1, #0x1                   	// #1
    781c:	b9000320 	str	w0, [x25]
    7820:	8b010261 	add	x1, x19, x1
    7824:	eb01031f 	cmp	x24, x1
    7828:	54fffe82 	b.cs	77f8 <setlocale@plt+0x3998>  // b.hs, b.nlast
    782c:	f9400fe1 	ldr	x1, [sp, #24]
    7830:	b900033f 	str	wzr, [x25]
    7834:	aa1703e2 	mov	x2, x23
    7838:	aa1603e0 	mov	x0, x22
    783c:	aa1603f7 	mov	x23, x22
    7840:	97fff138 	bl	3d20 <wcstombs@plt>
    7844:	aa0003fb 	mov	x27, x0
    7848:	eb13031f 	cmp	x24, x19
    784c:	54fff043 	b.cc	7654 <setlocale@plt+0x37f4>  // b.lo, b.ul, b.last
    7850:	eb13031f 	cmp	x24, x19
    7854:	54fff049 	b.ls	765c <setlocale@plt+0x37fc>  // b.plast
    7858:	b9402fe0 	ldr	w0, [sp, #44]
    785c:	cb130319 	sub	x25, x24, x19
    7860:	34000460 	cbz	w0, 78ec <setlocale@plt+0x3a8c>
    7864:	f9400be3 	ldr	x3, [sp, #16]
    7868:	d280c009 	mov	x9, #0x600                 	// #1536
    786c:	52800408 	mov	w8, #0x20                  	// #32
    7870:	f118007f 	cmp	x3, #0x600
    7874:	d1000460 	sub	x0, x3, #0x1
    7878:	9a892061 	csel	x1, x3, x9, cs	// cs = hs, nlast
    787c:	38001748 	strb	w8, [x26], #1
    7880:	cb030023 	sub	x3, x1, x3
    7884:	91000463 	add	x3, x3, #0x1
    7888:	cb1a0282 	sub	x2, x20, x26
    788c:	eb01007f 	cmp	x3, x1
    7890:	9a812063 	csel	x3, x3, x1, cs	// cs = hs, nlast
    7894:	ab19005f 	cmn	x2, x25
    7898:	cb010063 	sub	x3, x3, x1
    789c:	fa5c1342 	ccmp	x26, x28, #0x2, ne	// ne = any
    78a0:	8b000063 	add	x3, x3, x0
    78a4:	54fffe63 	b.cc	7870 <setlocale@plt+0x3a10>  // b.lo, b.ul, b.last
    78a8:	cb1a0382 	sub	x2, x28, x26
    78ac:	17ffff71 	b	7670 <setlocale@plt+0x3810>
    78b0:	7100945f 	cmp	w2, #0x25
    78b4:	54000140 	b.eq	78dc <setlocale@plt+0x3a7c>  // b.none
    78b8:	7101885f 	cmp	w2, #0x62
    78bc:	54ffe941 	b.ne	75e4 <setlocale@plt+0x3784>  // b.any
    78c0:	f94023e1 	ldr	x1, [sp, #64]
    78c4:	8b030023 	add	x3, x1, x3
    78c8:	f81f8060 	stur	x0, [x3, #-8]
    78cc:	f100049f 	cmp	x4, #0x1
    78d0:	54ffe9c1 	b.ne	7608 <setlocale@plt+0x37a8>  // b.any
    78d4:	d2800044 	mov	x4, #0x2                   	// #2
    78d8:	17ffff3a 	b	75c0 <setlocale@plt+0x3760>
    78dc:	39400801 	ldrb	w1, [x0, #2]
    78e0:	91000400 	add	x0, x0, #0x1
    78e4:	17ffff41 	b	75e8 <setlocale@plt+0x3788>
    78e8:	d2800019 	mov	x25, #0x0                   	// #0
    78ec:	f9400be3 	ldr	x3, [sp, #16]
    78f0:	f101ff7f 	cmp	x27, #0x7f
    78f4:	3900029f 	strb	wzr, [x20]
    78f8:	aa1703e1 	mov	x1, x23
    78fc:	aa1403e0 	mov	x0, x20
    7900:	d2800fe2 	mov	x2, #0x7f                  	// #127
    7904:	9a829362 	csel	x2, x27, x2, ls	// ls = plast
    7908:	97fff112 	bl	3d50 <__mempcpy_chk@plt>
    790c:	f100033f 	cmp	x25, #0x0
    7910:	d1000737 	sub	x23, x25, #0x1
    7914:	fa5c1002 	ccmp	x0, x28, #0x2, ne	// ne = any
    7918:	54ffeb82 	b.cs	7688 <setlocale@plt+0x3828>  // b.hs, b.nlast
    791c:	8b170002 	add	x2, x0, x23
    7920:	52800403 	mov	w3, #0x20                  	// #32
    7924:	d503201f 	nop
    7928:	38001403 	strb	w3, [x0], #1
    792c:	cb0002a1 	sub	x1, x21, x0
    7930:	ab02003f 	cmn	x1, x2
    7934:	fa5c1002 	ccmp	x0, x28, #0x2, ne	// ne = any
    7938:	54ffff83 	b.cc	7928 <setlocale@plt+0x3ac8>  // b.lo, b.ul, b.last
    793c:	3900001f 	strb	wzr, [x0]
    7940:	f9400fe0 	ldr	x0, [sp, #24]
    7944:	97fff0c7 	bl	3c60 <free@plt>
    7948:	aa1603e0 	mov	x0, x22
    794c:	97fff0c5 	bl	3c60 <free@plt>
    7950:	8b190366 	add	x6, x27, x25
    7954:	f101fcdf 	cmp	x6, #0x7f
    7958:	54ffea89 	b.ls	76a8 <setlocale@plt+0x3848>  // b.plast
    795c:	d503201f 	nop
    7960:	90000140 	adrp	x0, 2f000 <_obstack_memory_used@@Base+0x221c0>
    7964:	f947e800 	ldr	x0, [x0, #4048]
    7968:	f94337e2 	ldr	x2, [sp, #1640]
    796c:	f9400001 	ldr	x1, [x0]
    7970:	eb010042 	subs	x2, x2, x1
    7974:	d2800001 	mov	x1, #0x0                   	// #0
    7978:	54000c61 	b.ne	7b04 <setlocale@plt+0x3ca4>  // b.any
    797c:	9119c3ff 	add	sp, sp, #0x670
    7980:	a94153f3 	ldp	x19, x20, [sp, #16]
    7984:	a9425bf5 	ldp	x21, x22, [sp, #32]
    7988:	a94363f7 	ldp	x23, x24, [sp, #48]
    798c:	a9446bf9 	ldp	x25, x26, [sp, #64]
    7990:	a94573fb 	ldp	x27, x28, [sp, #80]
    7994:	a8c67bfd 	ldp	x29, x30, [sp], #96
    7998:	d50323bf 	autiasp
    799c:	d65f03c0 	ret
    79a0:	f94013e0 	ldr	x0, [sp, #32]
    79a4:	eb00031f 	cmp	x24, x0
    79a8:	54000069 	b.ls	79b4 <setlocale@plt+0x3b54>  // b.plast
    79ac:	f94013f8 	ldr	x24, [sp, #32]
    79b0:	17ffff1e 	b	7628 <setlocale@plt+0x37c8>
    79b4:	b0000158 	adrp	x24, 30000 <_obstack_memory_used@@Base+0x231c0>
    79b8:	910ac313 	add	x19, x24, #0x2b0
    79bc:	d0000096 	adrp	x22, 19000 <_obstack_memory_used@@Base+0xc1c0>
    79c0:	900000b7 	adrp	x23, 1b000 <_obstack_memory_used@@Base+0xe1c0>
    79c4:	91008273 	add	x19, x19, #0x20
    79c8:	9127e2d6 	add	x22, x22, #0x9f8
    79cc:	913a22f7 	add	x23, x23, #0xe88
    79d0:	f9400be1 	ldr	x1, [sp, #16]
    79d4:	b0000140 	adrp	x0, 30000 <_obstack_memory_used@@Base+0x231c0>
    79d8:	f94023e2 	ldr	x2, [sp, #64]
    79dc:	91038000 	add	x0, x0, #0xe0
    79e0:	91180273 	add	x19, x19, #0x600
    79e4:	d280c01a 	mov	x26, #0x600                 	// #1536
    79e8:	f861785b 	ldr	x27, [x2, x1, lsl #3]
    79ec:	f8617815 	ldr	x21, [x0, x1, lsl #3]
    79f0:	cb150374 	sub	x20, x27, x21
    79f4:	14000013 	b	7a40 <setlocale@plt+0x3be0>
    79f8:	f102029f 	cmp	x20, #0x80
    79fc:	54fffb2c 	b.gt	7960 <setlocale@plt+0x3b00>
    7a00:	91000b61 	add	x1, x27, #0x2
    7a04:	f90003e1 	str	x1, [sp]
    7a08:	f9401fe1 	ldr	x1, [sp, #56]
    7a0c:	aa1503e6 	mov	x6, x21
    7a10:	2a1403e5 	mov	w5, w20
    7a14:	aa1603e4 	mov	x4, x22
    7a18:	91180027 	add	x7, x1, #0x600
    7a1c:	aa1a03e3 	mov	x3, x26
    7a20:	cb1a00e7 	sub	x7, x7, x26
    7a24:	52800042 	mov	w2, #0x2                   	// #2
    7a28:	d2801001 	mov	x1, #0x80                  	// #128
    7a2c:	97ffefe5 	bl	39c0 <__snprintf_chk@plt>
    7a30:	7101fc1f 	cmp	w0, #0x7f
    7a34:	54fff968 	b.hi	7960 <setlocale@plt+0x3b00>  // b.pmore
    7a38:	f102035a 	subs	x26, x26, #0x80
    7a3c:	54000280 	b.eq	7a8c <setlocale@plt+0x3c2c>  // b.none
    7a40:	cb1a0260 	sub	x0, x19, x26
    7a44:	b5fffdbb 	cbnz	x27, 79f8 <setlocale@plt+0x3b98>
    7a48:	aa1503e3 	mov	x3, x21
    7a4c:	aa1703e2 	mov	x2, x23
    7a50:	d2801001 	mov	x1, #0x80                  	// #128
    7a54:	97ffefc7 	bl	3970 <snprintf@plt>
    7a58:	17fffff6 	b	7a30 <setlocale@plt+0x3bd0>
    7a5c:	aa1303fb 	mov	x27, x19
    7a60:	aa0003f3 	mov	x19, x0
    7a64:	17ffff7b 	b	7850 <setlocale@plt+0x39f0>
    7a68:	f9400fe1 	ldr	x1, [sp, #24]
    7a6c:	d2800002 	mov	x2, #0x0                   	// #0
    7a70:	d2800000 	mov	x0, #0x0                   	// #0
    7a74:	97fff0ab 	bl	3d20 <wcstombs@plt>
    7a78:	91000417 	add	x23, x0, #0x1
    7a7c:	17ffff56 	b	77d4 <setlocale@plt+0x3974>
    7a80:	f94033e0 	ldr	x0, [sp, #96]
    7a84:	b5ffdc80 	cbnz	x0, 7614 <setlocale@plt+0x37b4>
    7a88:	17ffffb6 	b	7960 <setlocale@plt+0x3b00>
    7a8c:	f9400be1 	ldr	x1, [sp, #16]
    7a90:	d2800020 	mov	x0, #0x1                   	// #1
    7a94:	b5000061 	cbnz	x1, 7aa0 <setlocale@plt+0x3c40>
    7a98:	f9000be0 	str	x0, [sp, #16]
    7a9c:	17ffffcd 	b	79d0 <setlocale@plt+0x3b70>
    7aa0:	910ac318 	add	x24, x24, #0x2b0
    7aa4:	39308300 	strb	w0, [x24, #3104]
    7aa8:	17ffffae 	b	7960 <setlocale@plt+0x3b00>
    7aac:	f9400fe0 	ldr	x0, [sp, #24]
    7ab0:	f9401be1 	ldr	x1, [sp, #48]
    7ab4:	97ffefe3 	bl	3a40 <wcswidth@plt>
    7ab8:	93407c00 	sxtw	x0, w0
    7abc:	17ffff43 	b	77c8 <setlocale@plt+0x3968>
    7ac0:	90000140 	adrp	x0, 2f000 <_obstack_memory_used@@Base+0x221c0>
    7ac4:	f947e800 	ldr	x0, [x0, #4048]
    7ac8:	f94337e2 	ldr	x2, [sp, #1640]
    7acc:	f9400001 	ldr	x1, [x0]
    7ad0:	eb010042 	subs	x2, x2, x1
    7ad4:	d2800001 	mov	x1, #0x0                   	// #0
    7ad8:	54000161 	b.ne	7b04 <setlocale@plt+0x3ca4>  // b.any
    7adc:	f9400fe0 	ldr	x0, [sp, #24]
    7ae0:	9119c3ff 	add	sp, sp, #0x670
    7ae4:	a94153f3 	ldp	x19, x20, [sp, #16]
    7ae8:	a9425bf5 	ldp	x21, x22, [sp, #32]
    7aec:	a94363f7 	ldp	x23, x24, [sp, #48]
    7af0:	a9446bf9 	ldp	x25, x26, [sp, #64]
    7af4:	a94573fb 	ldp	x27, x28, [sp, #80]
    7af8:	a8c67bfd 	ldp	x29, x30, [sp], #96
    7afc:	d50323bf 	autiasp
    7b00:	17fff058 	b	3c60 <free@plt>
    7b04:	97fff003 	bl	3b10 <__stack_chk_fail@plt>
    7b08:	d503201f 	nop
    7b0c:	d503201f 	nop
    7b10:	d503233f 	paciasp
    7b14:	a9bd7bfd 	stp	x29, x30, [sp, #-48]!
    7b18:	528000a2 	mov	w2, #0x5                   	// #5
    7b1c:	910003fd 	mov	x29, sp
    7b20:	a90153f3 	stp	x19, x20, [sp, #16]
    7b24:	aa0003f4 	mov	x20, x0
    7b28:	f90013f5 	str	x21, [sp, #32]
    7b2c:	aa0103f5 	mov	x21, x1
    7b30:	aa0003e1 	mov	x1, x0
    7b34:	d2800000 	mov	x0, #0x0                   	// #0
    7b38:	97fff08a 	bl	3d60 <dcgettext@plt>
    7b3c:	aa0003f3 	mov	x19, x0
    7b40:	eb00029f 	cmp	x20, x0
    7b44:	540000e0 	b.eq	7b60 <setlocale@plt+0x3d00>  // b.none
    7b48:	f94013f5 	ldr	x21, [sp, #32]
    7b4c:	aa1303e0 	mov	x0, x19
    7b50:	a94153f3 	ldp	x19, x20, [sp, #16]
    7b54:	a8c37bfd 	ldp	x29, x30, [sp], #48
    7b58:	d50323bf 	autiasp
    7b5c:	d65f03c0 	ret
    7b60:	528001c0 	mov	w0, #0xe                   	// #14
    7b64:	97ffef9f 	bl	39e0 <nl_langinfo@plt>
    7b68:	b4000120 	cbz	x0, 7b8c <setlocale@plt+0x3d2c>
    7b6c:	39400001 	ldrb	w1, [x0]
    7b70:	340004e1 	cbz	w1, 7c0c <setlocale@plt+0x3dac>
    7b74:	d0000081 	adrp	x1, 19000 <_obstack_memory_used@@Base+0xc1c0>
    7b78:	91284022 	add	x2, x1, #0xa10
    7b7c:	eb02001f 	cmp	x0, x2
    7b80:	540000c1 	b.ne	7b98 <setlocale@plt+0x3d38>  // b.any
    7b84:	aa1503f3 	mov	x19, x21
    7b88:	17fffff0 	b	7b48 <setlocale@plt+0x3ce8>
    7b8c:	d0000080 	adrp	x0, 19000 <_obstack_memory_used@@Base+0xc1c0>
    7b90:	91282000 	add	x0, x0, #0xa08
    7b94:	d0000081 	adrp	x1, 19000 <_obstack_memory_used@@Base+0xc1c0>
    7b98:	91284021 	add	x1, x1, #0xa10
    7b9c:	1400000c 	b	7bcc <setlocale@plt+0x3d6c>
    7ba0:	11008045 	add	w5, w2, #0x20
    7ba4:	11008067 	add	w7, w3, #0x20
    7ba8:	12001ca2 	and	w2, w5, #0xff
    7bac:	710064df 	cmp	w6, #0x19
    7bb0:	54000068 	b.hi	7bbc <setlocale@plt+0x3d5c>  // b.pmore
    7bb4:	2a0703e3 	mov	w3, w7
    7bb8:	12001ce4 	and	w4, w7, #0xff
    7bbc:	91000400 	add	x0, x0, #0x1
    7bc0:	91000421 	add	x1, x1, #0x1
    7bc4:	6b04005f 	cmp	w2, w4
    7bc8:	540001c1 	b.ne	7c00 <setlocale@plt+0x3da0>  // b.any
    7bcc:	39400002 	ldrb	w2, [x0]
    7bd0:	39400023 	ldrb	w3, [x1]
    7bd4:	51010447 	sub	w7, w2, #0x41
    7bd8:	2a0203e5 	mov	w5, w2
    7bdc:	2a0303e4 	mov	w4, w3
    7be0:	51010466 	sub	w6, w3, #0x41
    7be4:	710064ff 	cmp	w7, #0x19
    7be8:	54fffdc9 	b.ls	7ba0 <setlocale@plt+0x3d40>  // b.plast
    7bec:	710064df 	cmp	w6, #0x19
    7bf0:	54000048 	b.hi	7bf8 <setlocale@plt+0x3d98>  // b.pmore
    7bf4:	11008063 	add	w3, w3, #0x20
    7bf8:	12001c64 	and	w4, w3, #0xff
    7bfc:	35fffe02 	cbnz	w2, 7bbc <setlocale@plt+0x3d5c>
    7c00:	6b0300bf 	cmp	w5, w3
    7c04:	9a951273 	csel	x19, x19, x21, ne	// ne = any
    7c08:	17ffffd0 	b	7b48 <setlocale@plt+0x3ce8>
    7c0c:	d0000080 	adrp	x0, 19000 <_obstack_memory_used@@Base+0xc1c0>
    7c10:	d0000081 	adrp	x1, 19000 <_obstack_memory_used@@Base+0xc1c0>
    7c14:	91282000 	add	x0, x0, #0xa08
    7c18:	17ffffe0 	b	7b98 <setlocale@plt+0x3d38>
    7c1c:	d503201f 	nop
    7c20:	d503233f 	paciasp
    7c24:	a9b97bfd 	stp	x29, x30, [sp, #-112]!
    7c28:	910003fd 	mov	x29, sp
    7c2c:	a9046bf9 	stp	x25, x26, [sp, #64]
    7c30:	d341fc3a 	lsr	x26, x1, #1
    7c34:	aa0303f9 	mov	x25, x3
    7c38:	a90153f3 	stp	x19, x20, [sp, #16]
    7c3c:	aa0003f4 	mov	x20, x0
    7c40:	8b1a0c13 	add	x19, x0, x26, lsl #3
    7c44:	a9025bf5 	stp	x21, x22, [sp, #32]
    7c48:	a90363f7 	stp	x23, x24, [sp, #48]
    7c4c:	a90573fb 	stp	x27, x28, [sp, #80]
    7c50:	aa0103fb 	mov	x27, x1
    7c54:	cb1a0021 	sub	x1, x1, x26
    7c58:	aa0203fc 	mov	x28, x2
    7c5c:	f100083f 	cmp	x1, #0x2
    7c60:	54000ec8 	b.hi	7e38 <setlocale@plt+0x3fd8>  // b.pmore
    7c64:	540005c0 	b.eq	7d1c <setlocale@plt+0x3ebc>  // b.none
    7c68:	f1000f7f 	cmp	x27, #0x3
    7c6c:	540006e1 	b.ne	7d48 <setlocale@plt+0x3ee8>  // b.any
    7c70:	f9400297 	ldr	x23, [x20]
    7c74:	f9000397 	str	x23, [x28]
    7c78:	f87a7a96 	ldr	x22, [x20, x26, lsl #3]
    7c7c:	aa1703e0 	mov	x0, x23
    7c80:	d2800013 	mov	x19, #0x0                   	// #0
    7c84:	aa1a03f5 	mov	x21, x26
    7c88:	aa1603e1 	mov	x1, x22
    7c8c:	d63f0320 	blr	x25
    7c90:	91000663 	add	x3, x19, #0x1
    7c94:	d2800018 	mov	x24, #0x0                   	// #0
    7c98:	7100001f 	cmp	w0, #0x0
    7c9c:	540001ad 	b.le	7cd0 <setlocale@plt+0x3e70>
    7ca0:	910006b5 	add	x21, x21, #0x1
    7ca4:	f8337a96 	str	x22, [x20, x19, lsl #3]
    7ca8:	eb15037f 	cmp	x27, x21
    7cac:	54000200 	b.eq	7cec <setlocale@plt+0x3e8c>  // b.none
    7cb0:	f8757a96 	ldr	x22, [x20, x21, lsl #3]
    7cb4:	aa0303f3 	mov	x19, x3
    7cb8:	aa1603e1 	mov	x1, x22
    7cbc:	aa1703e0 	mov	x0, x23
    7cc0:	d63f0320 	blr	x25
    7cc4:	91000663 	add	x3, x19, #0x1
    7cc8:	7100001f 	cmp	w0, #0x0
    7ccc:	54fffeac 	b.gt	7ca0 <setlocale@plt+0x3e40>
    7cd0:	91000718 	add	x24, x24, #0x1
    7cd4:	f8337a97 	str	x23, [x20, x19, lsl #3]
    7cd8:	eb18035f 	cmp	x26, x24
    7cdc:	540009e0 	b.eq	7e18 <setlocale@plt+0x3fb8>  // b.none
    7ce0:	f8787b97 	ldr	x23, [x28, x24, lsl #3]
    7ce4:	aa0303f3 	mov	x19, x3
    7ce8:	17fffff4 	b	7cb8 <setlocale@plt+0x3e58>
    7cec:	a9425bf5 	ldp	x21, x22, [sp, #32]
    7cf0:	cb180342 	sub	x2, x26, x24
    7cf4:	a9446bf9 	ldp	x25, x26, [sp, #64]
    7cf8:	8b180f81 	add	x1, x28, x24, lsl #3
    7cfc:	a94363f7 	ldp	x23, x24, [sp, #48]
    7d00:	8b030e80 	add	x0, x20, x3, lsl #3
    7d04:	a94153f3 	ldp	x19, x20, [sp, #16]
    7d08:	d37df042 	lsl	x2, x2, #3
    7d0c:	a94573fb 	ldp	x27, x28, [sp, #80]
    7d10:	a8c77bfd 	ldp	x29, x30, [sp], #112
    7d14:	d50323bf 	autiasp
    7d18:	17ffeea6 	b	37b0 <memcpy@plt>
    7d1c:	f87a7815 	ldr	x21, [x0, x26, lsl #3]
    7d20:	f9400676 	ldr	x22, [x19, #8]
    7d24:	aa1503e0 	mov	x0, x21
    7d28:	aa1603e1 	mov	x1, x22
    7d2c:	d63f0060 	blr	x3
    7d30:	7100001f 	cmp	w0, #0x0
    7d34:	54fff9ad 	b.le	7c68 <setlocale@plt+0x3e08>
    7d38:	f83a7a96 	str	x22, [x20, x26, lsl #3]
    7d3c:	f9000675 	str	x21, [x19, #8]
    7d40:	f1000f7f 	cmp	x27, #0x3
    7d44:	54fff960 	b.eq	7c70 <setlocale@plt+0x3e10>  // b.none
    7d48:	d342ff60 	lsr	x0, x27, #2
    7d4c:	f90037e0 	str	x0, [sp, #104]
    7d50:	cb000341 	sub	x1, x26, x0
    7d54:	d37df013 	lsl	x19, x0, #3
    7d58:	8b130295 	add	x21, x20, x19
    7d5c:	f100083f 	cmp	x1, #0x2
    7d60:	54000808 	b.hi	7e60 <setlocale@plt+0x4000>  // b.pmore
    7d64:	540009a0 	b.eq	7e98 <setlocale@plt+0x4038>  // b.none
    7d68:	f94037e0 	ldr	x0, [sp, #104]
    7d6c:	f100081f 	cmp	x0, #0x2
    7d70:	540006a8 	b.hi	7e44 <setlocale@plt+0x3fe4>  // b.pmore
    7d74:	f9400296 	ldr	x22, [x20]
    7d78:	540007e0 	b.eq	7e74 <setlocale@plt+0x4014>  // b.none
    7d7c:	f94037f5 	ldr	x21, [sp, #104]
    7d80:	d2800017 	mov	x23, #0x0                   	// #0
    7d84:	f8736a98 	ldr	x24, [x20, x19]
    7d88:	aa1c03f3 	mov	x19, x28
    7d8c:	d503201f 	nop
    7d90:	aa1803e1 	mov	x1, x24
    7d94:	aa1603e0 	mov	x0, x22
    7d98:	91002273 	add	x19, x19, #0x8
    7d9c:	d63f0320 	blr	x25
    7da0:	7100001f 	cmp	w0, #0x0
    7da4:	5400018d 	b.le	7dd4 <setlocale@plt+0x3f74>
    7da8:	910006b5 	add	x21, x21, #0x1
    7dac:	f81f8278 	stur	x24, [x19, #-8]
    7db0:	eb15035f 	cmp	x26, x21
    7db4:	54000220 	b.eq	7df8 <setlocale@plt+0x3f98>  // b.none
    7db8:	f8757a98 	ldr	x24, [x20, x21, lsl #3]
    7dbc:	aa1603e0 	mov	x0, x22
    7dc0:	91002273 	add	x19, x19, #0x8
    7dc4:	aa1803e1 	mov	x1, x24
    7dc8:	d63f0320 	blr	x25
    7dcc:	7100001f 	cmp	w0, #0x0
    7dd0:	54fffecc 	b.gt	7da8 <setlocale@plt+0x3f48>
    7dd4:	f94037e0 	ldr	x0, [sp, #104]
    7dd8:	910006f7 	add	x23, x23, #0x1
    7ddc:	f81f8276 	stur	x22, [x19, #-8]
    7de0:	eb17001f 	cmp	x0, x23
    7de4:	54000060 	b.eq	7df0 <setlocale@plt+0x3f90>  // b.none
    7de8:	f8777a96 	ldr	x22, [x20, x23, lsl #3]
    7dec:	17ffffe9 	b	7d90 <setlocale@plt+0x3f30>
    7df0:	aa1503f7 	mov	x23, x21
    7df4:	f90037fa 	str	x26, [sp, #104]
    7df8:	f94037e0 	ldr	x0, [sp, #104]
    7dfc:	8b170e81 	add	x1, x20, x23, lsl #3
    7e00:	cb170002 	sub	x2, x0, x23
    7e04:	aa1303e0 	mov	x0, x19
    7e08:	d37df042 	lsl	x2, x2, #3
    7e0c:	97ffee69 	bl	37b0 <memcpy@plt>
    7e10:	f9400397 	ldr	x23, [x28]
    7e14:	17ffff99 	b	7c78 <setlocale@plt+0x3e18>
    7e18:	a94153f3 	ldp	x19, x20, [sp, #16]
    7e1c:	a9425bf5 	ldp	x21, x22, [sp, #32]
    7e20:	a94363f7 	ldp	x23, x24, [sp, #48]
    7e24:	a9446bf9 	ldp	x25, x26, [sp, #64]
    7e28:	a94573fb 	ldp	x27, x28, [sp, #80]
    7e2c:	a8c77bfd 	ldp	x29, x30, [sp], #112
    7e30:	d50323bf 	autiasp
    7e34:	d65f03c0 	ret
    7e38:	aa1303e0 	mov	x0, x19
    7e3c:	97ffff79 	bl	7c20 <setlocale@plt+0x3dc0>
    7e40:	17ffff8a 	b	7c68 <setlocale@plt+0x3e08>
    7e44:	f94037e1 	ldr	x1, [sp, #104]
    7e48:	aa1903e3 	mov	x3, x25
    7e4c:	aa1c03e2 	mov	x2, x28
    7e50:	aa1403e0 	mov	x0, x20
    7e54:	97ffff73 	bl	7c20 <setlocale@plt+0x3dc0>
    7e58:	f9400296 	ldr	x22, [x20]
    7e5c:	17ffffc8 	b	7d7c <setlocale@plt+0x3f1c>
    7e60:	aa1503e0 	mov	x0, x21
    7e64:	aa1903e3 	mov	x3, x25
    7e68:	aa1c03e2 	mov	x2, x28
    7e6c:	97ffff6d 	bl	7c20 <setlocale@plt+0x3dc0>
    7e70:	17ffffbe 	b	7d68 <setlocale@plt+0x3f08>
    7e74:	f9400695 	ldr	x21, [x20, #8]
    7e78:	aa1603e0 	mov	x0, x22
    7e7c:	aa1503e1 	mov	x1, x21
    7e80:	d63f0320 	blr	x25
    7e84:	7100001f 	cmp	w0, #0x0
    7e88:	54fffe8d 	b.le	7e58 <setlocale@plt+0x3ff8>
    7e8c:	a9005a95 	stp	x21, x22, [x20]
    7e90:	aa1503f6 	mov	x22, x21
    7e94:	17ffffba 	b	7d7c <setlocale@plt+0x3f1c>
    7e98:	f8736a96 	ldr	x22, [x20, x19]
    7e9c:	f94006b7 	ldr	x23, [x21, #8]
    7ea0:	aa1603e0 	mov	x0, x22
    7ea4:	aa1703e1 	mov	x1, x23
    7ea8:	d63f0320 	blr	x25
    7eac:	7100001f 	cmp	w0, #0x0
    7eb0:	54fff5cd 	b.le	7d68 <setlocale@plt+0x3f08>
    7eb4:	f8336a97 	str	x23, [x20, x19]
    7eb8:	f90006b6 	str	x22, [x21, #8]
    7ebc:	17ffffab 	b	7d68 <setlocale@plt+0x3f08>
    7ec0:	d503233f 	paciasp
    7ec4:	a9bd7bfd 	stp	x29, x30, [sp, #-48]!
    7ec8:	910003fd 	mov	x29, sp
    7ecc:	a90153f3 	stp	x19, x20, [sp, #16]
    7ed0:	b40003c0 	cbz	x0, 7f48 <setlocale@plt+0x40e8>
    7ed4:	a9025bf5 	stp	x21, x22, [sp, #32]
    7ed8:	aa0003f6 	mov	x22, x0
    7edc:	97ffee49 	bl	3800 <strlen@plt>
    7ee0:	91000415 	add	x21, x0, #0x1
    7ee4:	d2800ed4 	mov	x20, #0x76                  	// #118
    7ee8:	eb1402bf 	cmp	x21, x20
    7eec:	9a9422b4 	csel	x20, x21, x20, cs	// cs = hs, nlast
    7ef0:	91004694 	add	x20, x20, #0x11
    7ef4:	927df294 	and	x20, x20, #0xfffffffffffffff8
    7ef8:	aa1403e0 	mov	x0, x20
    7efc:	97ffeebd 	bl	39f0 <malloc@plt>
    7f00:	aa0003f3 	mov	x19, x0
    7f04:	b4000160 	cbz	x0, 7f30 <setlocale@plt+0x40d0>
    7f08:	91002664 	add	x4, x19, #0x9
    7f0c:	52800020 	mov	w0, #0x1                   	// #1
    7f10:	f900027f 	str	xzr, [x19]
    7f14:	d1002683 	sub	x3, x20, #0x9
    7f18:	79001260 	strh	w0, [x19, #8]
    7f1c:	aa1603e1 	mov	x1, x22
    7f20:	aa0403e0 	mov	x0, x4
    7f24:	aa1503e2 	mov	x2, x21
    7f28:	97ffee9e 	bl	39a0 <__memcpy_chk@plt>
    7f2c:	3835681f 	strb	wzr, [x0, x21]
    7f30:	a9425bf5 	ldp	x21, x22, [sp, #32]
    7f34:	aa1303e0 	mov	x0, x19
    7f38:	a94153f3 	ldp	x19, x20, [sp, #16]
    7f3c:	a8c37bfd 	ldp	x29, x30, [sp], #48
    7f40:	d50323bf 	autiasp
    7f44:	d65f03c0 	ret
    7f48:	d2801000 	mov	x0, #0x80                  	// #128
    7f4c:	97ffeea9 	bl	39f0 <malloc@plt>
    7f50:	aa0003f3 	mov	x19, x0
    7f54:	b4ffff00 	cbz	x0, 7f34 <setlocale@plt+0x40d4>
    7f58:	f900001f 	str	xzr, [x0]
    7f5c:	7900101f 	strh	wzr, [x0, #8]
    7f60:	aa1303e0 	mov	x0, x19
    7f64:	a94153f3 	ldp	x19, x20, [sp, #16]
    7f68:	a8c37bfd 	ldp	x29, x30, [sp], #48
    7f6c:	d50323bf 	autiasp
    7f70:	d65f03c0 	ret
    7f74:	d503233f 	paciasp
    7f78:	d10083ff 	sub	sp, sp, #0x20
    7f7c:	90000141 	adrp	x1, 2f000 <_obstack_memory_used@@Base+0x221c0>
    7f80:	f947e821 	ldr	x1, [x1, #4048]
    7f84:	d0000083 	adrp	x3, 19000 <_obstack_memory_used@@Base+0xc1c0>
    7f88:	a9017bfd 	stp	x29, x30, [sp, #16]
    7f8c:	910043fd 	add	x29, sp, #0x10
    7f90:	910003e2 	mov	x2, sp
    7f94:	f9400024 	ldr	x4, [x1]
    7f98:	f90007e4 	str	x4, [sp, #8]
    7f9c:	d2800004 	mov	x4, #0x0                   	// #0
    7fa0:	912a0063 	add	x3, x3, #0xa80
    7fa4:	d2800001 	mov	x1, #0x0                   	// #0
    7fa8:	9400228a 	bl	109d0 <_obstack_memory_used@@Base+0x3b90>
    7fac:	340001c0 	cbz	w0, 7fe4 <setlocale@plt+0x4184>
    7fb0:	7100041f 	cmp	w0, #0x1
    7fb4:	da9f03e0 	csetm	x0, ne	// ne = any
    7fb8:	90000141 	adrp	x1, 2f000 <_obstack_memory_used@@Base+0x221c0>
    7fbc:	f947e821 	ldr	x1, [x1, #4048]
    7fc0:	f94007e3 	ldr	x3, [sp, #8]
    7fc4:	f9400022 	ldr	x2, [x1]
    7fc8:	eb020063 	subs	x3, x3, x2
    7fcc:	d2800002 	mov	x2, #0x0                   	// #0
    7fd0:	54000121 	b.ne	7ff4 <setlocale@plt+0x4194>  // b.any
    7fd4:	a9417bfd 	ldp	x29, x30, [sp, #16]
    7fd8:	910083ff 	add	sp, sp, #0x20
    7fdc:	d50323bf 	autiasp
    7fe0:	d65f03c0 	ret
    7fe4:	f94003e0 	ldr	x0, [sp]
    7fe8:	f100001f 	cmp	x0, #0x0
    7fec:	9a9fa000 	csel	x0, x0, xzr, ge	// ge = tcont
    7ff0:	17fffff2 	b	7fb8 <setlocale@plt+0x4158>
    7ff4:	97ffeec7 	bl	3b10 <__stack_chk_fail@plt>
    7ff8:	d503201f 	nop
    7ffc:	d503201f 	nop
    8000:	d503233f 	paciasp
    8004:	d10303ff 	sub	sp, sp, #0xc0
    8008:	f0000122 	adrp	x2, 2f000 <_obstack_memory_used@@Base+0x221c0>
    800c:	f947e842 	ldr	x2, [x2, #4048]
    8010:	90000141 	adrp	x1, 30000 <_obstack_memory_used@@Base+0x231c0>
    8014:	a9087bfd 	stp	x29, x30, [sp, #128]
    8018:	910203fd 	add	x29, sp, #0x80
    801c:	a90953f3 	stp	x19, x20, [sp, #144]
    8020:	2a0003f4 	mov	w20, w0
    8024:	a90a5bf5 	stp	x21, x22, [sp, #160]
    8028:	f9005bf7 	str	x23, [sp, #176]
    802c:	f9476c33 	ldr	x19, [x1, #3800]
    8030:	f9400043 	ldr	x3, [x2]
    8034:	f9003fe3 	str	x3, [sp, #120]
    8038:	d2800003 	mov	x3, #0x0                   	// #0
    803c:	34000200 	cbz	w0, 807c <setlocale@plt+0x421c>
    8040:	f0000123 	adrp	x3, 2f000 <_obstack_memory_used@@Base+0x221c0>
    8044:	f947d063 	ldr	x3, [x3, #4000]
    8048:	528000a2 	mov	w2, #0x5                   	// #5
    804c:	b0000081 	adrp	x1, 19000 <_obstack_memory_used@@Base+0xc1c0>
    8050:	d2800000 	mov	x0, #0x0                   	// #0
    8054:	9128e021 	add	x1, x1, #0xa38
    8058:	f9400075 	ldr	x21, [x3]
    805c:	97ffef41 	bl	3d60 <dcgettext@plt>
    8060:	aa1303e3 	mov	x3, x19
    8064:	aa0003e2 	mov	x2, x0
    8068:	52800041 	mov	w1, #0x2                   	// #2
    806c:	aa1503e0 	mov	x0, x21
    8070:	97ffeee4 	bl	3c00 <__fprintf_chk@plt>
    8074:	2a1403e0 	mov	w0, w20
    8078:	97ffedee 	bl	3830 <exit@plt>
    807c:	528000a2 	mov	w2, #0x5                   	// #5
    8080:	b0000081 	adrp	x1, 19000 <_obstack_memory_used@@Base+0xc1c0>
    8084:	d2800000 	mov	x0, #0x0                   	// #0
    8088:	91298021 	add	x1, x1, #0xa60
    808c:	97ffef35 	bl	3d60 <dcgettext@plt>
    8090:	aa0003e1 	mov	x1, x0
    8094:	aa1303e2 	mov	x2, x19
    8098:	52800040 	mov	w0, #0x2                   	// #2
    809c:	f0000133 	adrp	x19, 2f000 <_obstack_memory_used@@Base+0x221c0>
    80a0:	f947e273 	ldr	x19, [x19, #4032]
    80a4:	97ffee77 	bl	3a80 <__printf_chk@plt>
    80a8:	528000a2 	mov	w2, #0x5                   	// #5
    80ac:	b0000081 	adrp	x1, 19000 <_obstack_memory_used@@Base+0xc1c0>
    80b0:	d2800000 	mov	x0, #0x0                   	// #0
    80b4:	912a2021 	add	x1, x1, #0xa88
    80b8:	97ffef2a 	bl	3d60 <dcgettext@plt>
    80bc:	f9400261 	ldr	x1, [x19]
    80c0:	97ffef2c 	bl	3d70 <fputs_unlocked@plt>
    80c4:	528000a2 	mov	w2, #0x5                   	// #5
    80c8:	b0000081 	adrp	x1, 19000 <_obstack_memory_used@@Base+0xc1c0>
    80cc:	d2800000 	mov	x0, #0x0                   	// #0
    80d0:	912c6021 	add	x1, x1, #0xb18
    80d4:	97ffef23 	bl	3d60 <dcgettext@plt>
    80d8:	f9400261 	ldr	x1, [x19]
    80dc:	97ffef25 	bl	3d70 <fputs_unlocked@plt>
    80e0:	528000a2 	mov	w2, #0x5                   	// #5
    80e4:	b0000081 	adrp	x1, 19000 <_obstack_memory_used@@Base+0xc1c0>
    80e8:	d2800000 	mov	x0, #0x0                   	// #0
    80ec:	912da021 	add	x1, x1, #0xb68
    80f0:	97ffef1c 	bl	3d60 <dcgettext@plt>
    80f4:	f9400261 	ldr	x1, [x19]
    80f8:	97ffef1e 	bl	3d70 <fputs_unlocked@plt>
    80fc:	528000a2 	mov	w2, #0x5                   	// #5
    8100:	b0000081 	adrp	x1, 19000 <_obstack_memory_used@@Base+0xc1c0>
    8104:	d2800000 	mov	x0, #0x0                   	// #0
    8108:	9131e021 	add	x1, x1, #0xc78
    810c:	97ffef15 	bl	3d60 <dcgettext@plt>
    8110:	f9400261 	ldr	x1, [x19]
    8114:	97ffef17 	bl	3d70 <fputs_unlocked@plt>
    8118:	528000a2 	mov	w2, #0x5                   	// #5
    811c:	b0000081 	adrp	x1, 19000 <_obstack_memory_used@@Base+0xc1c0>
    8120:	d2800000 	mov	x0, #0x0                   	// #0
    8124:	91346021 	add	x1, x1, #0xd18
    8128:	97ffef0e 	bl	3d60 <dcgettext@plt>
    812c:	f9400261 	ldr	x1, [x19]
    8130:	97ffef10 	bl	3d70 <fputs_unlocked@plt>
    8134:	528000a2 	mov	w2, #0x5                   	// #5
    8138:	b0000081 	adrp	x1, 19000 <_obstack_memory_used@@Base+0xc1c0>
    813c:	d2800000 	mov	x0, #0x0                   	// #0
    8140:	91358021 	add	x1, x1, #0xd60
    8144:	97ffef07 	bl	3d60 <dcgettext@plt>
    8148:	f9400261 	ldr	x1, [x19]
    814c:	97ffef09 	bl	3d70 <fputs_unlocked@plt>
    8150:	528000a2 	mov	w2, #0x5                   	// #5
    8154:	b0000081 	adrp	x1, 19000 <_obstack_memory_used@@Base+0xc1c0>
    8158:	d2800000 	mov	x0, #0x0                   	// #0
    815c:	9139e021 	add	x1, x1, #0xe78
    8160:	97ffef00 	bl	3d60 <dcgettext@plt>
    8164:	f9400261 	ldr	x1, [x19]
    8168:	97ffef02 	bl	3d70 <fputs_unlocked@plt>
    816c:	528000a2 	mov	w2, #0x5                   	// #5
    8170:	b0000081 	adrp	x1, 19000 <_obstack_memory_used@@Base+0xc1c0>
    8174:	d2800000 	mov	x0, #0x0                   	// #0
    8178:	913e4021 	add	x1, x1, #0xf90
    817c:	97ffeef9 	bl	3d60 <dcgettext@plt>
    8180:	f9400261 	ldr	x1, [x19]
    8184:	97ffeefb 	bl	3d70 <fputs_unlocked@plt>
    8188:	528000a2 	mov	w2, #0x5                   	// #5
    818c:	d0000081 	adrp	x1, 1a000 <_obstack_memory_used@@Base+0xd1c0>
    8190:	d2800000 	mov	x0, #0x0                   	// #0
    8194:	91018021 	add	x1, x1, #0x60
    8198:	97ffeef2 	bl	3d60 <dcgettext@plt>
    819c:	f9400261 	ldr	x1, [x19]
    81a0:	97ffeef4 	bl	3d70 <fputs_unlocked@plt>
    81a4:	528000a2 	mov	w2, #0x5                   	// #5
    81a8:	d0000081 	adrp	x1, 1a000 <_obstack_memory_used@@Base+0xd1c0>
    81ac:	d2800000 	mov	x0, #0x0                   	// #0
    81b0:	9103e021 	add	x1, x1, #0xf8
    81b4:	97ffeeeb 	bl	3d60 <dcgettext@plt>
    81b8:	f9400261 	ldr	x1, [x19]
    81bc:	97ffeeed 	bl	3d70 <fputs_unlocked@plt>
    81c0:	528000a2 	mov	w2, #0x5                   	// #5
    81c4:	d0000081 	adrp	x1, 1a000 <_obstack_memory_used@@Base+0xd1c0>
    81c8:	d2800000 	mov	x0, #0x0                   	// #0
    81cc:	9104e021 	add	x1, x1, #0x138
    81d0:	97ffeee4 	bl	3d60 <dcgettext@plt>
    81d4:	f9400261 	ldr	x1, [x19]
    81d8:	97ffeee6 	bl	3d70 <fputs_unlocked@plt>
    81dc:	528000a2 	mov	w2, #0x5                   	// #5
    81e0:	d0000081 	adrp	x1, 1a000 <_obstack_memory_used@@Base+0xd1c0>
    81e4:	d2800000 	mov	x0, #0x0                   	// #0
    81e8:	9105e021 	add	x1, x1, #0x178
    81ec:	97ffeedd 	bl	3d60 <dcgettext@plt>
    81f0:	f9400261 	ldr	x1, [x19]
    81f4:	97ffeedf 	bl	3d70 <fputs_unlocked@plt>
    81f8:	528000a2 	mov	w2, #0x5                   	// #5
    81fc:	d0000081 	adrp	x1, 1a000 <_obstack_memory_used@@Base+0xd1c0>
    8200:	d2800000 	mov	x0, #0x0                   	// #0
    8204:	9109c021 	add	x1, x1, #0x270
    8208:	97ffeed6 	bl	3d60 <dcgettext@plt>
    820c:	f9400261 	ldr	x1, [x19]
    8210:	97ffeed8 	bl	3d70 <fputs_unlocked@plt>
    8214:	528000a2 	mov	w2, #0x5                   	// #5
    8218:	d0000081 	adrp	x1, 1a000 <_obstack_memory_used@@Base+0xd1c0>
    821c:	d2800000 	mov	x0, #0x0                   	// #0
    8220:	910b0021 	add	x1, x1, #0x2c0
    8224:	97ffeecf 	bl	3d60 <dcgettext@plt>
    8228:	f9400261 	ldr	x1, [x19]
    822c:	97ffeed1 	bl	3d70 <fputs_unlocked@plt>
    8230:	528000a2 	mov	w2, #0x5                   	// #5
    8234:	d0000081 	adrp	x1, 1a000 <_obstack_memory_used@@Base+0xd1c0>
    8238:	d2800000 	mov	x0, #0x0                   	// #0
    823c:	910d6021 	add	x1, x1, #0x358
    8240:	97ffeec8 	bl	3d60 <dcgettext@plt>
    8244:	f9400261 	ldr	x1, [x19]
    8248:	97ffeeca 	bl	3d70 <fputs_unlocked@plt>
    824c:	528000a2 	mov	w2, #0x5                   	// #5
    8250:	d0000081 	adrp	x1, 1a000 <_obstack_memory_used@@Base+0xd1c0>
    8254:	d2800000 	mov	x0, #0x0                   	// #0
    8258:	910f2021 	add	x1, x1, #0x3c8
    825c:	97ffeec1 	bl	3d60 <dcgettext@plt>
    8260:	f9400261 	ldr	x1, [x19]
    8264:	97ffeec3 	bl	3d70 <fputs_unlocked@plt>
    8268:	528000a2 	mov	w2, #0x5                   	// #5
    826c:	d0000081 	adrp	x1, 1a000 <_obstack_memory_used@@Base+0xd1c0>
    8270:	d2800000 	mov	x0, #0x0                   	// #0
    8274:	9111e021 	add	x1, x1, #0x478
    8278:	97ffeeba 	bl	3d60 <dcgettext@plt>
    827c:	f9400261 	ldr	x1, [x19]
    8280:	97ffeebc 	bl	3d70 <fputs_unlocked@plt>
    8284:	528000a2 	mov	w2, #0x5                   	// #5
    8288:	d0000081 	adrp	x1, 1a000 <_obstack_memory_used@@Base+0xd1c0>
    828c:	d2800000 	mov	x0, #0x0                   	// #0
    8290:	91140021 	add	x1, x1, #0x500
    8294:	97ffeeb3 	bl	3d60 <dcgettext@plt>
    8298:	f9400261 	ldr	x1, [x19]
    829c:	97ffeeb5 	bl	3d70 <fputs_unlocked@plt>
    82a0:	528000a2 	mov	w2, #0x5                   	// #5
    82a4:	d0000081 	adrp	x1, 1a000 <_obstack_memory_used@@Base+0xd1c0>
    82a8:	d2800000 	mov	x0, #0x0                   	// #0
    82ac:	9114e021 	add	x1, x1, #0x538
    82b0:	97ffeeac 	bl	3d60 <dcgettext@plt>
    82b4:	f9400261 	ldr	x1, [x19]
    82b8:	97ffeeae 	bl	3d70 <fputs_unlocked@plt>
    82bc:	528000a2 	mov	w2, #0x5                   	// #5
    82c0:	d0000081 	adrp	x1, 1a000 <_obstack_memory_used@@Base+0xd1c0>
    82c4:	d2800000 	mov	x0, #0x0                   	// #0
    82c8:	9118a021 	add	x1, x1, #0x628
    82cc:	97ffeea5 	bl	3d60 <dcgettext@plt>
    82d0:	f9400261 	ldr	x1, [x19]
    82d4:	97ffeea7 	bl	3d70 <fputs_unlocked@plt>
    82d8:	528000a2 	mov	w2, #0x5                   	// #5
    82dc:	d0000081 	adrp	x1, 1a000 <_obstack_memory_used@@Base+0xd1c0>
    82e0:	d2800000 	mov	x0, #0x0                   	// #0
    82e4:	911b0021 	add	x1, x1, #0x6c0
    82e8:	97ffee9e 	bl	3d60 <dcgettext@plt>
    82ec:	f9400261 	ldr	x1, [x19]
    82f0:	97ffeea0 	bl	3d70 <fputs_unlocked@plt>
    82f4:	528000a2 	mov	w2, #0x5                   	// #5
    82f8:	d0000081 	adrp	x1, 1a000 <_obstack_memory_used@@Base+0xd1c0>
    82fc:	d2800000 	mov	x0, #0x0                   	// #0
    8300:	911d8021 	add	x1, x1, #0x760
    8304:	97ffee97 	bl	3d60 <dcgettext@plt>
    8308:	f9400261 	ldr	x1, [x19]
    830c:	97ffee99 	bl	3d70 <fputs_unlocked@plt>
    8310:	528000a2 	mov	w2, #0x5                   	// #5
    8314:	d0000081 	adrp	x1, 1a000 <_obstack_memory_used@@Base+0xd1c0>
    8318:	d2800000 	mov	x0, #0x0                   	// #0
    831c:	911e6021 	add	x1, x1, #0x798
    8320:	97ffee90 	bl	3d60 <dcgettext@plt>
    8324:	f9400261 	ldr	x1, [x19]
    8328:	97ffee92 	bl	3d70 <fputs_unlocked@plt>
    832c:	528000a2 	mov	w2, #0x5                   	// #5
    8330:	d0000081 	adrp	x1, 1a000 <_obstack_memory_used@@Base+0xd1c0>
    8334:	d2800000 	mov	x0, #0x0                   	// #0
    8338:	9121e021 	add	x1, x1, #0x878
    833c:	97ffee89 	bl	3d60 <dcgettext@plt>
    8340:	f9400261 	ldr	x1, [x19]
    8344:	97ffee8b 	bl	3d70 <fputs_unlocked@plt>
    8348:	528000a2 	mov	w2, #0x5                   	// #5
    834c:	d0000081 	adrp	x1, 1a000 <_obstack_memory_used@@Base+0xd1c0>
    8350:	d2800000 	mov	x0, #0x0                   	// #0
    8354:	91232021 	add	x1, x1, #0x8c8
    8358:	97ffee82 	bl	3d60 <dcgettext@plt>
    835c:	f9400261 	ldr	x1, [x19]
    8360:	97ffee84 	bl	3d70 <fputs_unlocked@plt>
    8364:	528000a2 	mov	w2, #0x5                   	// #5
    8368:	d0000081 	adrp	x1, 1a000 <_obstack_memory_used@@Base+0xd1c0>
    836c:	d2800000 	mov	x0, #0x0                   	// #0
    8370:	9127e021 	add	x1, x1, #0x9f8
    8374:	97ffee7b 	bl	3d60 <dcgettext@plt>
    8378:	f9400261 	ldr	x1, [x19]
    837c:	97ffee7d 	bl	3d70 <fputs_unlocked@plt>
    8380:	528000a2 	mov	w2, #0x5                   	// #5
    8384:	d0000081 	adrp	x1, 1a000 <_obstack_memory_used@@Base+0xd1c0>
    8388:	d2800000 	mov	x0, #0x0                   	// #0
    838c:	91290021 	add	x1, x1, #0xa40
    8390:	97ffee74 	bl	3d60 <dcgettext@plt>
    8394:	f9400261 	ldr	x1, [x19]
    8398:	97ffee76 	bl	3d70 <fputs_unlocked@plt>
    839c:	528000a2 	mov	w2, #0x5                   	// #5
    83a0:	d0000081 	adrp	x1, 1a000 <_obstack_memory_used@@Base+0xd1c0>
    83a4:	d2800000 	mov	x0, #0x0                   	// #0
    83a8:	912b8021 	add	x1, x1, #0xae0
    83ac:	97ffee6d 	bl	3d60 <dcgettext@plt>
    83b0:	f9400261 	ldr	x1, [x19]
    83b4:	97ffee6f 	bl	3d70 <fputs_unlocked@plt>
    83b8:	528000a2 	mov	w2, #0x5                   	// #5
    83bc:	d0000081 	adrp	x1, 1a000 <_obstack_memory_used@@Base+0xd1c0>
    83c0:	d2800000 	mov	x0, #0x0                   	// #0
    83c4:	912ca021 	add	x1, x1, #0xb28
    83c8:	97ffee66 	bl	3d60 <dcgettext@plt>
    83cc:	f9400261 	ldr	x1, [x19]
    83d0:	97ffee68 	bl	3d70 <fputs_unlocked@plt>
    83d4:	528000a2 	mov	w2, #0x5                   	// #5
    83d8:	d0000081 	adrp	x1, 1a000 <_obstack_memory_used@@Base+0xd1c0>
    83dc:	d2800000 	mov	x0, #0x0                   	// #0
    83e0:	91312021 	add	x1, x1, #0xc48
    83e4:	97ffee5f 	bl	3d60 <dcgettext@plt>
    83e8:	f9400261 	ldr	x1, [x19]
    83ec:	97ffee61 	bl	3d70 <fputs_unlocked@plt>
    83f0:	528000a2 	mov	w2, #0x5                   	// #5
    83f4:	d0000081 	adrp	x1, 1a000 <_obstack_memory_used@@Base+0xd1c0>
    83f8:	d2800000 	mov	x0, #0x0                   	// #0
    83fc:	91344021 	add	x1, x1, #0xd10
    8400:	97ffee58 	bl	3d60 <dcgettext@plt>
    8404:	f9400261 	ldr	x1, [x19]
    8408:	97ffee5a 	bl	3d70 <fputs_unlocked@plt>
    840c:	528000a2 	mov	w2, #0x5                   	// #5
    8410:	d0000081 	adrp	x1, 1a000 <_obstack_memory_used@@Base+0xd1c0>
    8414:	d2800000 	mov	x0, #0x0                   	// #0
    8418:	91354021 	add	x1, x1, #0xd50
    841c:	97ffee51 	bl	3d60 <dcgettext@plt>
    8420:	f9400261 	ldr	x1, [x19]
    8424:	97ffee53 	bl	3d70 <fputs_unlocked@plt>
    8428:	528000a2 	mov	w2, #0x5                   	// #5
    842c:	d0000081 	adrp	x1, 1a000 <_obstack_memory_used@@Base+0xd1c0>
    8430:	d2800000 	mov	x0, #0x0                   	// #0
    8434:	9137c021 	add	x1, x1, #0xdf0
    8438:	97ffee4a 	bl	3d60 <dcgettext@plt>
    843c:	f9400261 	ldr	x1, [x19]
    8440:	97ffee4c 	bl	3d70 <fputs_unlocked@plt>
    8444:	528000a2 	mov	w2, #0x5                   	// #5
    8448:	d0000081 	adrp	x1, 1a000 <_obstack_memory_used@@Base+0xd1c0>
    844c:	d2800000 	mov	x0, #0x0                   	// #0
    8450:	913fc021 	add	x1, x1, #0xff0
    8454:	97ffee43 	bl	3d60 <dcgettext@plt>
    8458:	f9400261 	ldr	x1, [x19]
    845c:	97ffee45 	bl	3d70 <fputs_unlocked@plt>
    8460:	528000a2 	mov	w2, #0x5                   	// #5
    8464:	f0000081 	adrp	x1, 1b000 <_obstack_memory_used@@Base+0xe1c0>
    8468:	d2800000 	mov	x0, #0x0                   	// #0
    846c:	91018021 	add	x1, x1, #0x60
    8470:	97ffee3c 	bl	3d60 <dcgettext@plt>
    8474:	f9400261 	ldr	x1, [x19]
    8478:	97ffee3e 	bl	3d70 <fputs_unlocked@plt>
    847c:	528000a2 	mov	w2, #0x5                   	// #5
    8480:	f0000081 	adrp	x1, 1b000 <_obstack_memory_used@@Base+0xe1c0>
    8484:	d2800000 	mov	x0, #0x0                   	// #0
    8488:	9103c021 	add	x1, x1, #0xf0
    848c:	97ffee35 	bl	3d60 <dcgettext@plt>
    8490:	f9400261 	ldr	x1, [x19]
    8494:	97ffee37 	bl	3d70 <fputs_unlocked@plt>
    8498:	528000a2 	mov	w2, #0x5                   	// #5
    849c:	f0000081 	adrp	x1, 1b000 <_obstack_memory_used@@Base+0xe1c0>
    84a0:	d2800000 	mov	x0, #0x0                   	// #0
    84a4:	91074021 	add	x1, x1, #0x1d0
    84a8:	97ffee2e 	bl	3d60 <dcgettext@plt>
    84ac:	f9400261 	ldr	x1, [x19]
    84b0:	97ffee30 	bl	3d70 <fputs_unlocked@plt>
    84b4:	528000a2 	mov	w2, #0x5                   	// #5
    84b8:	f0000081 	adrp	x1, 1b000 <_obstack_memory_used@@Base+0xe1c0>
    84bc:	d2800000 	mov	x0, #0x0                   	// #0
    84c0:	91088021 	add	x1, x1, #0x220
    84c4:	97ffee27 	bl	3d60 <dcgettext@plt>
    84c8:	f9400261 	ldr	x1, [x19]
    84cc:	97ffee29 	bl	3d70 <fputs_unlocked@plt>
    84d0:	528000a2 	mov	w2, #0x5                   	// #5
    84d4:	f0000081 	adrp	x1, 1b000 <_obstack_memory_used@@Base+0xe1c0>
    84d8:	d2800000 	mov	x0, #0x0                   	// #0
    84dc:	9109c021 	add	x1, x1, #0x270
    84e0:	97ffee20 	bl	3d60 <dcgettext@plt>
    84e4:	f9400261 	ldr	x1, [x19]
    84e8:	97ffee22 	bl	3d70 <fputs_unlocked@plt>
    84ec:	528000a2 	mov	w2, #0x5                   	// #5
    84f0:	f0000081 	adrp	x1, 1b000 <_obstack_memory_used@@Base+0xe1c0>
    84f4:	d2800000 	mov	x0, #0x0                   	// #0
    84f8:	91102021 	add	x1, x1, #0x408
    84fc:	97ffee19 	bl	3d60 <dcgettext@plt>
    8500:	f9400261 	ldr	x1, [x19]
    8504:	97ffee1b 	bl	3d70 <fputs_unlocked@plt>
    8508:	528000a2 	mov	w2, #0x5                   	// #5
    850c:	f0000081 	adrp	x1, 1b000 <_obstack_memory_used@@Base+0xe1c0>
    8510:	d2800000 	mov	x0, #0x0                   	// #0
    8514:	9110e021 	add	x1, x1, #0x438
    8518:	97ffee12 	bl	3d60 <dcgettext@plt>
    851c:	f9400261 	ldr	x1, [x19]
    8520:	97ffee14 	bl	3d70 <fputs_unlocked@plt>
    8524:	528000a2 	mov	w2, #0x5                   	// #5
    8528:	f0000081 	adrp	x1, 1b000 <_obstack_memory_used@@Base+0xe1c0>
    852c:	d2800000 	mov	x0, #0x0                   	// #0
    8530:	9111e021 	add	x1, x1, #0x478
    8534:	97ffee0b 	bl	3d60 <dcgettext@plt>
    8538:	f9400261 	ldr	x1, [x19]
    853c:	97ffee0d 	bl	3d70 <fputs_unlocked@plt>
    8540:	528000a2 	mov	w2, #0x5                   	// #5
    8544:	f0000081 	adrp	x1, 1b000 <_obstack_memory_used@@Base+0xe1c0>
    8548:	d2800000 	mov	x0, #0x0                   	// #0
    854c:	91154021 	add	x1, x1, #0x550
    8550:	97ffee04 	bl	3d60 <dcgettext@plt>
    8554:	f9400261 	ldr	x1, [x19]
    8558:	97ffee06 	bl	3d70 <fputs_unlocked@plt>
    855c:	528000a2 	mov	w2, #0x5                   	// #5
    8560:	f0000081 	adrp	x1, 1b000 <_obstack_memory_used@@Base+0xe1c0>
    8564:	d2800000 	mov	x0, #0x0                   	// #0
    8568:	911b2021 	add	x1, x1, #0x6c8
    856c:	97ffedfd 	bl	3d60 <dcgettext@plt>
    8570:	f9400261 	ldr	x1, [x19]
    8574:	97ffedff 	bl	3d70 <fputs_unlocked@plt>
    8578:	528000a2 	mov	w2, #0x5                   	// #5
    857c:	f0000081 	adrp	x1, 1b000 <_obstack_memory_used@@Base+0xe1c0>
    8580:	d2800000 	mov	x0, #0x0                   	// #0
    8584:	911c6021 	add	x1, x1, #0x718
    8588:	97ffedf6 	bl	3d60 <dcgettext@plt>
    858c:	f9400261 	ldr	x1, [x19]
    8590:	97ffedf8 	bl	3d70 <fputs_unlocked@plt>
    8594:	528000a2 	mov	w2, #0x5                   	// #5
    8598:	f0000081 	adrp	x1, 1b000 <_obstack_memory_used@@Base+0xe1c0>
    859c:	d2800000 	mov	x0, #0x0                   	// #0
    85a0:	91210021 	add	x1, x1, #0x840
    85a4:	97ffedef 	bl	3d60 <dcgettext@plt>
    85a8:	f9400261 	ldr	x1, [x19]
    85ac:	97ffedf1 	bl	3d70 <fputs_unlocked@plt>
    85b0:	90000143 	adrp	x3, 30000 <_obstack_memory_used@@Base+0x231c0>
    85b4:	91004063 	add	x3, x3, #0x10
    85b8:	910023e4 	add	x4, sp, #0x8
    85bc:	b0000081 	adrp	x1, 19000 <_obstack_memory_used@@Base+0xc1c0>
    85c0:	aa0403e2 	mov	x2, x4
    85c4:	91286021 	add	x1, x1, #0xa18
    85c8:	ad401460 	ldp	q0, q5, [x3]
    85cc:	52800d80 	mov	w0, #0x6c                  	// #108
    85d0:	ad411063 	ldp	q3, q4, [x3, #32]
    85d4:	52800e65 	mov	w5, #0x73                  	// #115
    85d8:	ad420861 	ldp	q1, q2, [x3, #64]
    85dc:	ad001480 	stp	q0, q5, [x4]
    85e0:	3dc01860 	ldr	q0, [x3, #96]
    85e4:	ad011083 	stp	q3, q4, [x4, #32]
    85e8:	ad020881 	stp	q1, q2, [x4, #64]
    85ec:	3d801880 	str	q0, [x4, #96]
    85f0:	39400023 	ldrb	w3, [x1]
    85f4:	6b03001f 	cmp	w0, w3
    85f8:	54000761 	b.ne	86e4 <setlocale@plt+0x4884>  // b.any
    85fc:	39400423 	ldrb	w3, [x1, #1]
    8600:	6b0300bf 	cmp	w5, w3
    8604:	54000701 	b.ne	86e4 <setlocale@plt+0x4884>  // b.any
    8608:	39400821 	ldrb	w1, [x1, #2]
    860c:	350006c1 	cbnz	w1, 86e4 <setlocale@plt+0x4884>
    8610:	f9400456 	ldr	x22, [x2, #8]
    8614:	f0000081 	adrp	x1, 1b000 <_obstack_memory_used@@Base+0xe1c0>
    8618:	d2800000 	mov	x0, #0x0                   	// #0
    861c:	91236021 	add	x1, x1, #0x8d8
    8620:	528000a2 	mov	w2, #0x5                   	// #5
    8624:	b4000676 	cbz	x22, 86f0 <setlocale@plt+0x4890>
    8628:	97ffedce 	bl	3d60 <dcgettext@plt>
    862c:	f0000097 	adrp	x23, 1b000 <_obstack_memory_used@@Base+0xe1c0>
    8630:	f0000082 	adrp	x2, 1b000 <_obstack_memory_used@@Base+0xe1c0>
    8634:	9123c2e3 	add	x3, x23, #0x8f0
    8638:	91246042 	add	x2, x2, #0x918
    863c:	aa0003e1 	mov	x1, x0
    8640:	52800040 	mov	w0, #0x2                   	// #2
    8644:	97ffed0f 	bl	3a80 <__printf_chk@plt>
    8648:	d2800001 	mov	x1, #0x0                   	// #0
    864c:	528000a0 	mov	w0, #0x5                   	// #5
    8650:	b0000095 	adrp	x21, 19000 <_obstack_memory_used@@Base+0xc1c0>
    8654:	97ffee03 	bl	3e60 <setlocale@plt>
    8658:	aa0003e1 	mov	x1, x0
    865c:	b40000e0 	cbz	x0, 8678 <setlocale@plt+0x4818>
    8660:	aa0103e0 	mov	x0, x1
    8664:	d2800062 	mov	x2, #0x3                   	// #3
    8668:	f0000081 	adrp	x1, 1b000 <_obstack_memory_used@@Base+0xe1c0>
    866c:	9124a021 	add	x1, x1, #0x928
    8670:	97ffecfc 	bl	3a60 <strncmp@plt>
    8674:	35000600 	cbnz	w0, 8734 <setlocale@plt+0x48d4>
    8678:	912882b5 	add	x21, x21, #0xa20
    867c:	528000a2 	mov	w2, #0x5                   	// #5
    8680:	f0000081 	adrp	x1, 1b000 <_obstack_memory_used@@Base+0xe1c0>
    8684:	d2800000 	mov	x0, #0x0                   	// #0
    8688:	9125e021 	add	x1, x1, #0x978
    868c:	97ffedb5 	bl	3d60 <dcgettext@plt>
    8690:	aa1503e3 	mov	x3, x21
    8694:	aa0003e1 	mov	x1, x0
    8698:	9123c2e2 	add	x2, x23, #0x8f0
    869c:	52800040 	mov	w0, #0x2                   	// #2
    86a0:	97ffecf8 	bl	3a80 <__printf_chk@plt>
    86a4:	528000a2 	mov	w2, #0x5                   	// #5
    86a8:	f0000081 	adrp	x1, 1b000 <_obstack_memory_used@@Base+0xe1c0>
    86ac:	d2800000 	mov	x0, #0x0                   	// #0
    86b0:	91266021 	add	x1, x1, #0x998
    86b4:	97ffedab 	bl	3d60 <dcgettext@plt>
    86b8:	aa0003e1 	mov	x1, x0
    86bc:	eb1502df 	cmp	x22, x21
    86c0:	b0000082 	adrp	x2, 19000 <_obstack_memory_used@@Base+0xc1c0>
    86c4:	b0000083 	adrp	x3, 19000 <_obstack_memory_used@@Base+0xc1c0>
    86c8:	9128a042 	add	x2, x2, #0xa28
    86cc:	912a0063 	add	x3, x3, #0xa80
    86d0:	9a821063 	csel	x3, x3, x2, ne	// ne = any
    86d4:	aa1603e2 	mov	x2, x22
    86d8:	52800040 	mov	w0, #0x2                   	// #2
    86dc:	97ffece9 	bl	3a80 <__printf_chk@plt>
    86e0:	17fffe65 	b	8074 <setlocale@plt+0x4214>
    86e4:	f8410c41 	ldr	x1, [x2, #16]!
    86e8:	b5fff841 	cbnz	x1, 85f0 <setlocale@plt+0x4790>
    86ec:	17ffffc9 	b	8610 <setlocale@plt+0x47b0>
    86f0:	97ffed9c 	bl	3d60 <dcgettext@plt>
    86f4:	f0000097 	adrp	x23, 1b000 <_obstack_memory_used@@Base+0xe1c0>
    86f8:	9123c2f5 	add	x21, x23, #0x8f0
    86fc:	f0000082 	adrp	x2, 1b000 <_obstack_memory_used@@Base+0xe1c0>
    8700:	aa1503e3 	mov	x3, x21
    8704:	91246042 	add	x2, x2, #0x918
    8708:	aa0003e1 	mov	x1, x0
    870c:	52800040 	mov	w0, #0x2                   	// #2
    8710:	97ffecdc 	bl	3a80 <__printf_chk@plt>
    8714:	d2800001 	mov	x1, #0x0                   	// #0
    8718:	528000a0 	mov	w0, #0x5                   	// #5
    871c:	97ffedd1 	bl	3e60 <setlocale@plt>
    8720:	aa0003e1 	mov	x1, x0
    8724:	b4000180 	cbz	x0, 8754 <setlocale@plt+0x48f4>
    8728:	b0000095 	adrp	x21, 19000 <_obstack_memory_used@@Base+0xc1c0>
    872c:	912882b6 	add	x22, x21, #0xa20
    8730:	17ffffcc 	b	8660 <setlocale@plt+0x4800>
    8734:	528000a2 	mov	w2, #0x5                   	// #5
    8738:	f0000081 	adrp	x1, 1b000 <_obstack_memory_used@@Base+0xe1c0>
    873c:	d2800000 	mov	x0, #0x0                   	// #0
    8740:	9124c021 	add	x1, x1, #0x930
    8744:	97ffed87 	bl	3d60 <dcgettext@plt>
    8748:	f9400261 	ldr	x1, [x19]
    874c:	97ffed89 	bl	3d70 <fputs_unlocked@plt>
    8750:	17ffffca 	b	8678 <setlocale@plt+0x4818>
    8754:	528000a2 	mov	w2, #0x5                   	// #5
    8758:	f0000081 	adrp	x1, 1b000 <_obstack_memory_used@@Base+0xe1c0>
    875c:	b0000096 	adrp	x22, 19000 <_obstack_memory_used@@Base+0xc1c0>
    8760:	9125e021 	add	x1, x1, #0x978
    8764:	912882d6 	add	x22, x22, #0xa20
    8768:	97ffed7e 	bl	3d60 <dcgettext@plt>
    876c:	aa1603e3 	mov	x3, x22
    8770:	aa0003e1 	mov	x1, x0
    8774:	aa1503e2 	mov	x2, x21
    8778:	52800040 	mov	w0, #0x2                   	// #2
    877c:	97ffecc1 	bl	3a80 <__printf_chk@plt>
    8780:	f0000081 	adrp	x1, 1b000 <_obstack_memory_used@@Base+0xe1c0>
    8784:	528000a2 	mov	w2, #0x5                   	// #5
    8788:	91266021 	add	x1, x1, #0x998
    878c:	d2800000 	mov	x0, #0x0                   	// #0
    8790:	97ffed74 	bl	3d60 <dcgettext@plt>
    8794:	aa0003e1 	mov	x1, x0
    8798:	b0000083 	adrp	x3, 19000 <_obstack_memory_used@@Base+0xc1c0>
    879c:	9128a063 	add	x3, x3, #0xa28
    87a0:	17ffffcd 	b	86d4 <setlocale@plt+0x4874>
    87a4:	d503233f 	paciasp
    87a8:	a9bf7bfd 	stp	x29, x30, [sp, #-16]!
    87ac:	52800020 	mov	w0, #0x1                   	// #1
    87b0:	910003fd 	mov	x29, sp
    87b4:	97fffe13 	bl	8000 <setlocale@plt+0x41a0>
    87b8:	d503201f 	nop
    87bc:	d503201f 	nop
    87c0:	d503245f 	bti	c
    87c4:	f0000123 	adrp	x3, 2f000 <_obstack_memory_used@@Base+0x221c0>
    87c8:	f947d063 	ldr	x3, [x3, #4000]
    87cc:	d503233f 	paciasp
    87d0:	a9be7bfd 	stp	x29, x30, [sp, #-32]!
    87d4:	528000a2 	mov	w2, #0x5                   	// #5
    87d8:	910003fd 	mov	x29, sp
    87dc:	f9000bf3 	str	x19, [sp, #16]
    87e0:	f0000081 	adrp	x1, 1b000 <_obstack_memory_used@@Base+0xe1c0>
    87e4:	f9400073 	ldr	x19, [x3]
    87e8:	91274021 	add	x1, x1, #0x9d0
    87ec:	d2800000 	mov	x0, #0x0                   	// #0
    87f0:	97ffed5c 	bl	3d60 <dcgettext@plt>
    87f4:	900000a2 	adrp	x2, 1c000 <_obstack_memory_used@@Base+0xf1c0>
    87f8:	aa0003e3 	mov	x3, x0
    87fc:	911d8042 	add	x2, x2, #0x760
    8800:	aa1303e0 	mov	x0, x19
    8804:	52800041 	mov	w1, #0x2                   	// #2
    8808:	97ffecfe 	bl	3c00 <__fprintf_chk@plt>
    880c:	90000140 	adrp	x0, 30000 <_obstack_memory_used@@Base+0x231c0>
    8810:	91004000 	add	x0, x0, #0x10
    8814:	b9407000 	ldr	w0, [x0, #112]
    8818:	97ffec06 	bl	3830 <exit@plt>
    881c:	d503201f 	nop
    8820:	d503233f 	paciasp
    8824:	a9bb7bfd 	stp	x29, x30, [sp, #-80]!
    8828:	910003fd 	mov	x29, sp
    882c:	a9025bf5 	stp	x21, x22, [sp, #32]
    8830:	aa0003f5 	mov	x21, x0
    8834:	aa0103e0 	mov	x0, x1
    8838:	a90153f3 	stp	x19, x20, [sp, #16]
    883c:	aa0103f3 	mov	x19, x1
    8840:	f9400aa1 	ldr	x1, [x21, #16]
    8844:	a90363f7 	stp	x23, x24, [sp, #48]
    8848:	aa0203f8 	mov	x24, x2
    884c:	f9401aa2 	ldr	x2, [x21, #48]
    8850:	f90023f9 	str	x25, [sp, #64]
    8854:	12001c77 	and	w23, w3, #0xff
    8858:	d63f0040 	blr	x2
    885c:	f9400aa1 	ldr	x1, [x21, #16]
    8860:	eb01001f 	cmp	x0, x1
    8864:	54000842 	b.cs	896c <setlocale@plt+0x4b0c>  // b.hs, b.nlast
    8868:	f94002b9 	ldr	x25, [x21]
    886c:	d37cec16 	lsl	x22, x0, #4
    8870:	8b160334 	add	x20, x25, x22
    8874:	f9000314 	str	x20, [x24]
    8878:	f8766b21 	ldr	x1, [x25, x22]
    887c:	b4000441 	cbz	x1, 8904 <setlocale@plt+0x4aa4>
    8880:	eb13003f 	cmp	x1, x19
    8884:	540000c0 	b.eq	889c <setlocale@plt+0x4a3c>  // b.none
    8888:	f9401ea2 	ldr	x2, [x21, #56]
    888c:	aa1303e0 	mov	x0, x19
    8890:	d63f0040 	blr	x2
    8894:	36000340 	tbz	w0, #0, 88fc <setlocale@plt+0x4a9c>
    8898:	f8766b33 	ldr	x19, [x25, x22]
    889c:	36000117 	tbz	w23, #0, 88bc <setlocale@plt+0x4a5c>
    88a0:	f9400680 	ldr	x0, [x20, #8]
    88a4:	b40005e0 	cbz	x0, 8960 <setlocale@plt+0x4b00>
    88a8:	a9400c02 	ldp	x2, x3, [x0]
    88ac:	a9000e82 	stp	x2, x3, [x20]
    88b0:	f94026a1 	ldr	x1, [x21, #72]
    88b4:	a900041f 	stp	xzr, x1, [x0]
    88b8:	f90026a0 	str	x0, [x21, #72]
    88bc:	aa1303e0 	mov	x0, x19
    88c0:	a94153f3 	ldp	x19, x20, [sp, #16]
    88c4:	a9425bf5 	ldp	x21, x22, [sp, #32]
    88c8:	a94363f7 	ldp	x23, x24, [sp, #48]
    88cc:	f94023f9 	ldr	x25, [sp, #64]
    88d0:	a8c57bfd 	ldp	x29, x30, [sp], #80
    88d4:	d50323bf 	autiasp
    88d8:	d65f03c0 	ret
    88dc:	f9400021 	ldr	x1, [x1]
    88e0:	eb13003f 	cmp	x1, x19
    88e4:	54000200 	b.eq	8924 <setlocale@plt+0x4ac4>  // b.none
    88e8:	f9401ea2 	ldr	x2, [x21, #56]
    88ec:	aa1303e0 	mov	x0, x19
    88f0:	d63f0040 	blr	x2
    88f4:	37000180 	tbnz	w0, #0, 8924 <setlocale@plt+0x4ac4>
    88f8:	f9400694 	ldr	x20, [x20, #8]
    88fc:	f9400681 	ldr	x1, [x20, #8]
    8900:	b5fffee1 	cbnz	x1, 88dc <setlocale@plt+0x4a7c>
    8904:	d2800000 	mov	x0, #0x0                   	// #0
    8908:	a94153f3 	ldp	x19, x20, [sp, #16]
    890c:	a9425bf5 	ldp	x21, x22, [sp, #32]
    8910:	a94363f7 	ldp	x23, x24, [sp, #48]
    8914:	f94023f9 	ldr	x25, [sp, #64]
    8918:	a8c57bfd 	ldp	x29, x30, [sp], #80
    891c:	d50323bf 	autiasp
    8920:	d65f03c0 	ret
    8924:	f9400681 	ldr	x1, [x20, #8]
    8928:	f9400020 	ldr	x0, [x1]
    892c:	3607fef7 	tbz	w23, #0, 8908 <setlocale@plt+0x4aa8>
    8930:	f9400422 	ldr	x2, [x1, #8]
    8934:	f9000682 	str	x2, [x20, #8]
    8938:	f94026a2 	ldr	x2, [x21, #72]
    893c:	a900083f 	stp	xzr, x2, [x1]
    8940:	f90026a1 	str	x1, [x21, #72]
    8944:	a94153f3 	ldp	x19, x20, [sp, #16]
    8948:	a9425bf5 	ldp	x21, x22, [sp, #32]
    894c:	a94363f7 	ldp	x23, x24, [sp, #48]
    8950:	f94023f9 	ldr	x25, [sp, #64]
    8954:	a8c57bfd 	ldp	x29, x30, [sp], #80
    8958:	d50323bf 	autiasp
    895c:	d65f03c0 	ret
    8960:	aa1303e0 	mov	x0, x19
    8964:	f8366b3f 	str	xzr, [x25, x22]
    8968:	17ffffd6 	b	88c0 <setlocale@plt+0x4a60>
    896c:	97ffec85 	bl	3b80 <abort@plt>
    8970:	d503233f 	paciasp
    8974:	a9bb7bfd 	stp	x29, x30, [sp, #-80]!
    8978:	910003fd 	mov	x29, sp
    897c:	a90153f3 	stp	x19, x20, [sp, #16]
    8980:	aa0003f4 	mov	x20, x0
    8984:	a9025bf5 	stp	x21, x22, [sp, #32]
    8988:	a9400035 	ldp	x21, x0, [x1]
    898c:	a90363f7 	stp	x23, x24, [sp, #48]
    8990:	eb0002bf 	cmp	x21, x0
    8994:	54000642 	b.cs	8a5c <setlocale@plt+0x4bfc>  // b.hs, b.nlast
    8998:	12001c58 	and	w24, w2, #0xff
    899c:	aa0103f6 	mov	x22, x1
    89a0:	12000317 	and	w23, w24, #0x1
    89a4:	f90023f9 	str	x25, [sp, #64]
    89a8:	14000004 	b	89b8 <setlocale@plt+0x4b58>
    89ac:	910042b5 	add	x21, x21, #0x10
    89b0:	eb15001f 	cmp	x0, x21
    89b4:	54000529 	b.ls	8a58 <setlocale@plt+0x4bf8>  // b.plast
    89b8:	f94002b9 	ldr	x25, [x21]
    89bc:	b4ffff99 	cbz	x25, 89ac <setlocale@plt+0x4b4c>
    89c0:	f94006b3 	ldr	x19, [x21, #8]
    89c4:	b40003f3 	cbz	x19, 8a40 <setlocale@plt+0x4be0>
    89c8:	f9400a81 	ldr	x1, [x20, #16]
    89cc:	d503201f 	nop
    89d0:	f9401a82 	ldr	x2, [x20, #48]
    89d4:	f9400279 	ldr	x25, [x19]
    89d8:	aa1903e0 	mov	x0, x25
    89dc:	d63f0040 	blr	x2
    89e0:	f9400a81 	ldr	x1, [x20, #16]
    89e4:	eb01001f 	cmp	x0, x1
    89e8:	54000902 	b.cs	8b08 <setlocale@plt+0x4ca8>  // b.hs, b.nlast
    89ec:	f9400282 	ldr	x2, [x20]
    89f0:	d37cec00 	lsl	x0, x0, #4
    89f4:	f9400663 	ldr	x3, [x19, #8]
    89f8:	8b000044 	add	x4, x2, x0
    89fc:	f8606845 	ldr	x5, [x2, x0]
    8a00:	b40000e5 	cbz	x5, 8a1c <setlocale@plt+0x4bbc>
    8a04:	f9400480 	ldr	x0, [x4, #8]
    8a08:	f9000660 	str	x0, [x19, #8]
    8a0c:	f9000493 	str	x19, [x4, #8]
    8a10:	b4000163 	cbz	x3, 8a3c <setlocale@plt+0x4bdc>
    8a14:	aa0303f3 	mov	x19, x3
    8a18:	17ffffee 	b	89d0 <setlocale@plt+0x4b70>
    8a1c:	f9400e84 	ldr	x4, [x20, #24]
    8a20:	f8206859 	str	x25, [x2, x0]
    8a24:	f9402682 	ldr	x2, [x20, #72]
    8a28:	91000480 	add	x0, x4, #0x1
    8a2c:	f9000e80 	str	x0, [x20, #24]
    8a30:	a9000a7f 	stp	xzr, x2, [x19]
    8a34:	f9002693 	str	x19, [x20, #72]
    8a38:	b5fffee3 	cbnz	x3, 8a14 <setlocale@plt+0x4bb4>
    8a3c:	f94002b9 	ldr	x25, [x21]
    8a40:	f90006bf 	str	xzr, [x21, #8]
    8a44:	340001d7 	cbz	w23, 8a7c <setlocale@plt+0x4c1c>
    8a48:	f94006c0 	ldr	x0, [x22, #8]
    8a4c:	910042b5 	add	x21, x21, #0x10
    8a50:	eb15001f 	cmp	x0, x21
    8a54:	54fffb28 	b.hi	89b8 <setlocale@plt+0x4b58>  // b.pmore
    8a58:	f94023f9 	ldr	x25, [sp, #64]
    8a5c:	52800038 	mov	w24, #0x1                   	// #1
    8a60:	a94153f3 	ldp	x19, x20, [sp, #16]
    8a64:	2a1803e0 	mov	w0, w24
    8a68:	a9425bf5 	ldp	x21, x22, [sp, #32]
    8a6c:	a94363f7 	ldp	x23, x24, [sp, #48]
    8a70:	a8c57bfd 	ldp	x29, x30, [sp], #80
    8a74:	d50323bf 	autiasp
    8a78:	d65f03c0 	ret
    8a7c:	f9400a81 	ldr	x1, [x20, #16]
    8a80:	aa1903e0 	mov	x0, x25
    8a84:	f9401a82 	ldr	x2, [x20, #48]
    8a88:	d63f0040 	blr	x2
    8a8c:	f9400a81 	ldr	x1, [x20, #16]
    8a90:	eb01001f 	cmp	x0, x1
    8a94:	540003a2 	b.cs	8b08 <setlocale@plt+0x4ca8>  // b.hs, b.nlast
    8a98:	f9400281 	ldr	x1, [x20]
    8a9c:	d37cec00 	lsl	x0, x0, #4
    8aa0:	8b000033 	add	x19, x1, x0
    8aa4:	f8606822 	ldr	x2, [x1, x0]
    8aa8:	b40001c2 	cbz	x2, 8ae0 <setlocale@plt+0x4c80>
    8aac:	f9402680 	ldr	x0, [x20, #72]
    8ab0:	b4000220 	cbz	x0, 8af4 <setlocale@plt+0x4c94>
    8ab4:	f9400401 	ldr	x1, [x0, #8]
    8ab8:	f9002681 	str	x1, [x20, #72]
    8abc:	f9400661 	ldr	x1, [x19, #8]
    8ac0:	a9000419 	stp	x25, x1, [x0]
    8ac4:	f9000660 	str	x0, [x19, #8]
    8ac8:	f9400ec1 	ldr	x1, [x22, #24]
    8acc:	f90002bf 	str	xzr, [x21]
    8ad0:	f94006c0 	ldr	x0, [x22, #8]
    8ad4:	d1000421 	sub	x1, x1, #0x1
    8ad8:	f9000ec1 	str	x1, [x22, #24]
    8adc:	17ffffb4 	b	89ac <setlocale@plt+0x4b4c>
    8ae0:	f9400e82 	ldr	x2, [x20, #24]
    8ae4:	f8206839 	str	x25, [x1, x0]
    8ae8:	91000440 	add	x0, x2, #0x1
    8aec:	f9000e80 	str	x0, [x20, #24]
    8af0:	17fffff6 	b	8ac8 <setlocale@plt+0x4c68>
    8af4:	d2800200 	mov	x0, #0x10                  	// #16
    8af8:	97ffebbe 	bl	39f0 <malloc@plt>
    8afc:	b5fffe00 	cbnz	x0, 8abc <setlocale@plt+0x4c5c>
    8b00:	f94023f9 	ldr	x25, [sp, #64]
    8b04:	17ffffd7 	b	8a60 <setlocale@plt+0x4c00>
    8b08:	97ffec1e 	bl	3b80 <abort@plt>
    8b0c:	d503201f 	nop
    8b10:	d503233f 	paciasp
    8b14:	a9bf7bfd 	stp	x29, x30, [sp, #-16]!
    8b18:	90000142 	adrp	x2, 30000 <_obstack_memory_used@@Base+0x231c0>
    8b1c:	910003fd 	mov	x29, sp
    8b20:	a8c17bfd 	ldp	x29, x30, [sp], #16
    8b24:	d50323bf 	autiasp
    8b28:	91004042 	add	x2, x2, #0x10
    8b2c:	aa0003e1 	mov	x1, x0
    8b30:	9101e042 	add	x2, x2, #0x78
    8b34:	52800000 	mov	w0, #0x0                   	// #0
    8b38:	140026c2 	b	12640 <_obstack_memory_used@@Base+0x5800>
    8b3c:	d503201f 	nop
    8b40:	d503233f 	paciasp
    8b44:	a9bd7bfd 	stp	x29, x30, [sp, #-48]!
    8b48:	910003fd 	mov	x29, sp
    8b4c:	a9025bf5 	stp	x21, x22, [sp, #32]
    8b50:	aa0003f5 	mov	x21, x0
    8b54:	aa0103f6 	mov	x22, x1
    8b58:	f9400000 	ldr	x0, [x0]
    8b5c:	528005c1 	mov	w1, #0x2e                  	// #46
    8b60:	a90153f3 	stp	x19, x20, [sp, #16]
    8b64:	aa0203f4 	mov	x20, x2
    8b68:	97ffebf2 	bl	3b30 <strrchr@plt>
    8b6c:	aa0003f3 	mov	x19, x0
    8b70:	f94002c0 	ldr	x0, [x22]
    8b74:	528005c1 	mov	w1, #0x2e                  	// #46
    8b78:	97ffebee 	bl	3b30 <strrchr@plt>
    8b7c:	aa0003e1 	mov	x1, x0
    8b80:	f100027f 	cmp	x19, #0x0
    8b84:	b0000084 	adrp	x4, 19000 <_obstack_memory_used@@Base+0xc1c0>
    8b88:	912a0084 	add	x4, x4, #0xa80
    8b8c:	9a930093 	csel	x19, x4, x19, eq	// eq = none
    8b90:	f100001f 	cmp	x0, #0x0
    8b94:	9a810081 	csel	x1, x4, x1, eq	// eq = none
    8b98:	aa1303e0 	mov	x0, x19
    8b9c:	d63f0280 	blr	x20
    8ba0:	35000120 	cbnz	w0, 8bc4 <setlocale@plt+0x4d64>
    8ba4:	f94002a0 	ldr	x0, [x21]
    8ba8:	aa1403f0 	mov	x16, x20
    8bac:	f94002c1 	ldr	x1, [x22]
    8bb0:	a94153f3 	ldp	x19, x20, [sp, #16]
    8bb4:	a9425bf5 	ldp	x21, x22, [sp, #32]
    8bb8:	a8c37bfd 	ldp	x29, x30, [sp], #48
    8bbc:	d50323bf 	autiasp
    8bc0:	d61f0200 	br	x16
    8bc4:	a94153f3 	ldp	x19, x20, [sp, #16]
    8bc8:	a9425bf5 	ldp	x21, x22, [sp, #32]
    8bcc:	a8c37bfd 	ldp	x29, x30, [sp], #48
    8bd0:	d50323bf 	autiasp
    8bd4:	d65f03c0 	ret
    8bd8:	d503201f 	nop
    8bdc:	d503201f 	nop
    8be0:	d503233f 	paciasp
    8be4:	a9bf7bfd 	stp	x29, x30, [sp, #-16]!
    8be8:	910003fd 	mov	x29, sp
    8bec:	a8c17bfd 	ldp	x29, x30, [sp], #16
    8bf0:	d50323bf 	autiasp
    8bf4:	f0000122 	adrp	x2, 2f000 <_obstack_memory_used@@Base+0x221c0>
    8bf8:	f947ec42 	ldr	x2, [x2, #4056]
    8bfc:	17ffffd1 	b	8b40 <setlocale@plt+0x4ce0>
    8c00:	d503233f 	paciasp
    8c04:	a9bf7bfd 	stp	x29, x30, [sp, #-16]!
    8c08:	aa0003e3 	mov	x3, x0
    8c0c:	910003fd 	mov	x29, sp
    8c10:	a8c17bfd 	ldp	x29, x30, [sp], #16
    8c14:	d50323bf 	autiasp
    8c18:	aa0103e0 	mov	x0, x1
    8c1c:	f0000122 	adrp	x2, 2f000 <_obstack_memory_used@@Base+0x221c0>
    8c20:	f947ec42 	ldr	x2, [x2, #4056]
    8c24:	aa0303e1 	mov	x1, x3
    8c28:	17ffffc6 	b	8b40 <setlocale@plt+0x4ce0>
    8c2c:	d503201f 	nop
    8c30:	d503233f 	paciasp
    8c34:	a9bf7bfd 	stp	x29, x30, [sp, #-16]!
    8c38:	910003fd 	mov	x29, sp
    8c3c:	b9409804 	ldr	w4, [x0, #152]
    8c40:	b9409823 	ldr	w3, [x1, #152]
    8c44:	7100249f 	cmp	w4, #0x9
    8c48:	1a9f17e2 	cset	w2, eq	// eq = none
    8c4c:	71000c9f 	cmp	w4, #0x3
    8c50:	1a9f17e4 	cset	w4, eq	// eq = none
    8c54:	71000c7f 	cmp	w3, #0x3
    8c58:	2a040042 	orr	w2, w2, w4
    8c5c:	7a491864 	ccmp	w3, #0x9, #0x4, ne	// ne = any
    8c60:	540001a0 	b.eq	8c94 <setlocale@plt+0x4e34>  // b.none
    8c64:	b9409c23 	ldr	w3, [x1, #156]
    8c68:	52800024 	mov	w4, #0x1                   	// #1
    8c6c:	12140c63 	and	w3, w3, #0xf000
    8c70:	7140107f 	cmp	w3, #0x4, lsl #12
    8c74:	1a9f17e3 	cset	w3, eq	// eq = none
    8c78:	340001c2 	cbz	w2, 8cb0 <setlocale@plt+0x4e50>
    8c7c:	6b040063 	subs	w3, w3, w4
    8c80:	540000e0 	b.eq	8c9c <setlocale@plt+0x4e3c>  // b.none
    8c84:	a8c17bfd 	ldp	x29, x30, [sp], #16
    8c88:	d50323bf 	autiasp
    8c8c:	2a0303e0 	mov	w0, w3
    8c90:	d65f03c0 	ret
    8c94:	52800023 	mov	w3, #0x1                   	// #1
    8c98:	340000c2 	cbz	w2, 8cb0 <setlocale@plt+0x4e50>
    8c9c:	a8c17bfd 	ldp	x29, x30, [sp], #16
    8ca0:	d50323bf 	autiasp
    8ca4:	f0000122 	adrp	x2, 2f000 <_obstack_memory_used@@Base+0x221c0>
    8ca8:	f947ec42 	ldr	x2, [x2, #4056]
    8cac:	17ffffa5 	b	8b40 <setlocale@plt+0x4ce0>
    8cb0:	b9409c02 	ldr	w2, [x0, #156]
    8cb4:	12140c42 	and	w2, w2, #0xf000
    8cb8:	7140105f 	cmp	w2, #0x4, lsl #12
    8cbc:	1a9f17e4 	cset	w4, eq	// eq = none
    8cc0:	6b040063 	subs	w3, w3, w4
    8cc4:	54fffe01 	b.ne	8c84 <setlocale@plt+0x4e24>  // b.any
    8cc8:	17fffff5 	b	8c9c <setlocale@plt+0x4e3c>
    8ccc:	d503201f 	nop
    8cd0:	d503233f 	paciasp
    8cd4:	a9bf7bfd 	stp	x29, x30, [sp, #-16]!
    8cd8:	aa0003e3 	mov	x3, x0
    8cdc:	910003fd 	mov	x29, sp
    8ce0:	b9409802 	ldr	w2, [x0, #152]
    8ce4:	aa0103e4 	mov	x4, x1
    8ce8:	b9409820 	ldr	w0, [x1, #152]
    8cec:	7100245f 	cmp	w2, #0x9
    8cf0:	1a9f17e1 	cset	w1, eq	// eq = none
    8cf4:	71000c5f 	cmp	w2, #0x3
    8cf8:	1a9f17e2 	cset	w2, eq	// eq = none
    8cfc:	71000c1f 	cmp	w0, #0x3
    8d00:	2a020021 	orr	w1, w1, w2
    8d04:	7a491804 	ccmp	w0, #0x9, #0x4, ne	// ne = any
    8d08:	54000180 	b.eq	8d38 <setlocale@plt+0x4ed8>  // b.none
    8d0c:	b9409c80 	ldr	w0, [x4, #156]
    8d10:	52800022 	mov	w2, #0x1                   	// #1
    8d14:	12140c00 	and	w0, w0, #0xf000
    8d18:	7140101f 	cmp	w0, #0x4, lsl #12
    8d1c:	1a9f17e0 	cset	w0, eq	// eq = none
    8d20:	340001e1 	cbz	w1, 8d5c <setlocale@plt+0x4efc>
    8d24:	6b020000 	subs	w0, w0, w2
    8d28:	540000c0 	b.eq	8d40 <setlocale@plt+0x4ee0>  // b.none
    8d2c:	a8c17bfd 	ldp	x29, x30, [sp], #16
    8d30:	d50323bf 	autiasp
    8d34:	d65f03c0 	ret
    8d38:	52800020 	mov	w0, #0x1                   	// #1
    8d3c:	34000101 	cbz	w1, 8d5c <setlocale@plt+0x4efc>
    8d40:	a8c17bfd 	ldp	x29, x30, [sp], #16
    8d44:	d50323bf 	autiasp
    8d48:	aa0303e1 	mov	x1, x3
    8d4c:	f0000122 	adrp	x2, 2f000 <_obstack_memory_used@@Base+0x221c0>
    8d50:	f947ec42 	ldr	x2, [x2, #4056]
    8d54:	aa0403e0 	mov	x0, x4
    8d58:	17ffff7a 	b	8b40 <setlocale@plt+0x4ce0>
    8d5c:	b9409c61 	ldr	w1, [x3, #156]
    8d60:	12140c21 	and	w1, w1, #0xf000
    8d64:	7140103f 	cmp	w1, #0x4, lsl #12
    8d68:	1a9f17e2 	cset	w2, eq	// eq = none
    8d6c:	6b020000 	subs	w0, w0, w2
    8d70:	54fffde1 	b.ne	8d2c <setlocale@plt+0x4ecc>  // b.any
    8d74:	17fffff3 	b	8d40 <setlocale@plt+0x4ee0>
    8d78:	d503201f 	nop
    8d7c:	d503201f 	nop
    8d80:	d503233f 	paciasp
    8d84:	a9be7bfd 	stp	x29, x30, [sp, #-32]!
    8d88:	910003fd 	mov	x29, sp
    8d8c:	f9000bf3 	str	x19, [sp, #16]
    8d90:	90000153 	adrp	x19, 30000 <_obstack_memory_used@@Base+0x231c0>
    8d94:	91004273 	add	x19, x19, #0x10
    8d98:	39c2c260 	ldrsb	w0, [x19, #176]
    8d9c:	37f800c0 	tbnz	w0, #31, 8db4 <setlocale@plt+0x4f54>
    8da0:	f9400bf3 	ldr	x19, [sp, #16]
    8da4:	12000000 	and	w0, w0, #0x1
    8da8:	a8c27bfd 	ldp	x29, x30, [sp], #32
    8dac:	d50323bf 	autiasp
    8db0:	d65f03c0 	ret
    8db4:	52800020 	mov	w0, #0x1                   	// #1
    8db8:	97ffebd6 	bl	3d10 <isatty@plt>
    8dbc:	13001c00 	sxtb	w0, w0
    8dc0:	3902c260 	strb	w0, [x19, #176]
    8dc4:	12000000 	and	w0, w0, #0x1
    8dc8:	f9400bf3 	ldr	x19, [sp, #16]
    8dcc:	a8c27bfd 	ldp	x29, x30, [sp], #32
    8dd0:	d50323bf 	autiasp
    8dd4:	d65f03c0 	ret
    8dd8:	d503201f 	nop
    8ddc:	d503201f 	nop
    8de0:	d503233f 	paciasp
    8de4:	a9bc7bfd 	stp	x29, x30, [sp, #-64]!
    8de8:	910003fd 	mov	x29, sp
    8dec:	a9025bf5 	stp	x21, x22, [sp, #32]
    8df0:	90000156 	adrp	x22, 30000 <_obstack_memory_used@@Base+0x231c0>
    8df4:	910ac2d5 	add	x21, x22, #0x2b0
    8df8:	f9461aa0 	ldr	x0, [x21, #3120]
    8dfc:	b4000320 	cbz	x0, 8e60 <setlocale@plt+0x5000>
    8e00:	f9001bf7 	str	x23, [sp, #48]
    8e04:	90000157 	adrp	x23, 30000 <_obstack_memory_used@@Base+0x231c0>
    8e08:	910042f7 	add	x23, x23, #0x10
    8e0c:	a90153f3 	stp	x19, x20, [sp, #16]
    8e10:	9102e2f7 	add	x23, x23, #0xb8
    8e14:	d2800014 	mov	x20, #0x0                   	// #0
    8e18:	f9461ea0 	ldr	x0, [x21, #3128]
    8e1c:	f8747813 	ldr	x19, [x0, x20, lsl #3]
    8e20:	f9400260 	ldr	x0, [x19]
    8e24:	97ffeb8f 	bl	3c60 <free@plt>
    8e28:	f9400660 	ldr	x0, [x19, #8]
    8e2c:	97ffeb8d 	bl	3c60 <free@plt>
    8e30:	f9400a60 	ldr	x0, [x19, #16]
    8e34:	97ffeb8b 	bl	3c60 <free@plt>
    8e38:	f9405260 	ldr	x0, [x19, #160]
    8e3c:	eb17001f 	cmp	x0, x23
    8e40:	54000040 	b.eq	8e48 <setlocale@plt+0x4fe8>  // b.none
    8e44:	97ffeaef 	bl	3a00 <freecon@plt>
    8e48:	f9461aa0 	ldr	x0, [x21, #3120]
    8e4c:	91000694 	add	x20, x20, #0x1
    8e50:	eb14001f 	cmp	x0, x20
    8e54:	54fffe28 	b.hi	8e18 <setlocale@plt+0x4fb8>  // b.pmore
    8e58:	a94153f3 	ldp	x19, x20, [sp, #16]
    8e5c:	f9401bf7 	ldr	x23, [sp, #48]
    8e60:	910ac2c0 	add	x0, x22, #0x2b0
    8e64:	91313001 	add	x1, x0, #0xc4c
    8e68:	91317002 	add	x2, x0, #0xc5c
    8e6c:	a9425bf5 	ldp	x21, x22, [sp, #32]
    8e70:	f906181f 	str	xzr, [x0, #3120]
    8e74:	293f7c3f 	stp	wzr, wzr, [x1, #-8]
    8e78:	293f7c5f 	stp	wzr, wzr, [x2, #-8]
    8e7c:	29007c3f 	stp	wzr, wzr, [x1]
    8e80:	29007c5f 	stp	wzr, wzr, [x2]
    8e84:	3931001f 	strb	wzr, [x0, #3136]
    8e88:	3931041f 	strb	wzr, [x0, #3137]
    8e8c:	b90c641f 	str	wzr, [x0, #3172]
    8e90:	b90c681f 	str	wzr, [x0, #3176]
    8e94:	a8c47bfd 	ldp	x29, x30, [sp], #64
    8e98:	d50323bf 	autiasp
    8e9c:	d65f03c0 	ret
    8ea0:	d503245f 	bti	c
    8ea4:	a9481422 	ldp	x2, x5, [x1, #128]
    8ea8:	aa0003e3 	mov	x3, x0
    8eac:	f9404000 	ldr	x0, [x0, #128]
    8eb0:	f9404464 	ldr	x4, [x3, #136]
    8eb4:	eb00005f 	cmp	x2, x0
    8eb8:	1a9fa7e0 	cset	w0, lt	// lt = tstop
    8ebc:	1a9fd7e2 	cset	w2, gt
    8ec0:	eb0400bf 	cmp	x5, x4
    8ec4:	4b000042 	sub	w2, w2, w0
    8ec8:	1a9fa7e4 	cset	w4, lt	// lt = tstop
    8ecc:	1a9fd7e0 	cset	w0, gt
    8ed0:	4b040000 	sub	w0, w0, w4
    8ed4:	2b020400 	adds	w0, w0, w2, lsl #1
    8ed8:	54000201 	b.ne	8f18 <setlocale@plt+0x50b8>  // b.any
    8edc:	d503233f 	paciasp
    8ee0:	a9be7bfd 	stp	x29, x30, [sp, #-32]!
    8ee4:	910003fd 	mov	x29, sp
    8ee8:	a90153f3 	stp	x19, x20, [sp, #16]
    8eec:	f9400034 	ldr	x20, [x1]
    8ef0:	f9400073 	ldr	x19, [x3]
    8ef4:	97ffebc3 	bl	3e00 <__errno_location@plt>
    8ef8:	aa0003e2 	mov	x2, x0
    8efc:	aa1403e1 	mov	x1, x20
    8f00:	aa1303e0 	mov	x0, x19
    8f04:	a94153f3 	ldp	x19, x20, [sp, #16]
    8f08:	b900005f 	str	wzr, [x2]
    8f0c:	a8c27bfd 	ldp	x29, x30, [sp], #32
    8f10:	d50323bf 	autiasp
    8f14:	17ffeb9b 	b	3d80 <strcoll@plt>
    8f18:	d65f03c0 	ret
    8f1c:	d503201f 	nop
    8f20:	d503233f 	paciasp
    8f24:	a9bf7bfd 	stp	x29, x30, [sp, #-16]!
    8f28:	910003fd 	mov	x29, sp
    8f2c:	b9409804 	ldr	w4, [x0, #152]
    8f30:	b9409823 	ldr	w3, [x1, #152]
    8f34:	7100249f 	cmp	w4, #0x9
    8f38:	1a9f17e2 	cset	w2, eq	// eq = none
    8f3c:	71000c9f 	cmp	w4, #0x3
    8f40:	1a9f17e4 	cset	w4, eq	// eq = none
    8f44:	71000c7f 	cmp	w3, #0x3
    8f48:	2a040042 	orr	w2, w2, w4
    8f4c:	7a491864 	ccmp	w3, #0x9, #0x4, ne	// ne = any
    8f50:	540001a0 	b.eq	8f84 <setlocale@plt+0x5124>  // b.none
    8f54:	b9409c23 	ldr	w3, [x1, #156]
    8f58:	52800024 	mov	w4, #0x1                   	// #1
    8f5c:	12140c63 	and	w3, w3, #0xf000
    8f60:	7140107f 	cmp	w3, #0x4, lsl #12
    8f64:	1a9f17e3 	cset	w3, eq	// eq = none
    8f68:	34000182 	cbz	w2, 8f98 <setlocale@plt+0x5138>
    8f6c:	6b040063 	subs	w3, w3, w4
    8f70:	540000e0 	b.eq	8f8c <setlocale@plt+0x512c>  // b.none
    8f74:	a8c17bfd 	ldp	x29, x30, [sp], #16
    8f78:	d50323bf 	autiasp
    8f7c:	2a0303e0 	mov	w0, w3
    8f80:	d65f03c0 	ret
    8f84:	52800023 	mov	w3, #0x1                   	// #1
    8f88:	34000082 	cbz	w2, 8f98 <setlocale@plt+0x5138>
    8f8c:	a8c17bfd 	ldp	x29, x30, [sp], #16
    8f90:	d50323bf 	autiasp
    8f94:	17ffffc3 	b	8ea0 <setlocale@plt+0x5040>
    8f98:	b9409c02 	ldr	w2, [x0, #156]
    8f9c:	12140c42 	and	w2, w2, #0xf000
    8fa0:	7140105f 	cmp	w2, #0x4, lsl #12
    8fa4:	1a9f17e4 	cset	w4, eq	// eq = none
    8fa8:	6b040063 	subs	w3, w3, w4
    8fac:	54fffe41 	b.ne	8f74 <setlocale@plt+0x5114>  // b.any
    8fb0:	17fffff7 	b	8f8c <setlocale@plt+0x512c>
    8fb4:	d503245f 	bti	c
    8fb8:	f9404002 	ldr	x2, [x0, #128]
    8fbc:	aa0003e3 	mov	x3, x0
    8fc0:	a9481020 	ldp	x0, x4, [x1, #128]
    8fc4:	f9404465 	ldr	x5, [x3, #136]
    8fc8:	eb00005f 	cmp	x2, x0
    8fcc:	1a9fa7e0 	cset	w0, lt	// lt = tstop
    8fd0:	1a9fd7e2 	cset	w2, gt
    8fd4:	eb0400bf 	cmp	x5, x4
    8fd8:	4b000042 	sub	w2, w2, w0
    8fdc:	1a9fa7e4 	cset	w4, lt	// lt = tstop
    8fe0:	1a9fd7e0 	cset	w0, gt
    8fe4:	4b040000 	sub	w0, w0, w4
    8fe8:	2b020400 	adds	w0, w0, w2, lsl #1
    8fec:	54000201 	b.ne	902c <setlocale@plt+0x51cc>  // b.any
    8ff0:	d503233f 	paciasp
    8ff4:	a9be7bfd 	stp	x29, x30, [sp, #-32]!
    8ff8:	910003fd 	mov	x29, sp
    8ffc:	a90153f3 	stp	x19, x20, [sp, #16]
    9000:	f9400033 	ldr	x19, [x1]
    9004:	f9400074 	ldr	x20, [x3]
    9008:	97ffeb7e 	bl	3e00 <__errno_location@plt>
    900c:	aa0003e2 	mov	x2, x0
    9010:	aa1303e0 	mov	x0, x19
    9014:	aa1403e1 	mov	x1, x20
    9018:	a94153f3 	ldp	x19, x20, [sp, #16]
    901c:	b900005f 	str	wzr, [x2]
    9020:	a8c27bfd 	ldp	x29, x30, [sp], #32
    9024:	d50323bf 	autiasp
    9028:	17ffeb56 	b	3d80 <strcoll@plt>
    902c:	d65f03c0 	ret
    9030:	d503233f 	paciasp
    9034:	a9bf7bfd 	stp	x29, x30, [sp, #-16]!
    9038:	910003fd 	mov	x29, sp
    903c:	b9409804 	ldr	w4, [x0, #152]
    9040:	b9409823 	ldr	w3, [x1, #152]
    9044:	7100249f 	cmp	w4, #0x9
    9048:	1a9f17e2 	cset	w2, eq	// eq = none
    904c:	71000c9f 	cmp	w4, #0x3
    9050:	1a9f17e4 	cset	w4, eq	// eq = none
    9054:	71000c7f 	cmp	w3, #0x3
    9058:	2a040042 	orr	w2, w2, w4
    905c:	7a491864 	ccmp	w3, #0x9, #0x4, ne	// ne = any
    9060:	540001a0 	b.eq	9094 <setlocale@plt+0x5234>  // b.none
    9064:	b9409c23 	ldr	w3, [x1, #156]
    9068:	52800024 	mov	w4, #0x1                   	// #1
    906c:	12140c63 	and	w3, w3, #0xf000
    9070:	7140107f 	cmp	w3, #0x4, lsl #12
    9074:	1a9f17e3 	cset	w3, eq	// eq = none
    9078:	34000182 	cbz	w2, 90a8 <setlocale@plt+0x5248>
    907c:	6b040063 	subs	w3, w3, w4
    9080:	540000e0 	b.eq	909c <setlocale@plt+0x523c>  // b.none
    9084:	a8c17bfd 	ldp	x29, x30, [sp], #16
    9088:	d50323bf 	autiasp
    908c:	2a0303e0 	mov	w0, w3
    9090:	d65f03c0 	ret
    9094:	52800023 	mov	w3, #0x1                   	// #1
    9098:	34000082 	cbz	w2, 90a8 <setlocale@plt+0x5248>
    909c:	a8c17bfd 	ldp	x29, x30, [sp], #16
    90a0:	d50323bf 	autiasp
    90a4:	17ffffc4 	b	8fb4 <setlocale@plt+0x5154>
    90a8:	b9409c02 	ldr	w2, [x0, #156]
    90ac:	12140c42 	and	w2, w2, #0xf000
    90b0:	7140105f 	cmp	w2, #0x4, lsl #12
    90b4:	1a9f17e4 	cset	w4, eq	// eq = none
    90b8:	6b040063 	subs	w3, w3, w4
    90bc:	54fffe41 	b.ne	9084 <setlocale@plt+0x5224>  // b.any
    90c0:	17fffff7 	b	909c <setlocale@plt+0x523c>
    90c4:	d503245f 	bti	c
    90c8:	a9471422 	ldp	x2, x5, [x1, #112]
    90cc:	aa0003e3 	mov	x3, x0
    90d0:	f9403800 	ldr	x0, [x0, #112]
    90d4:	f9403c64 	ldr	x4, [x3, #120]
    90d8:	eb00005f 	cmp	x2, x0
    90dc:	1a9fa7e0 	cset	w0, lt	// lt = tstop
    90e0:	1a9fd7e2 	cset	w2, gt
    90e4:	eb0400bf 	cmp	x5, x4
    90e8:	4b000042 	sub	w2, w2, w0
    90ec:	1a9fa7e4 	cset	w4, lt	// lt = tstop
    90f0:	1a9fd7e0 	cset	w0, gt
    90f4:	4b040000 	sub	w0, w0, w4
    90f8:	2b020400 	adds	w0, w0, w2, lsl #1
    90fc:	54000201 	b.ne	913c <setlocale@plt+0x52dc>  // b.any
    9100:	d503233f 	paciasp
    9104:	a9be7bfd 	stp	x29, x30, [sp, #-32]!
    9108:	910003fd 	mov	x29, sp
    910c:	a90153f3 	stp	x19, x20, [sp, #16]
    9110:	f9400034 	ldr	x20, [x1]
    9114:	f9400073 	ldr	x19, [x3]
    9118:	97ffeb3a 	bl	3e00 <__errno_location@plt>
    911c:	aa0003e2 	mov	x2, x0
    9120:	aa1403e1 	mov	x1, x20
    9124:	aa1303e0 	mov	x0, x19
    9128:	a94153f3 	ldp	x19, x20, [sp, #16]
    912c:	b900005f 	str	wzr, [x2]
    9130:	a8c27bfd 	ldp	x29, x30, [sp], #32
    9134:	d50323bf 	autiasp
    9138:	17ffeb12 	b	3d80 <strcoll@plt>
    913c:	d65f03c0 	ret
    9140:	d503233f 	paciasp
    9144:	a9bf7bfd 	stp	x29, x30, [sp, #-16]!
    9148:	910003fd 	mov	x29, sp
    914c:	b9409804 	ldr	w4, [x0, #152]
    9150:	b9409823 	ldr	w3, [x1, #152]
    9154:	7100249f 	cmp	w4, #0x9
    9158:	1a9f17e2 	cset	w2, eq	// eq = none
    915c:	71000c9f 	cmp	w4, #0x3
    9160:	1a9f17e4 	cset	w4, eq	// eq = none
    9164:	71000c7f 	cmp	w3, #0x3
    9168:	2a040042 	orr	w2, w2, w4
    916c:	7a491864 	ccmp	w3, #0x9, #0x4, ne	// ne = any
    9170:	540001a0 	b.eq	91a4 <setlocale@plt+0x5344>  // b.none
    9174:	b9409c23 	ldr	w3, [x1, #156]
    9178:	52800024 	mov	w4, #0x1                   	// #1
    917c:	12140c63 	and	w3, w3, #0xf000
    9180:	7140107f 	cmp	w3, #0x4, lsl #12
    9184:	1a9f17e3 	cset	w3, eq	// eq = none
    9188:	34000182 	cbz	w2, 91b8 <setlocale@plt+0x5358>
    918c:	6b040063 	subs	w3, w3, w4
    9190:	540000e0 	b.eq	91ac <setlocale@plt+0x534c>  // b.none
    9194:	a8c17bfd 	ldp	x29, x30, [sp], #16
    9198:	d50323bf 	autiasp
    919c:	2a0303e0 	mov	w0, w3
    91a0:	d65f03c0 	ret
    91a4:	52800023 	mov	w3, #0x1                   	// #1
    91a8:	34000082 	cbz	w2, 91b8 <setlocale@plt+0x5358>
    91ac:	a8c17bfd 	ldp	x29, x30, [sp], #16
    91b0:	d50323bf 	autiasp
    91b4:	17ffffc4 	b	90c4 <setlocale@plt+0x5264>
    91b8:	b9409c02 	ldr	w2, [x0, #156]
    91bc:	12140c42 	and	w2, w2, #0xf000
    91c0:	7140105f 	cmp	w2, #0x4, lsl #12
    91c4:	1a9f17e4 	cset	w4, eq	// eq = none
    91c8:	6b040063 	subs	w3, w3, w4
    91cc:	54fffe41 	b.ne	9194 <setlocale@plt+0x5334>  // b.any
    91d0:	17fffff7 	b	91ac <setlocale@plt+0x534c>
    91d4:	d503245f 	bti	c
    91d8:	f9403802 	ldr	x2, [x0, #112]
    91dc:	aa0003e3 	mov	x3, x0
    91e0:	a9471020 	ldp	x0, x4, [x1, #112]
    91e4:	f9403c65 	ldr	x5, [x3, #120]
    91e8:	eb00005f 	cmp	x2, x0
    91ec:	1a9fa7e0 	cset	w0, lt	// lt = tstop
    91f0:	1a9fd7e2 	cset	w2, gt
    91f4:	eb0400bf 	cmp	x5, x4
    91f8:	4b000042 	sub	w2, w2, w0
    91fc:	1a9fa7e4 	cset	w4, lt	// lt = tstop
    9200:	1a9fd7e0 	cset	w0, gt
    9204:	4b040000 	sub	w0, w0, w4
    9208:	2b020400 	adds	w0, w0, w2, lsl #1
    920c:	54000201 	b.ne	924c <setlocale@plt+0x53ec>  // b.any
    9210:	d503233f 	paciasp
    9214:	a9be7bfd 	stp	x29, x30, [sp, #-32]!
    9218:	910003fd 	mov	x29, sp
    921c:	a90153f3 	stp	x19, x20, [sp, #16]
    9220:	f9400033 	ldr	x19, [x1]
    9224:	f9400074 	ldr	x20, [x3]
    9228:	97ffeaf6 	bl	3e00 <__errno_location@plt>
    922c:	aa0003e2 	mov	x2, x0
    9230:	aa1303e0 	mov	x0, x19
    9234:	aa1403e1 	mov	x1, x20
    9238:	a94153f3 	ldp	x19, x20, [sp, #16]
    923c:	b900005f 	str	wzr, [x2]
    9240:	a8c27bfd 	ldp	x29, x30, [sp], #32
    9244:	d50323bf 	autiasp
    9248:	17ffeace 	b	3d80 <strcoll@plt>
    924c:	d65f03c0 	ret
    9250:	d503233f 	paciasp
    9254:	a9bf7bfd 	stp	x29, x30, [sp, #-16]!
    9258:	910003fd 	mov	x29, sp
    925c:	b9409804 	ldr	w4, [x0, #152]
    9260:	b9409823 	ldr	w3, [x1, #152]
    9264:	7100249f 	cmp	w4, #0x9
    9268:	1a9f17e2 	cset	w2, eq	// eq = none
    926c:	71000c9f 	cmp	w4, #0x3
    9270:	1a9f17e4 	cset	w4, eq	// eq = none
    9274:	71000c7f 	cmp	w3, #0x3
    9278:	2a040042 	orr	w2, w2, w4
    927c:	7a491864 	ccmp	w3, #0x9, #0x4, ne	// ne = any
    9280:	540001a0 	b.eq	92b4 <setlocale@plt+0x5454>  // b.none
    9284:	b9409c23 	ldr	w3, [x1, #156]
    9288:	52800024 	mov	w4, #0x1                   	// #1
    928c:	12140c63 	and	w3, w3, #0xf000
    9290:	7140107f 	cmp	w3, #0x4, lsl #12
    9294:	1a9f17e3 	cset	w3, eq	// eq = none
    9298:	34000182 	cbz	w2, 92c8 <setlocale@plt+0x5468>
    929c:	6b040063 	subs	w3, w3, w4
    92a0:	540000e0 	b.eq	92bc <setlocale@plt+0x545c>  // b.none
    92a4:	a8c17bfd 	ldp	x29, x30, [sp], #16
    92a8:	d50323bf 	autiasp
    92ac:	2a0303e0 	mov	w0, w3
    92b0:	d65f03c0 	ret
    92b4:	52800023 	mov	w3, #0x1                   	// #1
    92b8:	34000082 	cbz	w2, 92c8 <setlocale@plt+0x5468>
    92bc:	a8c17bfd 	ldp	x29, x30, [sp], #16
    92c0:	d50323bf 	autiasp
    92c4:	17ffffc4 	b	91d4 <setlocale@plt+0x5374>
    92c8:	b9409c02 	ldr	w2, [x0, #156]
    92cc:	12140c42 	and	w2, w2, #0xf000
    92d0:	7140105f 	cmp	w2, #0x4, lsl #12
    92d4:	1a9f17e4 	cset	w4, eq	// eq = none
    92d8:	6b040063 	subs	w3, w3, w4
    92dc:	54fffe41 	b.ne	92a4 <setlocale@plt+0x5444>  // b.any
    92e0:	17fffff7 	b	92bc <setlocale@plt+0x545c>
    92e4:	d503245f 	bti	c
    92e8:	a9461422 	ldp	x2, x5, [x1, #96]
    92ec:	aa0003e3 	mov	x3, x0
    92f0:	f9403000 	ldr	x0, [x0, #96]
    92f4:	f9403464 	ldr	x4, [x3, #104]
    92f8:	eb00005f 	cmp	x2, x0
    92fc:	1a9fa7e0 	cset	w0, lt	// lt = tstop
    9300:	1a9fd7e2 	cset	w2, gt
    9304:	eb0400bf 	cmp	x5, x4
    9308:	4b000042 	sub	w2, w2, w0
    930c:	1a9fa7e4 	cset	w4, lt	// lt = tstop
    9310:	1a9fd7e0 	cset	w0, gt
    9314:	4b040000 	sub	w0, w0, w4
    9318:	2b020400 	adds	w0, w0, w2, lsl #1
    931c:	54000201 	b.ne	935c <setlocale@plt+0x54fc>  // b.any
    9320:	d503233f 	paciasp
    9324:	a9be7bfd 	stp	x29, x30, [sp, #-32]!
    9328:	910003fd 	mov	x29, sp
    932c:	a90153f3 	stp	x19, x20, [sp, #16]
    9330:	f9400034 	ldr	x20, [x1]
    9334:	f9400073 	ldr	x19, [x3]
    9338:	97ffeab2 	bl	3e00 <__errno_location@plt>
    933c:	aa0003e2 	mov	x2, x0
    9340:	aa1403e1 	mov	x1, x20
    9344:	aa1303e0 	mov	x0, x19
    9348:	a94153f3 	ldp	x19, x20, [sp, #16]
    934c:	b900005f 	str	wzr, [x2]
    9350:	a8c27bfd 	ldp	x29, x30, [sp], #32
    9354:	d50323bf 	autiasp
    9358:	17ffea8a 	b	3d80 <strcoll@plt>
    935c:	d65f03c0 	ret
    9360:	d503233f 	paciasp
    9364:	a9bf7bfd 	stp	x29, x30, [sp, #-16]!
    9368:	910003fd 	mov	x29, sp
    936c:	b9409804 	ldr	w4, [x0, #152]
    9370:	b9409823 	ldr	w3, [x1, #152]
    9374:	7100249f 	cmp	w4, #0x9
    9378:	1a9f17e2 	cset	w2, eq	// eq = none
    937c:	71000c9f 	cmp	w4, #0x3
    9380:	1a9f17e4 	cset	w4, eq	// eq = none
    9384:	71000c7f 	cmp	w3, #0x3
    9388:	2a040042 	orr	w2, w2, w4
    938c:	7a491864 	ccmp	w3, #0x9, #0x4, ne	// ne = any
    9390:	540001a0 	b.eq	93c4 <setlocale@plt+0x5564>  // b.none
    9394:	b9409c23 	ldr	w3, [x1, #156]
    9398:	52800024 	mov	w4, #0x1                   	// #1
    939c:	12140c63 	and	w3, w3, #0xf000
    93a0:	7140107f 	cmp	w3, #0x4, lsl #12
    93a4:	1a9f17e3 	cset	w3, eq	// eq = none
    93a8:	34000182 	cbz	w2, 93d8 <setlocale@plt+0x5578>
    93ac:	6b040063 	subs	w3, w3, w4
    93b0:	540000e0 	b.eq	93cc <setlocale@plt+0x556c>  // b.none
    93b4:	a8c17bfd 	ldp	x29, x30, [sp], #16
    93b8:	d50323bf 	autiasp
    93bc:	2a0303e0 	mov	w0, w3
    93c0:	d65f03c0 	ret
    93c4:	52800023 	mov	w3, #0x1                   	// #1
    93c8:	34000082 	cbz	w2, 93d8 <setlocale@plt+0x5578>
    93cc:	a8c17bfd 	ldp	x29, x30, [sp], #16
    93d0:	d50323bf 	autiasp
    93d4:	17ffffc4 	b	92e4 <setlocale@plt+0x5484>
    93d8:	b9409c02 	ldr	w2, [x0, #156]
    93dc:	12140c42 	and	w2, w2, #0xf000
    93e0:	7140105f 	cmp	w2, #0x4, lsl #12
    93e4:	1a9f17e4 	cset	w4, eq	// eq = none
    93e8:	6b040063 	subs	w3, w3, w4
    93ec:	54fffe41 	b.ne	93b4 <setlocale@plt+0x5554>  // b.any
    93f0:	17fffff7 	b	93cc <setlocale@plt+0x556c>
    93f4:	d503245f 	bti	c
    93f8:	f9403002 	ldr	x2, [x0, #96]
    93fc:	aa0003e3 	mov	x3, x0
    9400:	a9461020 	ldp	x0, x4, [x1, #96]
    9404:	f9403465 	ldr	x5, [x3, #104]
    9408:	eb00005f 	cmp	x2, x0
    940c:	1a9fa7e0 	cset	w0, lt	// lt = tstop
    9410:	1a9fd7e2 	cset	w2, gt
    9414:	eb0400bf 	cmp	x5, x4
    9418:	4b000042 	sub	w2, w2, w0
    941c:	1a9fa7e4 	cset	w4, lt	// lt = tstop
    9420:	1a9fd7e0 	cset	w0, gt
    9424:	4b040000 	sub	w0, w0, w4
    9428:	2b020400 	adds	w0, w0, w2, lsl #1
    942c:	54000201 	b.ne	946c <setlocale@plt+0x560c>  // b.any
    9430:	d503233f 	paciasp
    9434:	a9be7bfd 	stp	x29, x30, [sp, #-32]!
    9438:	910003fd 	mov	x29, sp
    943c:	a90153f3 	stp	x19, x20, [sp, #16]
    9440:	f9400033 	ldr	x19, [x1]
    9444:	f9400074 	ldr	x20, [x3]
    9448:	97ffea6e 	bl	3e00 <__errno_location@plt>
    944c:	aa0003e2 	mov	x2, x0
    9450:	aa1303e0 	mov	x0, x19
    9454:	aa1403e1 	mov	x1, x20
    9458:	a94153f3 	ldp	x19, x20, [sp, #16]
    945c:	b900005f 	str	wzr, [x2]
    9460:	a8c27bfd 	ldp	x29, x30, [sp], #32
    9464:	d50323bf 	autiasp
    9468:	17ffea46 	b	3d80 <strcoll@plt>
    946c:	d65f03c0 	ret
    9470:	d503233f 	paciasp
    9474:	a9bf7bfd 	stp	x29, x30, [sp, #-16]!
    9478:	910003fd 	mov	x29, sp
    947c:	b9409804 	ldr	w4, [x0, #152]
    9480:	b9409823 	ldr	w3, [x1, #152]
    9484:	7100249f 	cmp	w4, #0x9
    9488:	1a9f17e2 	cset	w2, eq	// eq = none
    948c:	71000c9f 	cmp	w4, #0x3
    9490:	1a9f17e4 	cset	w4, eq	// eq = none
    9494:	71000c7f 	cmp	w3, #0x3
    9498:	2a040042 	orr	w2, w2, w4
    949c:	7a491864 	ccmp	w3, #0x9, #0x4, ne	// ne = any
    94a0:	540001a0 	b.eq	94d4 <setlocale@plt+0x5674>  // b.none
    94a4:	b9409c23 	ldr	w3, [x1, #156]
    94a8:	52800024 	mov	w4, #0x1                   	// #1
    94ac:	12140c63 	and	w3, w3, #0xf000
    94b0:	7140107f 	cmp	w3, #0x4, lsl #12
    94b4:	1a9f17e3 	cset	w3, eq	// eq = none
    94b8:	34000182 	cbz	w2, 94e8 <setlocale@plt+0x5688>
    94bc:	6b040063 	subs	w3, w3, w4
    94c0:	540000e0 	b.eq	94dc <setlocale@plt+0x567c>  // b.none
    94c4:	a8c17bfd 	ldp	x29, x30, [sp], #16
    94c8:	d50323bf 	autiasp
    94cc:	2a0303e0 	mov	w0, w3
    94d0:	d65f03c0 	ret
    94d4:	52800023 	mov	w3, #0x1                   	// #1
    94d8:	34000082 	cbz	w2, 94e8 <setlocale@plt+0x5688>
    94dc:	a8c17bfd 	ldp	x29, x30, [sp], #16
    94e0:	d50323bf 	autiasp
    94e4:	17ffffc4 	b	93f4 <setlocale@plt+0x5594>
    94e8:	b9409c02 	ldr	w2, [x0, #156]
    94ec:	12140c42 	and	w2, w2, #0xf000
    94f0:	7140105f 	cmp	w2, #0x4, lsl #12
    94f4:	1a9f17e4 	cset	w4, eq	// eq = none
    94f8:	6b040063 	subs	w3, w3, w4
    94fc:	54fffe41 	b.ne	94c4 <setlocale@plt+0x5664>  // b.any
    9500:	17fffff7 	b	94dc <setlocale@plt+0x567c>
    9504:	d503245f 	bti	c
    9508:	a9471426 	ldp	x6, x5, [x1, #112]
    950c:	aa0003e4 	mov	x4, x0
    9510:	f9403803 	ldr	x3, [x0, #112]
    9514:	eb0300df 	cmp	x6, x3
    9518:	f9403c83 	ldr	x3, [x4, #120]
    951c:	1a9fa7e0 	cset	w0, lt	// lt = tstop
    9520:	1a9fd7e2 	cset	w2, gt
    9524:	eb0300bf 	cmp	x5, x3
    9528:	4b000042 	sub	w2, w2, w0
    952c:	1a9fd7e3 	cset	w3, gt
    9530:	1a9fa7e0 	cset	w0, lt	// lt = tstop
    9534:	4b000063 	sub	w3, w3, w0
    9538:	2b020460 	adds	w0, w3, w2, lsl #1
    953c:	54000201 	b.ne	957c <setlocale@plt+0x571c>  // b.any
    9540:	d503233f 	paciasp
    9544:	a9be7bfd 	stp	x29, x30, [sp, #-32]!
    9548:	910003fd 	mov	x29, sp
    954c:	a90153f3 	stp	x19, x20, [sp, #16]
    9550:	f9400034 	ldr	x20, [x1]
    9554:	f9400093 	ldr	x19, [x4]
    9558:	97ffea2a 	bl	3e00 <__errno_location@plt>
    955c:	aa0003e2 	mov	x2, x0
    9560:	aa1403e1 	mov	x1, x20
    9564:	aa1303e0 	mov	x0, x19
    9568:	a94153f3 	ldp	x19, x20, [sp, #16]
    956c:	b900005f 	str	wzr, [x2]
    9570:	a8c27bfd 	ldp	x29, x30, [sp], #32
    9574:	d50323bf 	autiasp
    9578:	17ffea02 	b	3d80 <strcoll@plt>
    957c:	d65f03c0 	ret
    9580:	d503233f 	paciasp
    9584:	a9bf7bfd 	stp	x29, x30, [sp, #-16]!
    9588:	910003fd 	mov	x29, sp
    958c:	b9409804 	ldr	w4, [x0, #152]
    9590:	b9409823 	ldr	w3, [x1, #152]
    9594:	7100249f 	cmp	w4, #0x9
    9598:	1a9f17e2 	cset	w2, eq	// eq = none
    959c:	71000c9f 	cmp	w4, #0x3
    95a0:	1a9f17e4 	cset	w4, eq	// eq = none
    95a4:	71000c7f 	cmp	w3, #0x3
    95a8:	2a040042 	orr	w2, w2, w4
    95ac:	7a491864 	ccmp	w3, #0x9, #0x4, ne	// ne = any
    95b0:	540001a0 	b.eq	95e4 <setlocale@plt+0x5784>  // b.none
    95b4:	b9409c23 	ldr	w3, [x1, #156]
    95b8:	52800024 	mov	w4, #0x1                   	// #1
    95bc:	12140c63 	and	w3, w3, #0xf000
    95c0:	7140107f 	cmp	w3, #0x4, lsl #12
    95c4:	1a9f17e3 	cset	w3, eq	// eq = none
    95c8:	34000182 	cbz	w2, 95f8 <setlocale@plt+0x5798>
    95cc:	6b040063 	subs	w3, w3, w4
    95d0:	540000e0 	b.eq	95ec <setlocale@plt+0x578c>  // b.none
    95d4:	a8c17bfd 	ldp	x29, x30, [sp], #16
    95d8:	d50323bf 	autiasp
    95dc:	2a0303e0 	mov	w0, w3
    95e0:	d65f03c0 	ret
    95e4:	52800023 	mov	w3, #0x1                   	// #1
    95e8:	34000082 	cbz	w2, 95f8 <setlocale@plt+0x5798>
    95ec:	a8c17bfd 	ldp	x29, x30, [sp], #16
    95f0:	d50323bf 	autiasp
    95f4:	17ffffc4 	b	9504 <setlocale@plt+0x56a4>
    95f8:	b9409c02 	ldr	w2, [x0, #156]
    95fc:	12140c42 	and	w2, w2, #0xf000
    9600:	7140105f 	cmp	w2, #0x4, lsl #12
    9604:	1a9f17e4 	cset	w4, eq	// eq = none
    9608:	6b040063 	subs	w3, w3, w4
    960c:	54fffe41 	b.ne	95d4 <setlocale@plt+0x5774>  // b.any
    9610:	17fffff7 	b	95ec <setlocale@plt+0x578c>
    9614:	d503245f 	bti	c
    9618:	a9471406 	ldp	x6, x5, [x0, #112]
    961c:	aa0003e4 	mov	x4, x0
    9620:	f9403823 	ldr	x3, [x1, #112]
    9624:	eb0300df 	cmp	x6, x3
    9628:	f9403c23 	ldr	x3, [x1, #120]
    962c:	1a9fa7e0 	cset	w0, lt	// lt = tstop
    9630:	1a9fd7e2 	cset	w2, gt
    9634:	eb0300bf 	cmp	x5, x3
    9638:	4b000042 	sub	w2, w2, w0
    963c:	1a9fd7e3 	cset	w3, gt
    9640:	1a9fa7e0 	cset	w0, lt	// lt = tstop
    9644:	4b000063 	sub	w3, w3, w0
    9648:	2b020460 	adds	w0, w3, w2, lsl #1
    964c:	54000201 	b.ne	968c <setlocale@plt+0x582c>  // b.any
    9650:	d503233f 	paciasp
    9654:	a9be7bfd 	stp	x29, x30, [sp, #-32]!
    9658:	910003fd 	mov	x29, sp
    965c:	a90153f3 	stp	x19, x20, [sp, #16]
    9660:	f9400033 	ldr	x19, [x1]
    9664:	f9400094 	ldr	x20, [x4]
    9668:	97ffe9e6 	bl	3e00 <__errno_location@plt>
    966c:	aa0003e2 	mov	x2, x0
    9670:	aa1303e0 	mov	x0, x19
    9674:	aa1403e1 	mov	x1, x20
    9678:	a94153f3 	ldp	x19, x20, [sp, #16]
    967c:	b900005f 	str	wzr, [x2]
    9680:	a8c27bfd 	ldp	x29, x30, [sp], #32
    9684:	d50323bf 	autiasp
    9688:	17ffe9be 	b	3d80 <strcoll@plt>
    968c:	d65f03c0 	ret
    9690:	d503233f 	paciasp
    9694:	a9bf7bfd 	stp	x29, x30, [sp, #-16]!
    9698:	910003fd 	mov	x29, sp
    969c:	b9409804 	ldr	w4, [x0, #152]
    96a0:	b9409823 	ldr	w3, [x1, #152]
    96a4:	7100249f 	cmp	w4, #0x9
    96a8:	1a9f17e2 	cset	w2, eq	// eq = none
    96ac:	71000c9f 	cmp	w4, #0x3
    96b0:	1a9f17e4 	cset	w4, eq	// eq = none
    96b4:	71000c7f 	cmp	w3, #0x3
    96b8:	2a040042 	orr	w2, w2, w4
    96bc:	7a491864 	ccmp	w3, #0x9, #0x4, ne	// ne = any
    96c0:	540001a0 	b.eq	96f4 <setlocale@plt+0x5894>  // b.none
    96c4:	b9409c23 	ldr	w3, [x1, #156]
    96c8:	52800024 	mov	w4, #0x1                   	// #1
    96cc:	12140c63 	and	w3, w3, #0xf000
    96d0:	7140107f 	cmp	w3, #0x4, lsl #12
    96d4:	1a9f17e3 	cset	w3, eq	// eq = none
    96d8:	34000182 	cbz	w2, 9708 <setlocale@plt+0x58a8>
    96dc:	6b040063 	subs	w3, w3, w4
    96e0:	540000e0 	b.eq	96fc <setlocale@plt+0x589c>  // b.none
    96e4:	a8c17bfd 	ldp	x29, x30, [sp], #16
    96e8:	d50323bf 	autiasp
    96ec:	2a0303e0 	mov	w0, w3
    96f0:	d65f03c0 	ret
    96f4:	52800023 	mov	w3, #0x1                   	// #1
    96f8:	34000082 	cbz	w2, 9708 <setlocale@plt+0x58a8>
    96fc:	a8c17bfd 	ldp	x29, x30, [sp], #16
    9700:	d50323bf 	autiasp
    9704:	17ffffc4 	b	9614 <setlocale@plt+0x57b4>
    9708:	b9409c02 	ldr	w2, [x0, #156]
    970c:	12140c42 	and	w2, w2, #0xf000
    9710:	7140105f 	cmp	w2, #0x4, lsl #12
    9714:	1a9f17e4 	cset	w4, eq	// eq = none
    9718:	6b040063 	subs	w3, w3, w4
    971c:	54fffe41 	b.ne	96e4 <setlocale@plt+0x5884>  // b.any
    9720:	17fffff7 	b	96fc <setlocale@plt+0x589c>
    9724:	d503245f 	bti	c
    9728:	f9402422 	ldr	x2, [x1, #72]
    972c:	aa0003e3 	mov	x3, x0
    9730:	f9402400 	ldr	x0, [x0, #72]
    9734:	eb00005f 	cmp	x2, x0
    9738:	1a9fd7e2 	cset	w2, gt
    973c:	1a9fa7e0 	cset	w0, lt	// lt = tstop
    9740:	6b000040 	subs	w0, w2, w0
    9744:	54000201 	b.ne	9784 <setlocale@plt+0x5924>  // b.any
    9748:	d503233f 	paciasp
    974c:	a9be7bfd 	stp	x29, x30, [sp, #-32]!
    9750:	910003fd 	mov	x29, sp
    9754:	a90153f3 	stp	x19, x20, [sp, #16]
    9758:	f9400034 	ldr	x20, [x1]
    975c:	f9400073 	ldr	x19, [x3]
    9760:	97ffe9a8 	bl	3e00 <__errno_location@plt>
    9764:	aa0003e2 	mov	x2, x0
    9768:	aa1403e1 	mov	x1, x20
    976c:	aa1303e0 	mov	x0, x19
    9770:	a94153f3 	ldp	x19, x20, [sp, #16]
    9774:	b900005f 	str	wzr, [x2]
    9778:	a8c27bfd 	ldp	x29, x30, [sp], #32
    977c:	d50323bf 	autiasp
    9780:	17ffe980 	b	3d80 <strcoll@plt>
    9784:	d65f03c0 	ret
    9788:	d503201f 	nop
    978c:	d503201f 	nop
    9790:	d503245f 	bti	c
    9794:	f9402402 	ldr	x2, [x0, #72]
    9798:	aa0003e3 	mov	x3, x0
    979c:	f9402420 	ldr	x0, [x1, #72]
    97a0:	eb00005f 	cmp	x2, x0
    97a4:	1a9fd7e2 	cset	w2, gt
    97a8:	1a9fa7e0 	cset	w0, lt	// lt = tstop
    97ac:	6b000040 	subs	w0, w2, w0
    97b0:	54000201 	b.ne	97f0 <setlocale@plt+0x5990>  // b.any
    97b4:	d503233f 	paciasp
    97b8:	a9be7bfd 	stp	x29, x30, [sp, #-32]!
    97bc:	910003fd 	mov	x29, sp
    97c0:	a90153f3 	stp	x19, x20, [sp, #16]
    97c4:	f9400033 	ldr	x19, [x1]
    97c8:	f9400074 	ldr	x20, [x3]
    97cc:	97ffe98d 	bl	3e00 <__errno_location@plt>
    97d0:	aa0003e2 	mov	x2, x0
    97d4:	aa1303e0 	mov	x0, x19
    97d8:	aa1403e1 	mov	x1, x20
    97dc:	a94153f3 	ldp	x19, x20, [sp, #16]
    97e0:	b900005f 	str	wzr, [x2]
    97e4:	a8c27bfd 	ldp	x29, x30, [sp], #32
    97e8:	d50323bf 	autiasp
    97ec:	17ffe965 	b	3d80 <strcoll@plt>
    97f0:	d65f03c0 	ret
    97f4:	d503245f 	bti	c
    97f8:	b9409804 	ldr	w4, [x0, #152]
    97fc:	aa0003e3 	mov	x3, x0
    9800:	b9409822 	ldr	w2, [x1, #152]
    9804:	7100249f 	cmp	w4, #0x9
    9808:	1a9f17e0 	cset	w0, eq	// eq = none
    980c:	71000c9f 	cmp	w4, #0x3
    9810:	1a9f17e4 	cset	w4, eq	// eq = none
    9814:	71000c5f 	cmp	w2, #0x3
    9818:	2a040000 	orr	w0, w0, w4
    981c:	7a491844 	ccmp	w2, #0x9, #0x4, ne	// ne = any
    9820:	54000140 	b.eq	9848 <setlocale@plt+0x59e8>  // b.none
    9824:	b9409c22 	ldr	w2, [x1, #156]
    9828:	52800024 	mov	w4, #0x1                   	// #1
    982c:	12140c42 	and	w2, w2, #0xf000
    9830:	7140105f 	cmp	w2, #0x4, lsl #12
    9834:	1a9f17e2 	cset	w2, eq	// eq = none
    9838:	34000380 	cbz	w0, 98a8 <setlocale@plt+0x5a48>
    983c:	6b040040 	subs	w0, w2, w4
    9840:	54000080 	b.eq	9850 <setlocale@plt+0x59f0>  // b.none
    9844:	d65f03c0 	ret
    9848:	52800022 	mov	w2, #0x1                   	// #1
    984c:	340002e0 	cbz	w0, 98a8 <setlocale@plt+0x5a48>
    9850:	f9402422 	ldr	x2, [x1, #72]
    9854:	f9402460 	ldr	x0, [x3, #72]
    9858:	eb00005f 	cmp	x2, x0
    985c:	1a9fd7e2 	cset	w2, gt
    9860:	1a9fa7e0 	cset	w0, lt	// lt = tstop
    9864:	6b000040 	subs	w0, w2, w0
    9868:	54fffee1 	b.ne	9844 <setlocale@plt+0x59e4>  // b.any
    986c:	d503233f 	paciasp
    9870:	a9be7bfd 	stp	x29, x30, [sp, #-32]!
    9874:	910003fd 	mov	x29, sp
    9878:	a90153f3 	stp	x19, x20, [sp, #16]
    987c:	f9400034 	ldr	x20, [x1]
    9880:	f9400073 	ldr	x19, [x3]
    9884:	97ffe95f 	bl	3e00 <__errno_location@plt>
    9888:	aa0003e2 	mov	x2, x0
    988c:	aa1403e1 	mov	x1, x20
    9890:	aa1303e0 	mov	x0, x19
    9894:	a94153f3 	ldp	x19, x20, [sp, #16]
    9898:	b900005f 	str	wzr, [x2]
    989c:	a8c27bfd 	ldp	x29, x30, [sp], #32
    98a0:	d50323bf 	autiasp
    98a4:	17ffe937 	b	3d80 <strcoll@plt>
    98a8:	b9409c60 	ldr	w0, [x3, #156]
    98ac:	12140c00 	and	w0, w0, #0xf000
    98b0:	7140101f 	cmp	w0, #0x4, lsl #12
    98b4:	1a9f17e4 	cset	w4, eq	// eq = none
    98b8:	6b040040 	subs	w0, w2, w4
    98bc:	54fffc41 	b.ne	9844 <setlocale@plt+0x59e4>  // b.any
    98c0:	17ffffe4 	b	9850 <setlocale@plt+0x59f0>
    98c4:	d503245f 	bti	c
    98c8:	b9409804 	ldr	w4, [x0, #152]
    98cc:	aa0003e3 	mov	x3, x0
    98d0:	b9409822 	ldr	w2, [x1, #152]
    98d4:	7100249f 	cmp	w4, #0x9
    98d8:	1a9f17e0 	cset	w0, eq	// eq = none
    98dc:	71000c9f 	cmp	w4, #0x3
    98e0:	1a9f17e4 	cset	w4, eq	// eq = none
    98e4:	71000c5f 	cmp	w2, #0x3
    98e8:	2a040000 	orr	w0, w0, w4
    98ec:	7a491844 	ccmp	w2, #0x9, #0x4, ne	// ne = any
    98f0:	54000140 	b.eq	9918 <setlocale@plt+0x5ab8>  // b.none
    98f4:	b9409c22 	ldr	w2, [x1, #156]
    98f8:	52800024 	mov	w4, #0x1                   	// #1
    98fc:	12140c42 	and	w2, w2, #0xf000
    9900:	7140105f 	cmp	w2, #0x4, lsl #12
    9904:	1a9f17e2 	cset	w2, eq	// eq = none
    9908:	34000380 	cbz	w0, 9978 <setlocale@plt+0x5b18>
    990c:	6b040040 	subs	w0, w2, w4
    9910:	54000080 	b.eq	9920 <setlocale@plt+0x5ac0>  // b.none
    9914:	d65f03c0 	ret
    9918:	52800022 	mov	w2, #0x1                   	// #1
    991c:	340002e0 	cbz	w0, 9978 <setlocale@plt+0x5b18>
    9920:	f9402420 	ldr	x0, [x1, #72]
    9924:	f9402462 	ldr	x2, [x3, #72]
    9928:	eb00005f 	cmp	x2, x0
    992c:	1a9fd7e2 	cset	w2, gt
    9930:	1a9fa7e0 	cset	w0, lt	// lt = tstop
    9934:	6b000040 	subs	w0, w2, w0
    9938:	54fffee1 	b.ne	9914 <setlocale@plt+0x5ab4>  // b.any
    993c:	d503233f 	paciasp
    9940:	a9be7bfd 	stp	x29, x30, [sp, #-32]!
    9944:	910003fd 	mov	x29, sp
    9948:	a90153f3 	stp	x19, x20, [sp, #16]
    994c:	f9400033 	ldr	x19, [x1]
    9950:	f9400074 	ldr	x20, [x3]
    9954:	97ffe92b 	bl	3e00 <__errno_location@plt>
    9958:	aa0003e2 	mov	x2, x0
    995c:	aa1303e0 	mov	x0, x19
    9960:	aa1403e1 	mov	x1, x20
    9964:	a94153f3 	ldp	x19, x20, [sp, #16]
    9968:	b900005f 	str	wzr, [x2]
    996c:	a8c27bfd 	ldp	x29, x30, [sp], #32
    9970:	d50323bf 	autiasp
    9974:	17ffe903 	b	3d80 <strcoll@plt>
    9978:	b9409c60 	ldr	w0, [x3, #156]
    997c:	12140c00 	and	w0, w0, #0xf000
    9980:	7140101f 	cmp	w0, #0x4, lsl #12
    9984:	1a9f17e4 	cset	w4, eq	// eq = none
    9988:	6b040040 	subs	w0, w2, w4
    998c:	54fffc41 	b.ne	9914 <setlocale@plt+0x5ab4>  // b.any
    9990:	17ffffe4 	b	9920 <setlocale@plt+0x5ac0>
    9994:	d503233f 	paciasp
    9998:	a9be7bfd 	stp	x29, x30, [sp, #-32]!
    999c:	910003fd 	mov	x29, sp
    99a0:	a90153f3 	stp	x19, x20, [sp, #16]
    99a4:	f9400013 	ldr	x19, [x0]
    99a8:	f9400034 	ldr	x20, [x1]
    99ac:	97ffe915 	bl	3e00 <__errno_location@plt>
    99b0:	aa0003e2 	mov	x2, x0
    99b4:	aa1303e0 	mov	x0, x19
    99b8:	aa1403e1 	mov	x1, x20
    99bc:	a94153f3 	ldp	x19, x20, [sp, #16]
    99c0:	b900005f 	str	wzr, [x2]
    99c4:	a8c27bfd 	ldp	x29, x30, [sp], #32
    99c8:	d50323bf 	autiasp
    99cc:	17ffe8ed 	b	3d80 <strcoll@plt>
    99d0:	d503233f 	paciasp
    99d4:	a9be7bfd 	stp	x29, x30, [sp, #-32]!
    99d8:	910003fd 	mov	x29, sp
    99dc:	a90153f3 	stp	x19, x20, [sp, #16]
    99e0:	f9400033 	ldr	x19, [x1]
    99e4:	f9400014 	ldr	x20, [x0]
    99e8:	97ffe906 	bl	3e00 <__errno_location@plt>
    99ec:	aa0003e2 	mov	x2, x0
    99f0:	aa1303e0 	mov	x0, x19
    99f4:	aa1403e1 	mov	x1, x20
    99f8:	a94153f3 	ldp	x19, x20, [sp, #16]
    99fc:	b900005f 	str	wzr, [x2]
    9a00:	a8c27bfd 	ldp	x29, x30, [sp], #32
    9a04:	d50323bf 	autiasp
    9a08:	17ffe8de 	b	3d80 <strcoll@plt>
    9a0c:	d503201f 	nop
    9a10:	d503245f 	bti	c
    9a14:	b9409804 	ldr	w4, [x0, #152]
    9a18:	aa0003e2 	mov	x2, x0
    9a1c:	b9409820 	ldr	w0, [x1, #152]
    9a20:	71000c9f 	cmp	w4, #0x3
    9a24:	1a9f17e3 	cset	w3, eq	// eq = none
    9a28:	7100249f 	cmp	w4, #0x9
    9a2c:	1a9f17e4 	cset	w4, eq	// eq = none
    9a30:	71000c1f 	cmp	w0, #0x3
    9a34:	2a040063 	orr	w3, w3, w4
    9a38:	7a491804 	ccmp	w0, #0x9, #0x4, ne	// ne = any
    9a3c:	54000140 	b.eq	9a64 <setlocale@plt+0x5c04>  // b.none
    9a40:	b9409c20 	ldr	w0, [x1, #156]
    9a44:	52800024 	mov	w4, #0x1                   	// #1
    9a48:	12140c00 	and	w0, w0, #0xf000
    9a4c:	7140101f 	cmp	w0, #0x4, lsl #12
    9a50:	1a9f17e0 	cset	w0, eq	// eq = none
    9a54:	340002a3 	cbz	w3, 9aa8 <setlocale@plt+0x5c48>
    9a58:	6b040000 	subs	w0, w0, w4
    9a5c:	54000080 	b.eq	9a6c <setlocale@plt+0x5c0c>  // b.none
    9a60:	d65f03c0 	ret
    9a64:	52800020 	mov	w0, #0x1                   	// #1
    9a68:	34000203 	cbz	w3, 9aa8 <setlocale@plt+0x5c48>
    9a6c:	d503233f 	paciasp
    9a70:	a9be7bfd 	stp	x29, x30, [sp, #-32]!
    9a74:	910003fd 	mov	x29, sp
    9a78:	a90153f3 	stp	x19, x20, [sp, #16]
    9a7c:	f9400053 	ldr	x19, [x2]
    9a80:	f9400034 	ldr	x20, [x1]
    9a84:	97ffe8df 	bl	3e00 <__errno_location@plt>
    9a88:	aa0003e2 	mov	x2, x0
    9a8c:	aa1303e0 	mov	x0, x19
    9a90:	aa1403e1 	mov	x1, x20
    9a94:	a94153f3 	ldp	x19, x20, [sp, #16]
    9a98:	b900005f 	str	wzr, [x2]
    9a9c:	a8c27bfd 	ldp	x29, x30, [sp], #32
    9aa0:	d50323bf 	autiasp
    9aa4:	17ffe8b7 	b	3d80 <strcoll@plt>
    9aa8:	b9409c43 	ldr	w3, [x2, #156]
    9aac:	12140c63 	and	w3, w3, #0xf000
    9ab0:	7140107f 	cmp	w3, #0x4, lsl #12
    9ab4:	1a9f17e4 	cset	w4, eq	// eq = none
    9ab8:	6b040000 	subs	w0, w0, w4
    9abc:	54fffd21 	b.ne	9a60 <setlocale@plt+0x5c00>  // b.any
    9ac0:	17ffffeb 	b	9a6c <setlocale@plt+0x5c0c>
    9ac4:	d503245f 	bti	c
    9ac8:	b9409804 	ldr	w4, [x0, #152]
    9acc:	aa0003e2 	mov	x2, x0
    9ad0:	b9409820 	ldr	w0, [x1, #152]
    9ad4:	71000c9f 	cmp	w4, #0x3
    9ad8:	1a9f17e3 	cset	w3, eq	// eq = none
    9adc:	7100249f 	cmp	w4, #0x9
    9ae0:	1a9f17e4 	cset	w4, eq	// eq = none
    9ae4:	71000c1f 	cmp	w0, #0x3
    9ae8:	2a040063 	orr	w3, w3, w4
    9aec:	7a491804 	ccmp	w0, #0x9, #0x4, ne	// ne = any
    9af0:	54000140 	b.eq	9b18 <setlocale@plt+0x5cb8>  // b.none
    9af4:	b9409c20 	ldr	w0, [x1, #156]
    9af8:	52800024 	mov	w4, #0x1                   	// #1
    9afc:	12140c00 	and	w0, w0, #0xf000
    9b00:	7140101f 	cmp	w0, #0x4, lsl #12
    9b04:	1a9f17e0 	cset	w0, eq	// eq = none
    9b08:	340002a3 	cbz	w3, 9b5c <setlocale@plt+0x5cfc>
    9b0c:	6b040000 	subs	w0, w0, w4
    9b10:	54000080 	b.eq	9b20 <setlocale@plt+0x5cc0>  // b.none
    9b14:	d65f03c0 	ret
    9b18:	52800020 	mov	w0, #0x1                   	// #1
    9b1c:	34000203 	cbz	w3, 9b5c <setlocale@plt+0x5cfc>
    9b20:	d503233f 	paciasp
    9b24:	a9be7bfd 	stp	x29, x30, [sp, #-32]!
    9b28:	910003fd 	mov	x29, sp
    9b2c:	a90153f3 	stp	x19, x20, [sp, #16]
    9b30:	f9400033 	ldr	x19, [x1]
    9b34:	f9400054 	ldr	x20, [x2]
    9b38:	97ffe8b2 	bl	3e00 <__errno_location@plt>
    9b3c:	aa0003e2 	mov	x2, x0
    9b40:	aa1303e0 	mov	x0, x19
    9b44:	aa1403e1 	mov	x1, x20
    9b48:	a94153f3 	ldp	x19, x20, [sp, #16]
    9b4c:	b900005f 	str	wzr, [x2]
    9b50:	a8c27bfd 	ldp	x29, x30, [sp], #32
    9b54:	d50323bf 	autiasp
    9b58:	17ffe88a 	b	3d80 <strcoll@plt>
    9b5c:	b9409c43 	ldr	w3, [x2, #156]
    9b60:	12140c63 	and	w3, w3, #0xf000
    9b64:	7140107f 	cmp	w3, #0x4, lsl #12
    9b68:	1a9f17e4 	cset	w4, eq	// eq = none
    9b6c:	6b040000 	subs	w0, w0, w4
    9b70:	54fffd21 	b.ne	9b14 <setlocale@plt+0x5cb4>  // b.any
    9b74:	17ffffeb 	b	9b20 <setlocale@plt+0x5cc0>
    9b78:	d503201f 	nop
    9b7c:	d503201f 	nop
    9b80:	d503233f 	paciasp
    9b84:	a9bd7bfd 	stp	x29, x30, [sp, #-48]!
    9b88:	910003fd 	mov	x29, sp
    9b8c:	a90153f3 	stp	x19, x20, [sp, #16]
    9b90:	aa0103f3 	mov	x19, x1
    9b94:	528005c1 	mov	w1, #0x2e                  	// #46
    9b98:	a9025bf5 	stp	x21, x22, [sp, #32]
    9b9c:	f9400015 	ldr	x21, [x0]
    9ba0:	aa1503e0 	mov	x0, x21
    9ba4:	97ffe7e3 	bl	3b30 <strrchr@plt>
    9ba8:	f9400276 	ldr	x22, [x19]
    9bac:	528005c1 	mov	w1, #0x2e                  	// #46
    9bb0:	aa0003f3 	mov	x19, x0
    9bb4:	aa1603e0 	mov	x0, x22
    9bb8:	97ffe7de 	bl	3b30 <strrchr@plt>
    9bbc:	f100027f 	cmp	x19, #0x0
    9bc0:	aa0003f4 	mov	x20, x0
    9bc4:	90000080 	adrp	x0, 19000 <_obstack_memory_used@@Base+0xc1c0>
    9bc8:	912a0000 	add	x0, x0, #0xa80
    9bcc:	9a930013 	csel	x19, x0, x19, eq	// eq = none
    9bd0:	f100029f 	cmp	x20, #0x0
    9bd4:	9a940014 	csel	x20, x0, x20, eq	// eq = none
    9bd8:	97ffe88a 	bl	3e00 <__errno_location@plt>
    9bdc:	aa0003e2 	mov	x2, x0
    9be0:	aa1403e1 	mov	x1, x20
    9be4:	aa1303e0 	mov	x0, x19
    9be8:	b900005f 	str	wzr, [x2]
    9bec:	97ffe865 	bl	3d80 <strcoll@plt>
    9bf0:	35000100 	cbnz	w0, 9c10 <setlocale@plt+0x5db0>
    9bf4:	a94153f3 	ldp	x19, x20, [sp, #16]
    9bf8:	aa1603e1 	mov	x1, x22
    9bfc:	aa1503e0 	mov	x0, x21
    9c00:	a9425bf5 	ldp	x21, x22, [sp, #32]
    9c04:	a8c37bfd 	ldp	x29, x30, [sp], #48
    9c08:	d50323bf 	autiasp
    9c0c:	17ffe85d 	b	3d80 <strcoll@plt>
    9c10:	a94153f3 	ldp	x19, x20, [sp, #16]
    9c14:	a9425bf5 	ldp	x21, x22, [sp, #32]
    9c18:	a8c37bfd 	ldp	x29, x30, [sp], #48
    9c1c:	d50323bf 	autiasp
    9c20:	d65f03c0 	ret
    9c24:	d503233f 	paciasp
    9c28:	a9bf7bfd 	stp	x29, x30, [sp, #-16]!
    9c2c:	910003fd 	mov	x29, sp
    9c30:	b9409804 	ldr	w4, [x0, #152]
    9c34:	b9409823 	ldr	w3, [x1, #152]
    9c38:	7100249f 	cmp	w4, #0x9
    9c3c:	1a9f17e2 	cset	w2, eq	// eq = none
    9c40:	71000c9f 	cmp	w4, #0x3
    9c44:	1a9f17e4 	cset	w4, eq	// eq = none
    9c48:	71000c7f 	cmp	w3, #0x3
    9c4c:	2a040042 	orr	w2, w2, w4
    9c50:	7a491864 	ccmp	w3, #0x9, #0x4, ne	// ne = any
    9c54:	540001a0 	b.eq	9c88 <setlocale@plt+0x5e28>  // b.none
    9c58:	b9409c23 	ldr	w3, [x1, #156]
    9c5c:	52800024 	mov	w4, #0x1                   	// #1
    9c60:	12140c63 	and	w3, w3, #0xf000
    9c64:	7140107f 	cmp	w3, #0x4, lsl #12
    9c68:	1a9f17e3 	cset	w3, eq	// eq = none
    9c6c:	34000182 	cbz	w2, 9c9c <setlocale@plt+0x5e3c>
    9c70:	6b040063 	subs	w3, w3, w4
    9c74:	540000e0 	b.eq	9c90 <setlocale@plt+0x5e30>  // b.none
    9c78:	a8c17bfd 	ldp	x29, x30, [sp], #16
    9c7c:	d50323bf 	autiasp
    9c80:	2a0303e0 	mov	w0, w3
    9c84:	d65f03c0 	ret
    9c88:	52800023 	mov	w3, #0x1                   	// #1
    9c8c:	34000082 	cbz	w2, 9c9c <setlocale@plt+0x5e3c>
    9c90:	a8c17bfd 	ldp	x29, x30, [sp], #16
    9c94:	d50323bf 	autiasp
    9c98:	17ffffba 	b	9b80 <setlocale@plt+0x5d20>
    9c9c:	b9409c02 	ldr	w2, [x0, #156]
    9ca0:	12140c42 	and	w2, w2, #0xf000
    9ca4:	7140105f 	cmp	w2, #0x4, lsl #12
    9ca8:	1a9f17e4 	cset	w4, eq	// eq = none
    9cac:	6b040063 	subs	w3, w3, w4
    9cb0:	54fffe41 	b.ne	9c78 <setlocale@plt+0x5e18>  // b.any
    9cb4:	17fffff7 	b	9c90 <setlocale@plt+0x5e30>
    9cb8:	d503201f 	nop
    9cbc:	d503201f 	nop
    9cc0:	d503245f 	bti	c
    9cc4:	aa0103e2 	mov	x2, x1
    9cc8:	d503233f 	paciasp
    9ccc:	a9bd7bfd 	stp	x29, x30, [sp, #-48]!
    9cd0:	528005c1 	mov	w1, #0x2e                  	// #46
    9cd4:	910003fd 	mov	x29, sp
    9cd8:	a90153f3 	stp	x19, x20, [sp, #16]
    9cdc:	aa0003f3 	mov	x19, x0
    9ce0:	a9025bf5 	stp	x21, x22, [sp, #32]
    9ce4:	f9400055 	ldr	x21, [x2]
    9ce8:	aa1503e0 	mov	x0, x21
    9cec:	97ffe791 	bl	3b30 <strrchr@plt>
    9cf0:	f9400276 	ldr	x22, [x19]
    9cf4:	528005c1 	mov	w1, #0x2e                  	// #46
    9cf8:	aa0003f3 	mov	x19, x0
    9cfc:	aa1603e0 	mov	x0, x22
    9d00:	97ffe78c 	bl	3b30 <strrchr@plt>
    9d04:	f100027f 	cmp	x19, #0x0
    9d08:	aa0003f4 	mov	x20, x0
    9d0c:	90000080 	adrp	x0, 19000 <_obstack_memory_used@@Base+0xc1c0>
    9d10:	912a0000 	add	x0, x0, #0xa80
    9d14:	9a930013 	csel	x19, x0, x19, eq	// eq = none
    9d18:	f100029f 	cmp	x20, #0x0
    9d1c:	9a940014 	csel	x20, x0, x20, eq	// eq = none
    9d20:	97ffe838 	bl	3e00 <__errno_location@plt>
    9d24:	aa0003e2 	mov	x2, x0
    9d28:	aa1403e1 	mov	x1, x20
    9d2c:	aa1303e0 	mov	x0, x19
    9d30:	b900005f 	str	wzr, [x2]
    9d34:	97ffe813 	bl	3d80 <strcoll@plt>
    9d38:	35000100 	cbnz	w0, 9d58 <setlocale@plt+0x5ef8>
    9d3c:	a94153f3 	ldp	x19, x20, [sp, #16]
    9d40:	aa1603e1 	mov	x1, x22
    9d44:	aa1503e0 	mov	x0, x21
    9d48:	a9425bf5 	ldp	x21, x22, [sp, #32]
    9d4c:	a8c37bfd 	ldp	x29, x30, [sp], #48
    9d50:	d50323bf 	autiasp
    9d54:	17ffe80b 	b	3d80 <strcoll@plt>
    9d58:	a94153f3 	ldp	x19, x20, [sp, #16]
    9d5c:	a9425bf5 	ldp	x21, x22, [sp, #32]
    9d60:	a8c37bfd 	ldp	x29, x30, [sp], #48
    9d64:	d50323bf 	autiasp
    9d68:	d65f03c0 	ret
    9d6c:	d503201f 	nop
    9d70:	d503233f 	paciasp
    9d74:	a9bf7bfd 	stp	x29, x30, [sp, #-16]!
    9d78:	910003fd 	mov	x29, sp
    9d7c:	b9409804 	ldr	w4, [x0, #152]
    9d80:	b9409823 	ldr	w3, [x1, #152]
    9d84:	7100249f 	cmp	w4, #0x9
    9d88:	1a9f17e2 	cset	w2, eq	// eq = none
    9d8c:	71000c9f 	cmp	w4, #0x3
    9d90:	1a9f17e4 	cset	w4, eq	// eq = none
    9d94:	71000c7f 	cmp	w3, #0x3
    9d98:	2a040042 	orr	w2, w2, w4
    9d9c:	7a491864 	ccmp	w3, #0x9, #0x4, ne	// ne = any
    9da0:	540001a0 	b.eq	9dd4 <setlocale@plt+0x5f74>  // b.none
    9da4:	b9409c23 	ldr	w3, [x1, #156]
    9da8:	52800024 	mov	w4, #0x1                   	// #1
    9dac:	12140c63 	and	w3, w3, #0xf000
    9db0:	7140107f 	cmp	w3, #0x4, lsl #12
    9db4:	1a9f17e3 	cset	w3, eq	// eq = none
    9db8:	34000182 	cbz	w2, 9de8 <setlocale@plt+0x5f88>
    9dbc:	6b040063 	subs	w3, w3, w4
    9dc0:	540000e0 	b.eq	9ddc <setlocale@plt+0x5f7c>  // b.none
    9dc4:	a8c17bfd 	ldp	x29, x30, [sp], #16
    9dc8:	d50323bf 	autiasp
    9dcc:	2a0303e0 	mov	w0, w3
    9dd0:	d65f03c0 	ret
    9dd4:	52800023 	mov	w3, #0x1                   	// #1
    9dd8:	34000082 	cbz	w2, 9de8 <setlocale@plt+0x5f88>
    9ddc:	a8c17bfd 	ldp	x29, x30, [sp], #16
    9de0:	d50323bf 	autiasp
    9de4:	17ffffb7 	b	9cc0 <setlocale@plt+0x5e60>
    9de8:	b9409c02 	ldr	w2, [x0, #156]
    9dec:	12140c42 	and	w2, w2, #0xf000
    9df0:	7140105f 	cmp	w2, #0x4, lsl #12
    9df4:	1a9f17e4 	cset	w4, eq	// eq = none
    9df8:	6b040063 	subs	w3, w3, w4
    9dfc:	54fffe41 	b.ne	9dc4 <setlocale@plt+0x5f64>  // b.any
    9e00:	17fffff7 	b	9ddc <setlocale@plt+0x5f7c>
    9e04:	d503233f 	paciasp
    9e08:	a9be7bfd 	stp	x29, x30, [sp, #-32]!
    9e0c:	910003fd 	mov	x29, sp
    9e10:	a90153f3 	stp	x19, x20, [sp, #16]
    9e14:	f9400014 	ldr	x20, [x0]
    9e18:	f9400033 	ldr	x19, [x1]
    9e1c:	aa1403e1 	mov	x1, x20
    9e20:	aa1303e0 	mov	x0, x19
    9e24:	94001c9f 	bl	110a0 <_obstack_memory_used@@Base+0x4260>
    9e28:	350000e0 	cbnz	w0, 9e44 <setlocale@plt+0x5fe4>
    9e2c:	aa1403e1 	mov	x1, x20
    9e30:	aa1303e0 	mov	x0, x19
    9e34:	a94153f3 	ldp	x19, x20, [sp, #16]
    9e38:	a8c27bfd 	ldp	x29, x30, [sp], #32
    9e3c:	d50323bf 	autiasp
    9e40:	17ffe778 	b	3c20 <strcmp@plt>
    9e44:	a94153f3 	ldp	x19, x20, [sp, #16]
    9e48:	a8c27bfd 	ldp	x29, x30, [sp], #32
    9e4c:	d50323bf 	autiasp
    9e50:	d65f03c0 	ret
    9e54:	d503233f 	paciasp
    9e58:	a9be7bfd 	stp	x29, x30, [sp, #-32]!
    9e5c:	910003fd 	mov	x29, sp
    9e60:	a90153f3 	stp	x19, x20, [sp, #16]
    9e64:	f9400013 	ldr	x19, [x0]
    9e68:	f9400034 	ldr	x20, [x1]
    9e6c:	aa1303e0 	mov	x0, x19
    9e70:	aa1403e1 	mov	x1, x20
    9e74:	94001c8b 	bl	110a0 <_obstack_memory_used@@Base+0x4260>
    9e78:	350000e0 	cbnz	w0, 9e94 <setlocale@plt+0x6034>
    9e7c:	aa1403e1 	mov	x1, x20
    9e80:	aa1303e0 	mov	x0, x19
    9e84:	a94153f3 	ldp	x19, x20, [sp, #16]
    9e88:	a8c27bfd 	ldp	x29, x30, [sp], #32
    9e8c:	d50323bf 	autiasp
    9e90:	17ffe764 	b	3c20 <strcmp@plt>
    9e94:	a94153f3 	ldp	x19, x20, [sp, #16]
    9e98:	a8c27bfd 	ldp	x29, x30, [sp], #32
    9e9c:	d50323bf 	autiasp
    9ea0:	d65f03c0 	ret
    9ea4:	d503245f 	bti	c
    9ea8:	b9409804 	ldr	w4, [x0, #152]
    9eac:	aa0003e3 	mov	x3, x0
    9eb0:	b9409822 	ldr	w2, [x1, #152]
    9eb4:	71000c9f 	cmp	w4, #0x3
    9eb8:	1a9f17e0 	cset	w0, eq	// eq = none
    9ebc:	7100249f 	cmp	w4, #0x9
    9ec0:	1a9f17e4 	cset	w4, eq	// eq = none
    9ec4:	71000c5f 	cmp	w2, #0x3
    9ec8:	2a040000 	orr	w0, w0, w4
    9ecc:	7a491844 	ccmp	w2, #0x9, #0x4, ne	// ne = any
    9ed0:	54000140 	b.eq	9ef8 <setlocale@plt+0x6098>  // b.none
    9ed4:	b9409c22 	ldr	w2, [x1, #156]
    9ed8:	52800024 	mov	w4, #0x1                   	// #1
    9edc:	12140c42 	and	w2, w2, #0xf000
    9ee0:	7140105f 	cmp	w2, #0x4, lsl #12
    9ee4:	1a9f17e2 	cset	w2, eq	// eq = none
    9ee8:	340002c0 	cbz	w0, 9f40 <setlocale@plt+0x60e0>
    9eec:	6b040040 	subs	w0, w2, w4
    9ef0:	54000080 	b.eq	9f00 <setlocale@plt+0x60a0>  // b.none
    9ef4:	d65f03c0 	ret
    9ef8:	52800022 	mov	w2, #0x1                   	// #1
    9efc:	34000220 	cbz	w0, 9f40 <setlocale@plt+0x60e0>
    9f00:	d503233f 	paciasp
    9f04:	a9be7bfd 	stp	x29, x30, [sp, #-32]!
    9f08:	910003fd 	mov	x29, sp
    9f0c:	a90153f3 	stp	x19, x20, [sp, #16]
    9f10:	f9400034 	ldr	x20, [x1]
    9f14:	f9400073 	ldr	x19, [x3]
    9f18:	aa1403e1 	mov	x1, x20
    9f1c:	aa1303e0 	mov	x0, x19
    9f20:	94001c60 	bl	110a0 <_obstack_memory_used@@Base+0x4260>
    9f24:	350001c0 	cbnz	w0, 9f5c <setlocale@plt+0x60fc>
    9f28:	aa1403e1 	mov	x1, x20
    9f2c:	aa1303e0 	mov	x0, x19
    9f30:	a94153f3 	ldp	x19, x20, [sp, #16]
    9f34:	a8c27bfd 	ldp	x29, x30, [sp], #32
    9f38:	d50323bf 	autiasp
    9f3c:	17ffe739 	b	3c20 <strcmp@plt>
    9f40:	b9409c60 	ldr	w0, [x3, #156]
    9f44:	12140c00 	and	w0, w0, #0xf000
    9f48:	7140101f 	cmp	w0, #0x4, lsl #12
    9f4c:	1a9f17e4 	cset	w4, eq	// eq = none
    9f50:	6b040040 	subs	w0, w2, w4
    9f54:	54fffd01 	b.ne	9ef4 <setlocale@plt+0x6094>  // b.any
    9f58:	17ffffea 	b	9f00 <setlocale@plt+0x60a0>
    9f5c:	a94153f3 	ldp	x19, x20, [sp, #16]
    9f60:	a8c27bfd 	ldp	x29, x30, [sp], #32
    9f64:	d50323bf 	autiasp
    9f68:	d65f03c0 	ret
    9f6c:	d503201f 	nop
    9f70:	d503245f 	bti	c
    9f74:	b9409804 	ldr	w4, [x0, #152]
    9f78:	aa0003e3 	mov	x3, x0
    9f7c:	b9409822 	ldr	w2, [x1, #152]
    9f80:	71000c9f 	cmp	w4, #0x3
    9f84:	1a9f17e0 	cset	w0, eq	// eq = none
    9f88:	7100249f 	cmp	w4, #0x9
    9f8c:	1a9f17e4 	cset	w4, eq	// eq = none
    9f90:	71000c5f 	cmp	w2, #0x3
    9f94:	2a040000 	orr	w0, w0, w4
    9f98:	7a491844 	ccmp	w2, #0x9, #0x4, ne	// ne = any
    9f9c:	54000140 	b.eq	9fc4 <setlocale@plt+0x6164>  // b.none
    9fa0:	b9409c22 	ldr	w2, [x1, #156]
    9fa4:	52800024 	mov	w4, #0x1                   	// #1
    9fa8:	12140c42 	and	w2, w2, #0xf000
    9fac:	7140105f 	cmp	w2, #0x4, lsl #12
    9fb0:	1a9f17e2 	cset	w2, eq	// eq = none
    9fb4:	340002c0 	cbz	w0, a00c <setlocale@plt+0x61ac>
    9fb8:	6b040040 	subs	w0, w2, w4
    9fbc:	54000080 	b.eq	9fcc <setlocale@plt+0x616c>  // b.none
    9fc0:	d65f03c0 	ret
    9fc4:	52800022 	mov	w2, #0x1                   	// #1
    9fc8:	34000220 	cbz	w0, a00c <setlocale@plt+0x61ac>
    9fcc:	d503233f 	paciasp
    9fd0:	a9be7bfd 	stp	x29, x30, [sp, #-32]!
    9fd4:	910003fd 	mov	x29, sp
    9fd8:	a90153f3 	stp	x19, x20, [sp, #16]
    9fdc:	f9400033 	ldr	x19, [x1]
    9fe0:	f9400074 	ldr	x20, [x3]
    9fe4:	aa1303e0 	mov	x0, x19
    9fe8:	aa1403e1 	mov	x1, x20
    9fec:	94001c2d 	bl	110a0 <_obstack_memory_used@@Base+0x4260>
    9ff0:	350001c0 	cbnz	w0, a028 <setlocale@plt+0x61c8>
    9ff4:	aa1403e1 	mov	x1, x20
    9ff8:	aa1303e0 	mov	x0, x19
    9ffc:	a94153f3 	ldp	x19, x20, [sp, #16]
    a000:	a8c27bfd 	ldp	x29, x30, [sp], #32
    a004:	d50323bf 	autiasp
    a008:	17ffe706 	b	3c20 <strcmp@plt>
    a00c:	b9409c60 	ldr	w0, [x3, #156]
    a010:	12140c00 	and	w0, w0, #0xf000
    a014:	7140101f 	cmp	w0, #0x4, lsl #12
    a018:	1a9f17e4 	cset	w4, eq	// eq = none
    a01c:	6b040040 	subs	w0, w2, w4
    a020:	54fffd01 	b.ne	9fc0 <setlocale@plt+0x6160>  // b.any
    a024:	17ffffea 	b	9fcc <setlocale@plt+0x616c>
    a028:	a94153f3 	ldp	x19, x20, [sp, #16]
    a02c:	a8c27bfd 	ldp	x29, x30, [sp], #32
    a030:	d50323bf 	autiasp
    a034:	d65f03c0 	ret
    a038:	d503201f 	nop
    a03c:	d503201f 	nop
    a040:	d503233f 	paciasp
    a044:	a9bd7bfd 	stp	x29, x30, [sp, #-48]!
    a048:	910003fd 	mov	x29, sp
    a04c:	b4000540 	cbz	x0, a0f4 <setlocale@plt+0x6294>
    a050:	a90153f3 	stp	x19, x20, [sp, #16]
    a054:	2a0203f3 	mov	w19, w2
    a058:	aa0003f4 	mov	x20, x0
    a05c:	a9025bf5 	stp	x21, x22, [sp, #32]
    a060:	97ffe5e8 	bl	3800 <strlen@plt>
    a064:	aa0003e1 	mov	x1, x0
    a068:	aa1403e0 	mov	x0, x20
    a06c:	94002279 	bl	12a50 <_obstack_memory_used@@Base+0x5c10>
    a070:	6b000273 	subs	w19, w19, w0
    a074:	aa1403e0 	mov	x0, x20
    a078:	1a9f5273 	csel	w19, w19, wzr, pl	// pl = nfrst
    a07c:	52800416 	mov	w22, #0x20                  	// #32
    a080:	b0000135 	adrp	x21, 2f000 <_obstack_memory_used@@Base+0x221c0>
    a084:	f947e2b5 	ldr	x21, [x21, #4032]
    a088:	97ffe5de 	bl	3800 <strlen@plt>
    a08c:	aa0003e1 	mov	x1, x0
    a090:	aa1403e0 	mov	x0, x20
    a094:	d0000134 	adrp	x20, 30000 <_obstack_memory_used@@Base+0x231c0>
    a098:	910ac294 	add	x20, x20, #0x2b0
    a09c:	97fff4e5 	bl	7430 <setlocale@plt+0x35d0>
    a0a0:	f94002a0 	ldr	x0, [x21]
    a0a4:	f9400a81 	ldr	x1, [x20, #16]
    a0a8:	a9428c02 	ldp	x2, x3, [x0, #40]
    a0ac:	91000421 	add	x1, x1, #0x1
    a0b0:	f9000a81 	str	x1, [x20, #16]
    a0b4:	91000444 	add	x4, x2, #0x1
    a0b8:	eb03005f 	cmp	x2, x3
    a0bc:	54000162 	b.cs	a0e8 <setlocale@plt+0x6288>  // b.hs, b.nlast
    a0c0:	f9001404 	str	x4, [x0, #40]
    a0c4:	39000056 	strb	w22, [x2]
    a0c8:	51000673 	sub	w19, w19, #0x1
    a0cc:	3100067f 	cmn	w19, #0x1
    a0d0:	54fffe81 	b.ne	a0a0 <setlocale@plt+0x6240>  // b.any
    a0d4:	a94153f3 	ldp	x19, x20, [sp, #16]
    a0d8:	a9425bf5 	ldp	x21, x22, [sp, #32]
    a0dc:	a8c37bfd 	ldp	x29, x30, [sp], #48
    a0e0:	d50323bf 	autiasp
    a0e4:	d65f03c0 	ret
    a0e8:	52800401 	mov	w1, #0x20                  	// #32
    a0ec:	97ffe6b1 	bl	3bb0 <__overflow@plt>
    a0f0:	17fffff6 	b	a0c8 <setlocale@plt+0x6268>
    a0f4:	aa0103e3 	mov	x3, x1
    a0f8:	52800040 	mov	w0, #0x2                   	// #2
    a0fc:	b0000081 	adrp	x1, 1b000 <_obstack_memory_used@@Base+0xe1c0>
    a100:	9127a021 	add	x1, x1, #0x9e8
    a104:	97ffe65f 	bl	3a80 <__printf_chk@plt>
    a108:	d0000121 	adrp	x1, 30000 <_obstack_memory_used@@Base+0x231c0>
    a10c:	910ac021 	add	x1, x1, #0x2b0
    a110:	f9400822 	ldr	x2, [x1, #16]
    a114:	8b20c040 	add	x0, x2, w0, sxtw
    a118:	f9000820 	str	x0, [x1, #16]
    a11c:	a8c37bfd 	ldp	x29, x30, [sp], #48
    a120:	d50323bf 	autiasp
    a124:	d65f03c0 	ret
    a128:	d503201f 	nop
    a12c:	d503201f 	nop
    a130:	d503233f 	paciasp
    a134:	a9be7bfd 	stp	x29, x30, [sp, #-32]!
    a138:	d284040d 	mov	x13, #0x2020                	// #8224
    a13c:	910003fd 	mov	x29, sp
    a140:	a90153f3 	stp	x19, x20, [sp, #16]
    a144:	cb2d63ff 	sub	sp, sp, x13
    a148:	f90203ff 	str	xzr, [sp, #1024]
    a14c:	b0000124 	adrp	x4, 2f000 <_obstack_memory_used@@Base+0x221c0>
    a150:	f947e884 	ldr	x4, [x4, #4048]
    a154:	aa0003f4 	mov	x20, x0
    a158:	aa0103e0 	mov	x0, x1
    a15c:	2a0203e3 	mov	w3, w2
    a160:	aa0003e2 	mov	x2, x0
    a164:	f9400080 	ldr	x0, [x4]
    a168:	f9100fe0 	str	x0, [sp, #8216]
    a16c:	d2800000 	mov	x0, #0x0                   	// #0
    a170:	910063f3 	add	x19, sp, #0x18
    a174:	aa1403e1 	mov	x1, x20
    a178:	91001fe5 	add	x5, sp, #0x7
    a17c:	910023e4 	add	x4, sp, #0x8
    a180:	910043e0 	add	x0, sp, #0x10
    a184:	f9000bf3 	str	x19, [sp, #16]
    a188:	940022a6 	bl	12c20 <_obstack_memory_used@@Base+0x5de0>
    a18c:	f9400be0 	ldr	x0, [sp, #16]
    a190:	eb14001f 	cmp	x0, x20
    a194:	fa401264 	ccmp	x19, x0, #0x4, ne	// ne = any
    a198:	54000040 	b.eq	a1a0 <setlocale@plt+0x6340>  // b.none
    a19c:	97ffe6b1 	bl	3c60 <free@plt>
    a1a0:	f94007e2 	ldr	x2, [sp, #8]
    a1a4:	b0000121 	adrp	x1, 2f000 <_obstack_memory_used@@Base+0x221c0>
    a1a8:	f947e821 	ldr	x1, [x1, #4048]
    a1ac:	39401fe0 	ldrb	w0, [sp, #7]
    a1b0:	f9500fe4 	ldr	x4, [sp, #8216]
    a1b4:	f9400023 	ldr	x3, [x1]
    a1b8:	eb030084 	subs	x4, x4, x3
    a1bc:	d2800003 	mov	x3, #0x0                   	// #0
    a1c0:	8b020000 	add	x0, x0, x2
    a1c4:	540000e1 	b.ne	a1e0 <setlocale@plt+0x6380>  // b.any
    a1c8:	d284040d 	mov	x13, #0x2020                	// #8224
    a1cc:	8b2d63ff 	add	sp, sp, x13
    a1d0:	a94153f3 	ldp	x19, x20, [sp, #16]
    a1d4:	a8c27bfd 	ldp	x29, x30, [sp], #32
    a1d8:	d50323bf 	autiasp
    a1dc:	d65f03c0 	ret
    a1e0:	97ffe64c 	bl	3b10 <__stack_chk_fail@plt>
    a1e4:	d503233f 	paciasp
    a1e8:	a9bd7bfd 	stp	x29, x30, [sp, #-48]!
    a1ec:	910003fd 	mov	x29, sp
    a1f0:	f9405c22 	ldr	x2, [x1, #184]
    a1f4:	a90153f3 	stp	x19, x20, [sp, #16]
    a1f8:	aa0103f4 	mov	x20, x1
    a1fc:	f90013f5 	str	x21, [sp, #32]
    a200:	aa0003f5 	mov	x21, x0
    a204:	b4000302 	cbz	x2, a264 <setlocale@plt+0x6404>
    a208:	f9405ea0 	ldr	x0, [x21, #184]
    a20c:	2a0203f3 	mov	w19, w2
    a210:	b40001e0 	cbz	x0, a24c <setlocale@plt+0x63ec>
    a214:	6b000260 	subs	w0, w19, w0
    a218:	54000101 	b.ne	a238 <setlocale@plt+0x63d8>  // b.any
    a21c:	f9400280 	ldr	x0, [x20]
    a220:	f94002a1 	ldr	x1, [x21]
    a224:	a94153f3 	ldp	x19, x20, [sp, #16]
    a228:	f94013f5 	ldr	x21, [sp, #32]
    a22c:	a8c37bfd 	ldp	x29, x30, [sp], #48
    a230:	d50323bf 	autiasp
    a234:	17ffe67b 	b	3c20 <strcmp@plt>
    a238:	a94153f3 	ldp	x19, x20, [sp, #16]
    a23c:	f94013f5 	ldr	x21, [sp, #32]
    a240:	a8c37bfd 	ldp	x29, x30, [sp], #48
    a244:	d50323bf 	autiasp
    a248:	d65f03c0 	ret
    a24c:	d0000121 	adrp	x1, 30000 <_obstack_memory_used@@Base+0x231c0>
    a250:	b940b6a2 	ldr	w2, [x21, #180]
    a254:	f94002a0 	ldr	x0, [x21]
    a258:	f9479021 	ldr	x1, [x1, #3872]
    a25c:	97ffffb5 	bl	a130 <setlocale@plt+0x62d0>
    a260:	17ffffed 	b	a214 <setlocale@plt+0x63b4>
    a264:	d0000121 	adrp	x1, 30000 <_obstack_memory_used@@Base+0x231c0>
    a268:	b940b682 	ldr	w2, [x20, #180]
    a26c:	f9400280 	ldr	x0, [x20]
    a270:	f9479021 	ldr	x1, [x1, #3872]
    a274:	97ffffaf 	bl	a130 <setlocale@plt+0x62d0>
    a278:	aa0003e2 	mov	x2, x0
    a27c:	17ffffe3 	b	a208 <setlocale@plt+0x63a8>
    a280:	d503233f 	paciasp
    a284:	a9bf7bfd 	stp	x29, x30, [sp, #-16]!
    a288:	910003fd 	mov	x29, sp
    a28c:	b9409804 	ldr	w4, [x0, #152]
    a290:	b9409823 	ldr	w3, [x1, #152]
    a294:	7100249f 	cmp	w4, #0x9
    a298:	1a9f17e2 	cset	w2, eq	// eq = none
    a29c:	71000c9f 	cmp	w4, #0x3
    a2a0:	1a9f17e4 	cset	w4, eq	// eq = none
    a2a4:	71000c7f 	cmp	w3, #0x3
    a2a8:	2a040042 	orr	w2, w2, w4
    a2ac:	7a491864 	ccmp	w3, #0x9, #0x4, ne	// ne = any
    a2b0:	540001a0 	b.eq	a2e4 <setlocale@plt+0x6484>  // b.none
    a2b4:	b9409c23 	ldr	w3, [x1, #156]
    a2b8:	52800024 	mov	w4, #0x1                   	// #1
    a2bc:	12140c63 	and	w3, w3, #0xf000
    a2c0:	7140107f 	cmp	w3, #0x4, lsl #12
    a2c4:	1a9f17e3 	cset	w3, eq	// eq = none
    a2c8:	34000182 	cbz	w2, a2f8 <setlocale@plt+0x6498>
    a2cc:	6b040063 	subs	w3, w3, w4
    a2d0:	540000e0 	b.eq	a2ec <setlocale@plt+0x648c>  // b.none
    a2d4:	a8c17bfd 	ldp	x29, x30, [sp], #16
    a2d8:	d50323bf 	autiasp
    a2dc:	2a0303e0 	mov	w0, w3
    a2e0:	d65f03c0 	ret
    a2e4:	52800023 	mov	w3, #0x1                   	// #1
    a2e8:	34000082 	cbz	w2, a2f8 <setlocale@plt+0x6498>
    a2ec:	a8c17bfd 	ldp	x29, x30, [sp], #16
    a2f0:	d50323bf 	autiasp
    a2f4:	17ffffbc 	b	a1e4 <setlocale@plt+0x6384>
    a2f8:	b9409c02 	ldr	w2, [x0, #156]
    a2fc:	12140c42 	and	w2, w2, #0xf000
    a300:	7140105f 	cmp	w2, #0x4, lsl #12
    a304:	1a9f17e4 	cset	w4, eq	// eq = none
    a308:	6b040063 	subs	w3, w3, w4
    a30c:	54fffe41 	b.ne	a2d4 <setlocale@plt+0x6474>  // b.any
    a310:	17fffff7 	b	a2ec <setlocale@plt+0x648c>
    a314:	d503233f 	paciasp
    a318:	a9bd7bfd 	stp	x29, x30, [sp, #-48]!
    a31c:	910003fd 	mov	x29, sp
    a320:	f9405c02 	ldr	x2, [x0, #184]
    a324:	a90153f3 	stp	x19, x20, [sp, #16]
    a328:	aa0103f4 	mov	x20, x1
    a32c:	f90013f5 	str	x21, [sp, #32]
    a330:	aa0003f5 	mov	x21, x0
    a334:	b40003a2 	cbz	x2, a3a8 <setlocale@plt+0x6548>
    a338:	f9405e80 	ldr	x0, [x20, #184]
    a33c:	2a0203f3 	mov	w19, w2
    a340:	b4000280 	cbz	x0, a390 <setlocale@plt+0x6530>
    a344:	6b000260 	subs	w0, w19, w0
    a348:	540001a1 	b.ne	a37c <setlocale@plt+0x651c>  // b.any
    a34c:	97ffe6ad 	bl	3e00 <__errno_location@plt>
    a350:	aa0003e2 	mov	x2, x0
    a354:	f94002b3 	ldr	x19, [x21]
    a358:	f9400294 	ldr	x20, [x20]
    a35c:	aa1303e0 	mov	x0, x19
    a360:	f94013f5 	ldr	x21, [sp, #32]
    a364:	aa1403e1 	mov	x1, x20
    a368:	a94153f3 	ldp	x19, x20, [sp, #16]
    a36c:	b900005f 	str	wzr, [x2]
    a370:	a8c37bfd 	ldp	x29, x30, [sp], #48
    a374:	d50323bf 	autiasp
    a378:	17ffe682 	b	3d80 <strcoll@plt>
    a37c:	a94153f3 	ldp	x19, x20, [sp, #16]
    a380:	f94013f5 	ldr	x21, [sp, #32]
    a384:	a8c37bfd 	ldp	x29, x30, [sp], #48
    a388:	d50323bf 	autiasp
    a38c:	d65f03c0 	ret
    a390:	d0000121 	adrp	x1, 30000 <_obstack_memory_used@@Base+0x231c0>
    a394:	b940b682 	ldr	w2, [x20, #180]
    a398:	f9400280 	ldr	x0, [x20]
    a39c:	f9479021 	ldr	x1, [x1, #3872]
    a3a0:	97ffff64 	bl	a130 <setlocale@plt+0x62d0>
    a3a4:	17ffffe8 	b	a344 <setlocale@plt+0x64e4>
    a3a8:	d0000121 	adrp	x1, 30000 <_obstack_memory_used@@Base+0x231c0>
    a3ac:	b940b402 	ldr	w2, [x0, #180]
    a3b0:	f9400000 	ldr	x0, [x0]
    a3b4:	f9479021 	ldr	x1, [x1, #3872]
    a3b8:	97ffff5e 	bl	a130 <setlocale@plt+0x62d0>
    a3bc:	aa0003e2 	mov	x2, x0
    a3c0:	17ffffde 	b	a338 <setlocale@plt+0x64d8>
    a3c4:	d503233f 	paciasp
    a3c8:	a9bf7bfd 	stp	x29, x30, [sp, #-16]!
    a3cc:	910003fd 	mov	x29, sp
    a3d0:	b9409804 	ldr	w4, [x0, #152]
    a3d4:	b9409823 	ldr	w3, [x1, #152]
    a3d8:	7100249f 	cmp	w4, #0x9
    a3dc:	1a9f17e2 	cset	w2, eq	// eq = none
    a3e0:	71000c9f 	cmp	w4, #0x3
    a3e4:	1a9f17e4 	cset	w4, eq	// eq = none
    a3e8:	71000c7f 	cmp	w3, #0x3
    a3ec:	2a040042 	orr	w2, w2, w4
    a3f0:	7a491864 	ccmp	w3, #0x9, #0x4, ne	// ne = any
    a3f4:	540001a0 	b.eq	a428 <setlocale@plt+0x65c8>  // b.none
    a3f8:	b9409c23 	ldr	w3, [x1, #156]
    a3fc:	52800024 	mov	w4, #0x1                   	// #1
    a400:	12140c63 	and	w3, w3, #0xf000
    a404:	7140107f 	cmp	w3, #0x4, lsl #12
    a408:	1a9f17e3 	cset	w3, eq	// eq = none
    a40c:	34000182 	cbz	w2, a43c <setlocale@plt+0x65dc>
    a410:	6b040063 	subs	w3, w3, w4
    a414:	540000e0 	b.eq	a430 <setlocale@plt+0x65d0>  // b.none
    a418:	a8c17bfd 	ldp	x29, x30, [sp], #16
    a41c:	d50323bf 	autiasp
    a420:	2a0303e0 	mov	w0, w3
    a424:	d65f03c0 	ret
    a428:	52800023 	mov	w3, #0x1                   	// #1
    a42c:	34000082 	cbz	w2, a43c <setlocale@plt+0x65dc>
    a430:	a8c17bfd 	ldp	x29, x30, [sp], #16
    a434:	d50323bf 	autiasp
    a438:	17ffffb7 	b	a314 <setlocale@plt+0x64b4>
    a43c:	b9409c02 	ldr	w2, [x0, #156]
    a440:	12140c42 	and	w2, w2, #0xf000
    a444:	7140105f 	cmp	w2, #0x4, lsl #12
    a448:	1a9f17e4 	cset	w4, eq	// eq = none
    a44c:	6b040063 	subs	w3, w3, w4
    a450:	54fffe41 	b.ne	a418 <setlocale@plt+0x65b8>  // b.any
    a454:	17fffff7 	b	a430 <setlocale@plt+0x65d0>
    a458:	d503201f 	nop
    a45c:	d503201f 	nop
    a460:	d503233f 	paciasp
    a464:	a9bd7bfd 	stp	x29, x30, [sp, #-48]!
    a468:	910003fd 	mov	x29, sp
    a46c:	f9405c02 	ldr	x2, [x0, #184]
    a470:	a90153f3 	stp	x19, x20, [sp, #16]
    a474:	aa0003f4 	mov	x20, x0
    a478:	f90013f5 	str	x21, [sp, #32]
    a47c:	aa0103f5 	mov	x21, x1
    a480:	b4000302 	cbz	x2, a4e0 <setlocale@plt+0x6680>
    a484:	f9405ea0 	ldr	x0, [x21, #184]
    a488:	2a0203f3 	mov	w19, w2
    a48c:	b40001e0 	cbz	x0, a4c8 <setlocale@plt+0x6668>
    a490:	6b000260 	subs	w0, w19, w0
    a494:	54000101 	b.ne	a4b4 <setlocale@plt+0x6654>  // b.any
    a498:	f9400280 	ldr	x0, [x20]
    a49c:	f94002a1 	ldr	x1, [x21]
    a4a0:	a94153f3 	ldp	x19, x20, [sp, #16]
    a4a4:	f94013f5 	ldr	x21, [sp, #32]
    a4a8:	a8c37bfd 	ldp	x29, x30, [sp], #48
    a4ac:	d50323bf 	autiasp
    a4b0:	17ffe5dc 	b	3c20 <strcmp@plt>
    a4b4:	a94153f3 	ldp	x19, x20, [sp, #16]
    a4b8:	f94013f5 	ldr	x21, [sp, #32]
    a4bc:	a8c37bfd 	ldp	x29, x30, [sp], #48
    a4c0:	d50323bf 	autiasp
    a4c4:	d65f03c0 	ret
    a4c8:	d0000121 	adrp	x1, 30000 <_obstack_memory_used@@Base+0x231c0>
    a4cc:	b940b6a2 	ldr	w2, [x21, #180]
    a4d0:	f94002a0 	ldr	x0, [x21]
    a4d4:	f9479021 	ldr	x1, [x1, #3872]
    a4d8:	97ffff16 	bl	a130 <setlocale@plt+0x62d0>
    a4dc:	17ffffed 	b	a490 <setlocale@plt+0x6630>
    a4e0:	d0000121 	adrp	x1, 30000 <_obstack_memory_used@@Base+0x231c0>
    a4e4:	b940b402 	ldr	w2, [x0, #180]
    a4e8:	f9400000 	ldr	x0, [x0]
    a4ec:	f9479021 	ldr	x1, [x1, #3872]
    a4f0:	97ffff10 	bl	a130 <setlocale@plt+0x62d0>
    a4f4:	aa0003e2 	mov	x2, x0
    a4f8:	17ffffe3 	b	a484 <setlocale@plt+0x6624>
    a4fc:	d503201f 	nop
    a500:	d503233f 	paciasp
    a504:	a9bf7bfd 	stp	x29, x30, [sp, #-16]!
    a508:	910003fd 	mov	x29, sp
    a50c:	b9409804 	ldr	w4, [x0, #152]
    a510:	b9409823 	ldr	w3, [x1, #152]
    a514:	7100249f 	cmp	w4, #0x9
    a518:	1a9f17e2 	cset	w2, eq	// eq = none
    a51c:	71000c9f 	cmp	w4, #0x3
    a520:	1a9f17e4 	cset	w4, eq	// eq = none
    a524:	71000c7f 	cmp	w3, #0x3
    a528:	2a040042 	orr	w2, w2, w4
    a52c:	7a491864 	ccmp	w3, #0x9, #0x4, ne	// ne = any
    a530:	540001a0 	b.eq	a564 <setlocale@plt+0x6704>  // b.none
    a534:	b9409c23 	ldr	w3, [x1, #156]
    a538:	52800024 	mov	w4, #0x1                   	// #1
    a53c:	12140c63 	and	w3, w3, #0xf000
    a540:	7140107f 	cmp	w3, #0x4, lsl #12
    a544:	1a9f17e3 	cset	w3, eq	// eq = none
    a548:	34000182 	cbz	w2, a578 <setlocale@plt+0x6718>
    a54c:	6b040063 	subs	w3, w3, w4
    a550:	540000e0 	b.eq	a56c <setlocale@plt+0x670c>  // b.none
    a554:	a8c17bfd 	ldp	x29, x30, [sp], #16
    a558:	d50323bf 	autiasp
    a55c:	2a0303e0 	mov	w0, w3
    a560:	d65f03c0 	ret
    a564:	52800023 	mov	w3, #0x1                   	// #1
    a568:	34000082 	cbz	w2, a578 <setlocale@plt+0x6718>
    a56c:	a8c17bfd 	ldp	x29, x30, [sp], #16
    a570:	d50323bf 	autiasp
    a574:	17ffffbb 	b	a460 <setlocale@plt+0x6600>
    a578:	b9409c02 	ldr	w2, [x0, #156]
    a57c:	12140c42 	and	w2, w2, #0xf000
    a580:	7140105f 	cmp	w2, #0x4, lsl #12
    a584:	1a9f17e4 	cset	w4, eq	// eq = none
    a588:	6b040063 	subs	w3, w3, w4
    a58c:	54fffe41 	b.ne	a554 <setlocale@plt+0x66f4>  // b.any
    a590:	17fffff7 	b	a56c <setlocale@plt+0x670c>
    a594:	d503233f 	paciasp
    a598:	a9bd7bfd 	stp	x29, x30, [sp, #-48]!
    a59c:	910003fd 	mov	x29, sp
    a5a0:	f9405c22 	ldr	x2, [x1, #184]
    a5a4:	a90153f3 	stp	x19, x20, [sp, #16]
    a5a8:	aa0003f4 	mov	x20, x0
    a5ac:	f90013f5 	str	x21, [sp, #32]
    a5b0:	aa0103f5 	mov	x21, x1
    a5b4:	b40003a2 	cbz	x2, a628 <setlocale@plt+0x67c8>
    a5b8:	f9405e80 	ldr	x0, [x20, #184]
    a5bc:	2a0203f3 	mov	w19, w2
    a5c0:	b4000280 	cbz	x0, a610 <setlocale@plt+0x67b0>
    a5c4:	6b000260 	subs	w0, w19, w0
    a5c8:	540001a1 	b.ne	a5fc <setlocale@plt+0x679c>  // b.any
    a5cc:	97ffe60d 	bl	3e00 <__errno_location@plt>
    a5d0:	aa0003e2 	mov	x2, x0
    a5d4:	f94002b3 	ldr	x19, [x21]
    a5d8:	f9400294 	ldr	x20, [x20]
    a5dc:	aa1303e0 	mov	x0, x19
    a5e0:	f94013f5 	ldr	x21, [sp, #32]
    a5e4:	aa1403e1 	mov	x1, x20
    a5e8:	a94153f3 	ldp	x19, x20, [sp, #16]
    a5ec:	b900005f 	str	wzr, [x2]
    a5f0:	a8c37bfd 	ldp	x29, x30, [sp], #48
    a5f4:	d50323bf 	autiasp
    a5f8:	17ffe5e2 	b	3d80 <strcoll@plt>
    a5fc:	a94153f3 	ldp	x19, x20, [sp, #16]
    a600:	f94013f5 	ldr	x21, [sp, #32]
    a604:	a8c37bfd 	ldp	x29, x30, [sp], #48
    a608:	d50323bf 	autiasp
    a60c:	d65f03c0 	ret
    a610:	d0000121 	adrp	x1, 30000 <_obstack_memory_used@@Base+0x231c0>
    a614:	b940b682 	ldr	w2, [x20, #180]
    a618:	f9400280 	ldr	x0, [x20]
    a61c:	f9479021 	ldr	x1, [x1, #3872]
    a620:	97fffec4 	bl	a130 <setlocale@plt+0x62d0>
    a624:	17ffffe8 	b	a5c4 <setlocale@plt+0x6764>
    a628:	d0000121 	adrp	x1, 30000 <_obstack_memory_used@@Base+0x231c0>
    a62c:	b940b6a2 	ldr	w2, [x21, #180]
    a630:	f94002a0 	ldr	x0, [x21]
    a634:	f9479021 	ldr	x1, [x1, #3872]
    a638:	97fffebe 	bl	a130 <setlocale@plt+0x62d0>
    a63c:	aa0003e2 	mov	x2, x0
    a640:	17ffffde 	b	a5b8 <setlocale@plt+0x6758>
    a644:	d503233f 	paciasp
    a648:	a9bf7bfd 	stp	x29, x30, [sp, #-16]!
    a64c:	910003fd 	mov	x29, sp
    a650:	b9409804 	ldr	w4, [x0, #152]
    a654:	b9409823 	ldr	w3, [x1, #152]
    a658:	7100249f 	cmp	w4, #0x9
    a65c:	1a9f17e2 	cset	w2, eq	// eq = none
    a660:	71000c9f 	cmp	w4, #0x3
    a664:	1a9f17e4 	cset	w4, eq	// eq = none
    a668:	71000c7f 	cmp	w3, #0x3
    a66c:	2a040042 	orr	w2, w2, w4
    a670:	7a491864 	ccmp	w3, #0x9, #0x4, ne	// ne = any
    a674:	540001a0 	b.eq	a6a8 <setlocale@plt+0x6848>  // b.none
    a678:	b9409c23 	ldr	w3, [x1, #156]
    a67c:	52800024 	mov	w4, #0x1                   	// #1
    a680:	12140c63 	and	w3, w3, #0xf000
    a684:	7140107f 	cmp	w3, #0x4, lsl #12
    a688:	1a9f17e3 	cset	w3, eq	// eq = none
    a68c:	34000182 	cbz	w2, a6bc <setlocale@plt+0x685c>
    a690:	6b040063 	subs	w3, w3, w4
    a694:	540000e0 	b.eq	a6b0 <setlocale@plt+0x6850>  // b.none
    a698:	a8c17bfd 	ldp	x29, x30, [sp], #16
    a69c:	d50323bf 	autiasp
    a6a0:	2a0303e0 	mov	w0, w3
    a6a4:	d65f03c0 	ret
    a6a8:	52800023 	mov	w3, #0x1                   	// #1
    a6ac:	34000082 	cbz	w2, a6bc <setlocale@plt+0x685c>
    a6b0:	a8c17bfd 	ldp	x29, x30, [sp], #16
    a6b4:	d50323bf 	autiasp
    a6b8:	17ffffb7 	b	a594 <setlocale@plt+0x6734>
    a6bc:	b9409c02 	ldr	w2, [x0, #156]
    a6c0:	12140c42 	and	w2, w2, #0xf000
    a6c4:	7140105f 	cmp	w2, #0x4, lsl #12
    a6c8:	1a9f17e4 	cset	w4, eq	// eq = none
    a6cc:	6b040063 	subs	w3, w3, w4
    a6d0:	54fffe41 	b.ne	a698 <setlocale@plt+0x6838>  // b.any
    a6d4:	17fffff7 	b	a6b0 <setlocale@plt+0x6850>
    a6d8:	d503201f 	nop
    a6dc:	d503201f 	nop
    a6e0:	d503233f 	paciasp
    a6e4:	d10243ff 	sub	sp, sp, #0x90
    a6e8:	a9067bfd 	stp	x29, x30, [sp, #96]
    a6ec:	910183fd 	add	x29, sp, #0x60
    a6f0:	a90753f3 	stp	x19, x20, [sp, #112]
    a6f4:	aa0003f3 	mov	x19, x0
    a6f8:	aa0103e0 	mov	x0, x1
    a6fc:	a9085bf5 	stp	x21, x22, [sp, #128]
    a700:	f9401675 	ldr	x21, [x19, #40]
    a704:	b0000121 	adrp	x1, 2f000 <_obstack_memory_used@@Base+0x221c0>
    a708:	f947e821 	ldr	x1, [x1, #4048]
    a70c:	bd400aa0 	ldr	s0, [x21, #8]
    a710:	f9400022 	ldr	x2, [x1]
    a714:	f9002fe2 	str	x2, [sp, #88]
    a718:	d2800002 	mov	x2, #0x0                   	// #0
    a71c:	394042a1 	ldrb	w1, [x21, #16]
    a720:	94002908 	bl	14b40 <_obstack_memory_used@@Base+0x7d00>
    a724:	b4000520 	cbz	x0, a7c8 <setlocale@plt+0x6968>
    a728:	f9400a61 	ldr	x1, [x19, #16]
    a72c:	aa0003f4 	mov	x20, x0
    a730:	eb00003f 	cmp	x1, x0
    a734:	54000720 	b.eq	a818 <setlocale@plt+0x69b8>  // b.none
    a738:	d2800201 	mov	x1, #0x10                  	// #16
    a73c:	97ffe4dd 	bl	3ab0 <calloc@plt>
    a740:	f90003e0 	str	x0, [sp]
    a744:	b4000420 	cbz	x0, a7c8 <setlocale@plt+0x6968>
    a748:	a9441265 	ldp	x5, x4, [x19, #64]
    a74c:	8b141003 	add	x3, x0, x20, lsl #4
    a750:	3dc00e60 	ldr	q0, [x19, #48]
    a754:	910003f6 	mov	x22, sp
    a758:	aa1603e0 	mov	x0, x22
    a75c:	aa1303e1 	mov	x1, x19
    a760:	52800002 	mov	w2, #0x0                   	// #0
    a764:	a900d3e3 	stp	x3, x20, [sp, #8]
    a768:	a901ffff 	stp	xzr, xzr, [sp, #24]
    a76c:	f90017f5 	str	x21, [sp, #40]
    a770:	3d800fe0 	str	q0, [sp, #48]
    a774:	a90413e5 	stp	x5, x4, [sp, #64]
    a778:	97fff87e 	bl	8970 <setlocale@plt+0x4b10>
    a77c:	37000420 	tbnz	w0, #0, a800 <setlocale@plt+0x69a0>
    a780:	97ffe5a0 	bl	3e00 <__errno_location@plt>
    a784:	aa0003f4 	mov	x20, x0
    a788:	f94027e3 	ldr	x3, [sp, #72]
    a78c:	aa1603e1 	mov	x1, x22
    a790:	b9400295 	ldr	w21, [x20]
    a794:	aa1303e0 	mov	x0, x19
    a798:	f9002663 	str	x3, [x19, #72]
    a79c:	52800022 	mov	w2, #0x1                   	// #1
    a7a0:	97fff874 	bl	8970 <setlocale@plt+0x4b10>
    a7a4:	36000400 	tbz	w0, #0, a824 <setlocale@plt+0x69c4>
    a7a8:	aa1603e1 	mov	x1, x22
    a7ac:	aa1303e0 	mov	x0, x19
    a7b0:	52800002 	mov	w2, #0x0                   	// #0
    a7b4:	97fff86f 	bl	8970 <setlocale@plt+0x4b10>
    a7b8:	36000360 	tbz	w0, #0, a824 <setlocale@plt+0x69c4>
    a7bc:	f94003e0 	ldr	x0, [sp]
    a7c0:	97ffe528 	bl	3c60 <free@plt>
    a7c4:	b9000295 	str	w21, [x20]
    a7c8:	52800000 	mov	w0, #0x0                   	// #0
    a7cc:	b0000121 	adrp	x1, 2f000 <_obstack_memory_used@@Base+0x221c0>
    a7d0:	f947e821 	ldr	x1, [x1, #4048]
    a7d4:	f9402fe3 	ldr	x3, [sp, #88]
    a7d8:	f9400022 	ldr	x2, [x1]
    a7dc:	eb020063 	subs	x3, x3, x2
    a7e0:	d2800002 	mov	x2, #0x0                   	// #0
    a7e4:	540001e1 	b.ne	a820 <setlocale@plt+0x69c0>  // b.any
    a7e8:	a9467bfd 	ldp	x29, x30, [sp, #96]
    a7ec:	a94753f3 	ldp	x19, x20, [sp, #112]
    a7f0:	a9485bf5 	ldp	x21, x22, [sp, #128]
    a7f4:	910243ff 	add	sp, sp, #0x90
    a7f8:	d50323bf 	autiasp
    a7fc:	d65f03c0 	ret
    a800:	f9400260 	ldr	x0, [x19]
    a804:	97ffe517 	bl	3c60 <free@plt>
    a808:	ad4003e1 	ldp	q1, q0, [sp]
    a80c:	f94027e0 	ldr	x0, [sp, #72]
    a810:	f9002660 	str	x0, [x19, #72]
    a814:	ad000261 	stp	q1, q0, [x19]
    a818:	52800020 	mov	w0, #0x1                   	// #1
    a81c:	17ffffec 	b	a7cc <setlocale@plt+0x696c>
    a820:	97ffe4bc 	bl	3b10 <__stack_chk_fail@plt>
    a824:	97ffe4d7 	bl	3b80 <abort@plt>
    a828:	d503201f 	nop
    a82c:	d503201f 	nop
    a830:	d503233f 	paciasp
    a834:	a9be7bfd 	stp	x29, x30, [sp, #-32]!
    a838:	910003fd 	mov	x29, sp
    a83c:	a90153f3 	stp	x19, x20, [sp, #16]
    a840:	aa0003f3 	mov	x19, x0
    a844:	97ffe453 	bl	3990 <fileno@plt>
    a848:	37f80360 	tbnz	w0, #31, a8b4 <setlocale@plt+0x6a54>
    a84c:	aa1303e0 	mov	x0, x19
    a850:	97ffe550 	bl	3d90 <__freading@plt>
    a854:	35000220 	cbnz	w0, a898 <setlocale@plt+0x6a38>
    a858:	aa1303e0 	mov	x0, x19
    a85c:	97ffe54d 	bl	3d90 <__freading@plt>
    a860:	35000340 	cbnz	w0, a8c8 <setlocale@plt+0x6a68>
    a864:	aa1303e0 	mov	x0, x19
    a868:	97ffe51e 	bl	3ce0 <fflush@plt>
    a86c:	34000240 	cbz	w0, a8b4 <setlocale@plt+0x6a54>
    a870:	97ffe564 	bl	3e00 <__errno_location@plt>
    a874:	aa0003f4 	mov	x20, x0
    a878:	aa1303e0 	mov	x0, x19
    a87c:	b9400293 	ldr	w19, [x20]
    a880:	97ffe454 	bl	39d0 <fclose@plt>
    a884:	35000593 	cbnz	w19, a934 <setlocale@plt+0x6ad4>
    a888:	a94153f3 	ldp	x19, x20, [sp, #16]
    a88c:	a8c27bfd 	ldp	x29, x30, [sp], #32
    a890:	d50323bf 	autiasp
    a894:	d65f03c0 	ret
    a898:	aa1303e0 	mov	x0, x19
    a89c:	97ffe43d 	bl	3990 <fileno@plt>
    a8a0:	52800022 	mov	w2, #0x1                   	// #1
    a8a4:	d2800001 	mov	x1, #0x0                   	// #0
    a8a8:	97ffe426 	bl	3940 <lseek@plt>
    a8ac:	b100041f 	cmn	x0, #0x1
    a8b0:	54fffd41 	b.ne	a858 <setlocale@plt+0x69f8>  // b.any
    a8b4:	aa1303e0 	mov	x0, x19
    a8b8:	a94153f3 	ldp	x19, x20, [sp, #16]
    a8bc:	a8c27bfd 	ldp	x29, x30, [sp], #32
    a8c0:	d50323bf 	autiasp
    a8c4:	17ffe443 	b	39d0 <fclose@plt>
    a8c8:	b9400260 	ldr	w0, [x19]
    a8cc:	3647fcc0 	tbz	w0, #8, a864 <setlocale@plt+0x6a04>
    a8d0:	a9408660 	ldp	x0, x1, [x19, #8]
    a8d4:	eb00003f 	cmp	x1, x0
    a8d8:	540000c0 	b.eq	a8f0 <setlocale@plt+0x6a90>  // b.none
    a8dc:	aa1303e0 	mov	x0, x19
    a8e0:	52800022 	mov	w2, #0x1                   	// #1
    a8e4:	d2800001 	mov	x1, #0x0                   	// #0
    a8e8:	97ffe4da 	bl	3c50 <fseeko@plt>
    a8ec:	17ffffde 	b	a864 <setlocale@plt+0x6a04>
    a8f0:	a9420660 	ldp	x0, x1, [x19, #32]
    a8f4:	eb00003f 	cmp	x1, x0
    a8f8:	54ffff21 	b.ne	a8dc <setlocale@plt+0x6a7c>  // b.any
    a8fc:	f9402660 	ldr	x0, [x19, #72]
    a900:	b5fffee0 	cbnz	x0, a8dc <setlocale@plt+0x6a7c>
    a904:	aa1303e0 	mov	x0, x19
    a908:	97ffe422 	bl	3990 <fileno@plt>
    a90c:	52800022 	mov	w2, #0x1                   	// #1
    a910:	d2800001 	mov	x1, #0x0                   	// #0
    a914:	97ffe40b 	bl	3940 <lseek@plt>
    a918:	b100041f 	cmn	x0, #0x1
    a91c:	54fffa40 	b.eq	a864 <setlocale@plt+0x6a04>  // b.none
    a920:	b9400261 	ldr	w1, [x19]
    a924:	f9004a60 	str	x0, [x19, #144]
    a928:	121b7820 	and	w0, w1, #0xffffffef
    a92c:	b9000260 	str	w0, [x19]
    a930:	17ffffcd 	b	a864 <setlocale@plt+0x6a04>
    a934:	12800000 	mov	w0, #0xffffffff            	// #-1
    a938:	b9000293 	str	w19, [x20]
    a93c:	17ffffd3 	b	a888 <setlocale@plt+0x6a28>
    a940:	d503233f 	paciasp
    a944:	a9be7bfd 	stp	x29, x30, [sp, #-32]!
    a948:	910003fd 	mov	x29, sp
    a94c:	a90153f3 	stp	x19, x20, [sp, #16]
    a950:	aa0003f3 	mov	x19, x0
    a954:	97ffe3ff 	bl	3950 <__fpending@plt>
    a958:	aa0003f4 	mov	x20, x0
    a95c:	aa1303e0 	mov	x0, x19
    a960:	b9400261 	ldr	w1, [x19]
    a964:	121b0033 	and	w19, w1, #0x20
    a968:	97ffffb2 	bl	a830 <setlocale@plt+0x69d0>
    a96c:	35000173 	cbnz	w19, a998 <setlocale@plt+0x6b38>
    a970:	340000c0 	cbz	w0, a988 <setlocale@plt+0x6b28>
    a974:	b5000194 	cbnz	x20, a9a4 <setlocale@plt+0x6b44>
    a978:	97ffe522 	bl	3e00 <__errno_location@plt>
    a97c:	b9400000 	ldr	w0, [x0]
    a980:	7100241f 	cmp	w0, #0x9
    a984:	5a9f03e0 	csetm	w0, ne	// ne = any
    a988:	a94153f3 	ldp	x19, x20, [sp, #16]
    a98c:	a8c27bfd 	ldp	x29, x30, [sp], #32
    a990:	d50323bf 	autiasp
    a994:	d65f03c0 	ret
    a998:	35000060 	cbnz	w0, a9a4 <setlocale@plt+0x6b44>
    a99c:	97ffe519 	bl	3e00 <__errno_location@plt>
    a9a0:	b900001f 	str	wzr, [x0]
    a9a4:	12800000 	mov	w0, #0xffffffff            	// #-1
    a9a8:	17fffff8 	b	a988 <setlocale@plt+0x6b28>
    a9ac:	d503201f 	nop
    a9b0:	d503245f 	bti	c
    a9b4:	b0000120 	adrp	x0, 2f000 <_obstack_memory_used@@Base+0x221c0>
    a9b8:	f947e000 	ldr	x0, [x0, #4032]
    a9bc:	d503233f 	paciasp
    a9c0:	a9be7bfd 	stp	x29, x30, [sp, #-32]!
    a9c4:	910003fd 	mov	x29, sp
    a9c8:	f9400000 	ldr	x0, [x0]
    a9cc:	97ffffdd 	bl	a940 <setlocale@plt+0x6ae0>
    a9d0:	34000280 	cbz	w0, aa20 <setlocale@plt+0x6bc0>
    a9d4:	b0000081 	adrp	x1, 1b000 <_obstack_memory_used@@Base+0xe1c0>
    a9d8:	9127c021 	add	x1, x1, #0x9f0
    a9dc:	528000a2 	mov	w2, #0x5                   	// #5
    a9e0:	d2800000 	mov	x0, #0x0                   	// #0
    a9e4:	f9000bf3 	str	x19, [sp, #16]
    a9e8:	97ffe4de 	bl	3d60 <dcgettext@plt>
    a9ec:	aa0003f3 	mov	x19, x0
    a9f0:	97ffe504 	bl	3e00 <__errno_location@plt>
    a9f4:	aa0003e1 	mov	x1, x0
    a9f8:	aa1303e3 	mov	x3, x19
    a9fc:	52800000 	mov	w0, #0x0                   	// #0
    aa00:	b0000082 	adrp	x2, 1b000 <_obstack_memory_used@@Base+0xe1c0>
    aa04:	913a2042 	add	x2, x2, #0xe88
    aa08:	b9400021 	ldr	w1, [x1]
    aa0c:	97ffe399 	bl	3870 <error@plt>
    aa10:	d0000120 	adrp	x0, 30000 <_obstack_memory_used@@Base+0x231c0>
    aa14:	91004000 	add	x0, x0, #0x10
    aa18:	b9407000 	ldr	w0, [x0, #112]
    aa1c:	97ffe36d 	bl	37d0 <_exit@plt>
    aa20:	b0000120 	adrp	x0, 2f000 <_obstack_memory_used@@Base+0x221c0>
    aa24:	f947d000 	ldr	x0, [x0, #4000]
    aa28:	f9400000 	ldr	x0, [x0]
    aa2c:	97ffffc5 	bl	a940 <setlocale@plt+0x6ae0>
    aa30:	35000080 	cbnz	w0, aa40 <setlocale@plt+0x6be0>
    aa34:	a8c27bfd 	ldp	x29, x30, [sp], #32
    aa38:	d50323bf 	autiasp
    aa3c:	d65f03c0 	ret
    aa40:	d0000120 	adrp	x0, 30000 <_obstack_memory_used@@Base+0x231c0>
    aa44:	91004000 	add	x0, x0, #0x10
    aa48:	b9407000 	ldr	w0, [x0, #112]
    aa4c:	f9000bf3 	str	x19, [sp, #16]
    aa50:	97ffe360 	bl	37d0 <_exit@plt>
    aa54:	d503245f 	bti	c
    aa58:	d0000121 	adrp	x1, 30000 <_obstack_memory_used@@Base+0x231c0>
    aa5c:	910ac022 	add	x2, x1, #0x2b0
    aa60:	d503233f 	paciasp
    aa64:	a9bf7bfd 	stp	x29, x30, [sp, #-16]!
    aa68:	910003fd 	mov	x29, sp
    aa6c:	39720044 	ldrb	w4, [x2, #3200]
    aa70:	3971e040 	ldrb	w0, [x2, #3192]
    aa74:	b94c7c43 	ldr	w3, [x2, #3196]
    aa78:	4b0003e0 	neg	w0, w0
    aa7c:	12160000 	and	w0, w0, #0x400
    aa80:	360004c4 	tbz	w4, #0, ab18 <setlocale@plt+0x6cb8>
    aa84:	52802044 	mov	w4, #0x102                 	// #258
    aa88:	2a040000 	orr	w0, w0, w4
    aa8c:	35000283 	cbnz	w3, aadc <setlocale@plt+0x6c7c>
    aa90:	b94c8444 	ldr	w4, [x2, #3204]
    aa94:	d0000122 	adrp	x2, 30000 <_obstack_memory_used@@Base+0x231c0>
    aa98:	91004045 	add	x5, x2, #0x10
    aa9c:	d0000063 	adrp	x3, 18000 <_obstack_memory_used@@Base+0xb1c0>
    aaa0:	910a0063 	add	x3, x3, #0x280
    aaa4:	3942e8a5 	ldrb	w5, [x5, #186]
    aaa8:	b8645863 	ldr	w3, [x3, w4, uxtw #2]
    aaac:	2a030000 	orr	w0, w0, w3
    aab0:	37000085 	tbnz	w5, #0, aac0 <setlocale@plt+0x6c60>
    aab4:	910ac023 	add	x3, x1, #0x2b0
    aab8:	39722063 	ldrb	w3, [x3, #3208]
    aabc:	36000403 	tbz	w3, #0, ab3c <setlocale@plt+0x6cdc>
    aac0:	52804183 	mov	w3, #0x20c                 	// #524
    aac4:	2a030003 	orr	w3, w0, w3
    aac8:	91004042 	add	x2, x2, #0x10
    aacc:	3942ec40 	ldrb	w0, [x2, #187]
    aad0:	4b0003e0 	neg	w0, w0
    aad4:	121c0000 	and	w0, w0, #0x10
    aad8:	2a030000 	orr	w0, w0, w3
    aadc:	910ac021 	add	x1, x1, #0x2b0
    aae0:	b94c8c22 	ldr	w2, [x1, #3212]
    aae4:	7100105f 	cmp	w2, #0x4
    aae8:	54000120 	b.eq	ab0c <setlocale@plt+0x6cac>  // b.none
    aaec:	540001c9 	b.ls	ab24 <setlocale@plt+0x6cc4>  // b.plast
    aaf0:	7100145f 	cmp	w2, #0x5
    aaf4:	540000c1 	b.ne	ab0c <setlocale@plt+0x6cac>  // b.any
    aaf8:	b94c8422 	ldr	w2, [x1, #3204]
    aafc:	d0000061 	adrp	x1, 18000 <_obstack_memory_used@@Base+0xb1c0>
    ab00:	910a0021 	add	x1, x1, #0x280
    ab04:	b8627821 	ldr	w1, [x1, x2, lsl #2]
    ab08:	2a010000 	orr	w0, w0, w1
    ab0c:	a8c17bfd 	ldp	x29, x30, [sp], #16
    ab10:	d50323bf 	autiasp
    ab14:	d65f03c0 	ret
    ab18:	321f0000 	orr	w0, w0, #0x2
    ab1c:	34fffba3 	cbz	w3, aa90 <setlocale@plt+0x6c30>
    ab20:	17ffffef 	b	aadc <setlocale@plt+0x6c7c>
    ab24:	71000c5f 	cmp	w2, #0x3
    ab28:	32170001 	orr	w1, w0, #0x200
    ab2c:	a8c17bfd 	ldp	x29, x30, [sp], #16
    ab30:	d50323bf 	autiasp
    ab34:	1a800020 	csel	w0, w1, w0, eq	// eq = none
    ab38:	d65f03c0 	ret
    ab3c:	52804083 	mov	w3, #0x204                 	// #516
    ab40:	2a030003 	orr	w3, w0, w3
    ab44:	17ffffe1 	b	aac8 <setlocale@plt+0x6c68>
    ab48:	d503201f 	nop
    ab4c:	d503201f 	nop
    ab50:	d503233f 	paciasp
    ab54:	d104c3ff 	sub	sp, sp, #0x130
    ab58:	b0000125 	adrp	x5, 2f000 <_obstack_memory_used@@Base+0x221c0>
    ab5c:	f947e8a5 	ldr	x5, [x5, #4048]
    ab60:	a9117bfd 	stp	x29, x30, [sp, #272]
    ab64:	910443fd 	add	x29, sp, #0x110
    ab68:	a91253f3 	stp	x19, x20, [sp, #288]
    ab6c:	2a0403f4 	mov	w20, w4
    ab70:	aa0203f3 	mov	x19, x2
    ab74:	32150062 	orr	w2, w3, #0x800
    ab78:	2a0403e3 	mov	w3, w4
    ab7c:	f94000a4 	ldr	x4, [x5]
    ab80:	f90087e4 	str	x4, [sp, #264]
    ab84:	d2800004 	mov	x4, #0x0                   	// #0
    ab88:	910023e4 	add	x4, sp, #0x8
    ab8c:	97ffe445 	bl	3ca0 <statx@plt>
    ab90:	36f801a0 	tbz	w0, #31, abc4 <setlocale@plt+0x6d64>
    ab94:	b0000121 	adrp	x1, 2f000 <_obstack_memory_used@@Base+0x221c0>
    ab98:	f947e821 	ldr	x1, [x1, #4048]
    ab9c:	f94087e3 	ldr	x3, [sp, #264]
    aba0:	f9400022 	ldr	x2, [x1]
    aba4:	eb020063 	subs	x3, x3, x2
    aba8:	d2800002 	mov	x2, #0x0                   	// #0
    abac:	54000781 	b.ne	ac9c <setlocale@plt+0x6e3c>  // b.any
    abb0:	a9517bfd 	ldp	x29, x30, [sp, #272]
    abb4:	a95253f3 	ldp	x19, x20, [sp, #288]
    abb8:	9104c3ff 	add	sp, sp, #0x130
    abbc:	d50323bf 	autiasp
    abc0:	d65f03c0 	ret
    abc4:	295217e4 	ldp	w4, w5, [sp, #144]
    abc8:	295107e3 	ldp	w3, w1, [sp, #136]
    abcc:	d3747ca2 	ubfiz	x2, x5, #12, #32
    abd0:	d3607c87 	lsl	x7, x4, #32
    abd4:	92401c28 	and	x8, x1, #0xff
    abd8:	92401ca5 	and	x5, x5, #0xff
    abdc:	d3607c66 	lsl	x6, x3, #32
    abe0:	92544ce7 	and	x7, x7, #0xfffff00000000000
    abe4:	d3747c21 	ubfiz	x1, x1, #12, #32
    abe8:	926c5c42 	and	x2, x2, #0xffffff00000
    abec:	d3782c84 	ubfiz	x4, x4, #8, #12
    abf0:	92544cc6 	and	x6, x6, #0xfffff00000000000
    abf4:	aa070084 	orr	x4, x4, x7
    abf8:	aa050042 	orr	x2, x2, x5
    abfc:	a942abe5 	ldp	x5, x10, [sp, #40]
    ac00:	926c5c21 	and	x1, x1, #0xffffff00000
    ac04:	d3782c63 	ubfiz	x3, x3, #8, #12
    ac08:	aa040042 	orr	x2, x2, x4
    ac0c:	aa060063 	orr	x3, x3, x6
    ac10:	b9401bec 	ldr	w12, [sp, #24]
    ac14:	aa080021 	orr	x1, x1, x8
    ac18:	b9400fe9 	ldr	w9, [sp, #12]
    ac1c:	f841c3eb 	ldur	x11, [sp, #28]
    ac20:	aa030021 	orr	x1, x1, x3
    ac24:	f9401fe8 	ldr	x8, [sp, #56]
    ac28:	a9001662 	stp	x2, x5, [x19]
    ac2c:	b94053e6 	ldr	w6, [sp, #80]
    ac30:	f94027e7 	ldr	x7, [sp, #72]
    ac34:	b900166c 	str	w12, [x19, #20]
    ac38:	f94037e3 	ldr	x3, [sp, #104]
    ac3c:	a901866b 	stp	x11, x1, [x19, #24]
    ac40:	b94083e4 	ldr	w4, [sp, #128]
    ac44:	f9403fe5 	ldr	x5, [sp, #120]
    ac48:	f9001a6a 	str	x10, [x19, #48]
    ac4c:	79404bec 	ldrh	w12, [sp, #36]
    ac50:	b94073e2 	ldr	w2, [sp, #112]
    ac54:	b900126c 	str	w12, [x19, #16]
    ac58:	b9003a69 	str	w9, [x19, #56]
    ac5c:	a9041e68 	stp	x8, x7, [x19, #64]
    ac60:	f9002a66 	str	x6, [x19, #80]
    ac64:	f9002e65 	str	x5, [x19, #88]
    ac68:	a9060e64 	stp	x4, x3, [x19, #96]
    ac6c:	f9003a62 	str	x2, [x19, #112]
    ac70:	365ff934 	tbz	w20, #11, ab94 <setlocale@plt+0x6d34>
    ac74:	b9400be1 	ldr	w1, [sp, #8]
    ac78:	365800c1 	tbz	w1, #11, ac90 <setlocale@plt+0x6e30>
    ac7c:	f9402fe1 	ldr	x1, [sp, #88]
    ac80:	f9002e61 	str	x1, [x19, #88]
    ac84:	b94063e1 	ldr	w1, [sp, #96]
    ac88:	f9003261 	str	x1, [x19, #96]
    ac8c:	17ffffc2 	b	ab94 <setlocale@plt+0x6d34>
    ac90:	6f000400 	mvni	v0.4s, #0x0
    ac94:	3c858260 	stur	q0, [x19, #88]
    ac98:	17ffffbf 	b	ab94 <setlocale@plt+0x6d34>
    ac9c:	97ffe39d 	bl	3b10 <__stack_chk_fail@plt>
    aca0:	d503245f 	bti	c
    aca4:	d0000121 	adrp	x1, 30000 <_obstack_memory_used@@Base+0x231c0>
    aca8:	91038021 	add	x1, x1, #0xe0
    acac:	d37c7c00 	ubfiz	x0, x0, #4, #32
    acb0:	91004021 	add	x1, x1, #0x10
    acb4:	d503233f 	paciasp
    acb8:	a9bf7bfd 	stp	x29, x30, [sp, #-16]!
    acbc:	8b000022 	add	x2, x1, x0
    acc0:	910003fd 	mov	x29, sp
    acc4:	f8606821 	ldr	x1, [x1, x0]
    acc8:	52800000 	mov	w0, #0x0                   	// #0
    accc:	b40001c1 	cbz	x1, ad04 <setlocale@plt+0x6ea4>
    acd0:	f9400442 	ldr	x2, [x2, #8]
    acd4:	f100043f 	cmp	x1, #0x1
    acd8:	540001c0 	b.eq	ad10 <setlocale@plt+0x6eb0>  // b.none
    acdc:	52800020 	mov	w0, #0x1                   	// #1
    ace0:	f100083f 	cmp	x1, #0x2
    ace4:	54000101 	b.ne	ad04 <setlocale@plt+0x6ea4>  // b.any
    ace8:	39400040 	ldrb	w0, [x2]
    acec:	7100c000 	subs	w0, w0, #0x30
    acf0:	54000061 	b.ne	acfc <setlocale@plt+0x6e9c>  // b.any
    acf4:	39400440 	ldrb	w0, [x2, #1]
    acf8:	5100c000 	sub	w0, w0, #0x30
    acfc:	7100001f 	cmp	w0, #0x0
    ad00:	1a9f07e0 	cset	w0, ne	// ne = any
    ad04:	a8c17bfd 	ldp	x29, x30, [sp], #16
    ad08:	d50323bf 	autiasp
    ad0c:	d65f03c0 	ret
    ad10:	39400040 	ldrb	w0, [x2]
    ad14:	a8c17bfd 	ldp	x29, x30, [sp], #16
    ad18:	d50323bf 	autiasp
    ad1c:	7100c01f 	cmp	w0, #0x30
    ad20:	1a9f07e0 	cset	w0, ne	// ne = any
    ad24:	d65f03c0 	ret
    ad28:	d503201f 	nop
    ad2c:	d503201f 	nop
    ad30:	d503233f 	paciasp
    ad34:	d102c3ff 	sub	sp, sp, #0xb0
    ad38:	b0000123 	adrp	x3, 2f000 <_obstack_memory_used@@Base+0x221c0>
    ad3c:	f947e863 	ldr	x3, [x3, #4048]
    ad40:	a9087bfd 	stp	x29, x30, [sp, #128]
    ad44:	910203fd 	add	x29, sp, #0x80
    ad48:	a90953f3 	stp	x19, x20, [sp, #144]
    ad4c:	aa0203f4 	mov	x20, x2
    ad50:	aa0103f3 	mov	x19, x1
    ad54:	a90a5bf5 	stp	x21, x22, [sp, #160]
    ad58:	12001c15 	and	w21, w0, #0xff
    ad5c:	f9400060 	ldr	x0, [x3]
    ad60:	f9003fe0 	str	x0, [sp, #120]
    ad64:	d2800000 	mov	x0, #0x0                   	// #0
    ad68:	97ffe426 	bl	3e00 <__errno_location@plt>
    ad6c:	b90077ff 	str	wzr, [sp, #116]
    ad70:	4f000400 	movi	v0.4s, #0x0
    ad74:	910113e4 	add	x4, sp, #0x44
    ad78:	910103e3 	add	x3, sp, #0x40
    ad7c:	52800081 	mov	w1, #0x4                   	// #4
    ad80:	b90043e1 	str	w1, [sp, #64]
    ad84:	910023e2 	add	x2, sp, #0x8
    ad88:	b9400016 	ldr	w22, [x0]
    ad8c:	aa1403e1 	mov	x1, x20
    ad90:	ad000080 	stp	q0, q0, [x4]
    ad94:	52800000 	mov	w0, #0x0                   	// #0
    ad98:	ad400861 	ldp	q1, q2, [x3]
    ad9c:	3d800880 	str	q0, [x4, #32]
    ada0:	3dc00860 	ldr	q0, [x3, #32]
    ada4:	ad000841 	stp	q1, q2, [x2]
    ada8:	f9401863 	ldr	x3, [x3, #48]
    adac:	3d800840 	str	q0, [x2, #32]
    adb0:	f9001843 	str	x3, [x2, #48]
    adb4:	94001e23 	bl	12640 <_obstack_memory_used@@Base+0x5800>
    adb8:	aa0003e3 	mov	x3, x0
    adbc:	aa1303e2 	mov	x2, x19
    adc0:	2a1603e1 	mov	w1, w22
    adc4:	52800000 	mov	w0, #0x0                   	// #0
    adc8:	97ffe2aa 	bl	3870 <error@plt>
    adcc:	36000235 	tbz	w21, #0, ae10 <setlocale@plt+0x6fb0>
    add0:	d0000120 	adrp	x0, 30000 <_obstack_memory_used@@Base+0x231c0>
    add4:	52800041 	mov	w1, #0x2                   	// #2
    add8:	b90f4001 	str	w1, [x0, #3904]
    addc:	b0000120 	adrp	x0, 2f000 <_obstack_memory_used@@Base+0x221c0>
    ade0:	f947e800 	ldr	x0, [x0, #4048]
    ade4:	f9403fe2 	ldr	x2, [sp, #120]
    ade8:	f9400001 	ldr	x1, [x0]
    adec:	eb010042 	subs	x2, x2, x1
    adf0:	d2800001 	mov	x1, #0x0                   	// #0
    adf4:	540001c1 	b.ne	ae2c <setlocale@plt+0x6fcc>  // b.any
    adf8:	a9487bfd 	ldp	x29, x30, [sp, #128]
    adfc:	a94953f3 	ldp	x19, x20, [sp, #144]
    ae00:	a94a5bf5 	ldp	x21, x22, [sp, #160]
    ae04:	9102c3ff 	add	sp, sp, #0xb0
    ae08:	d50323bf 	autiasp
    ae0c:	d65f03c0 	ret
    ae10:	d0000120 	adrp	x0, 30000 <_obstack_memory_used@@Base+0x231c0>
    ae14:	910ac000 	add	x0, x0, #0x2b0
    ae18:	b94c9001 	ldr	w1, [x0, #3216]
    ae1c:	35fffe01 	cbnz	w1, addc <setlocale@plt+0x6f7c>
    ae20:	52800021 	mov	w1, #0x1                   	// #1
    ae24:	b90c9001 	str	w1, [x0, #3216]
    ae28:	17ffffed 	b	addc <setlocale@plt+0x6f7c>
    ae2c:	97ffe339 	bl	3b10 <__stack_chk_fail@plt>
    ae30:	d503233f 	paciasp
    ae34:	d10103ff 	sub	sp, sp, #0x40
    ae38:	d0000121 	adrp	x1, 30000 <_obstack_memory_used@@Base+0x231c0>
    ae3c:	910ac021 	add	x1, x1, #0x2b0
    ae40:	b0000122 	adrp	x2, 2f000 <_obstack_memory_used@@Base+0x221c0>
    ae44:	f947e842 	ldr	x2, [x2, #4048]
    ae48:	a9017bfd 	stp	x29, x30, [sp, #16]
    ae4c:	910043fd 	add	x29, sp, #0x10
    ae50:	91326021 	add	x1, x1, #0xc98
    ae54:	a90253f3 	stp	x19, x20, [sp, #32]
    ae58:	aa0003f4 	mov	x20, x0
    ae5c:	f85d8033 	ldur	x19, [x1, #-40]
    ae60:	f9001bf5 	str	x21, [sp, #48]
    ae64:	f100027f 	cmp	x19, #0x0
    ae68:	f9400040 	ldr	x0, [x2]
    ae6c:	f90007e0 	str	x0, [sp, #8]
    ae70:	d2800000 	mov	x0, #0x0                   	// #0
    ae74:	9a930033 	csel	x19, x1, x19, eq	// eq = none
    ae78:	97ffe3e2 	bl	3e00 <__errno_location@plt>
    ae7c:	aa0003f5 	mov	x21, x0
    ae80:	a9429e66 	ldp	x6, x7, [x19, #40]
    ae84:	91002265 	add	x5, x19, #0x8
    ae88:	29401263 	ldp	w3, w4, [x19]
    ae8c:	aa1403e2 	mov	x2, x20
    ae90:	b9400013 	ldr	w19, [x0]
    ae94:	d2800041 	mov	x1, #0x2                   	// #2
    ae98:	910003e0 	mov	x0, sp
    ae9c:	940018f5 	bl	11270 <_obstack_memory_used@@Base+0x4430>
    aea0:	b90002b3 	str	w19, [x21]
    aea4:	394003e1 	ldrb	w1, [sp]
    aea8:	39400282 	ldrb	w2, [x20]
    aeac:	6b01005f 	cmp	w2, w1
    aeb0:	540001e0 	b.eq	aeec <setlocale@plt+0x708c>  // b.none
    aeb4:	52800020 	mov	w0, #0x1                   	// #1
    aeb8:	b0000121 	adrp	x1, 2f000 <_obstack_memory_used@@Base+0x221c0>
    aebc:	f947e821 	ldr	x1, [x1, #4048]
    aec0:	f94007e3 	ldr	x3, [sp, #8]
    aec4:	f9400022 	ldr	x2, [x1]
    aec8:	eb020063 	subs	x3, x3, x2
    aecc:	d2800002 	mov	x2, #0x0                   	// #0
    aed0:	540001a1 	b.ne	af04 <setlocale@plt+0x70a4>  // b.any
    aed4:	a9417bfd 	ldp	x29, x30, [sp, #16]
    aed8:	a94253f3 	ldp	x19, x20, [sp, #32]
    aedc:	f9401bf5 	ldr	x21, [sp, #48]
    aee0:	910103ff 	add	sp, sp, #0x40
    aee4:	d50323bf 	autiasp
    aee8:	d65f03c0 	ret
    aeec:	aa0003f3 	mov	x19, x0
    aef0:	aa1403e0 	mov	x0, x20
    aef4:	97ffe243 	bl	3800 <strlen@plt>
    aef8:	eb13001f 	cmp	x0, x19
    aefc:	1a9f07e0 	cset	w0, ne	// ne = any
    af00:	17ffffee 	b	aeb8 <setlocale@plt+0x7058>
    af04:	97ffe303 	bl	3b10 <__stack_chk_fail@plt>
    af08:	d503201f 	nop
    af0c:	d503201f 	nop
    af10:	d503233f 	paciasp
    af14:	a9bf7bfd 	stp	x29, x30, [sp, #-16]!
    af18:	910003fd 	mov	x29, sp
    af1c:	360003c0 	tbz	w0, #0, af94 <setlocale@plt+0x7134>
    af20:	12140c22 	and	w2, w1, #0xf000
    af24:	7140205f 	cmp	w2, #0x8, lsl #12
    af28:	54000121 	b.ne	af4c <setlocale@plt+0x70ec>  // b.any
    af2c:	d0000122 	adrp	x2, 30000 <_obstack_memory_used@@Base+0x231c0>
    af30:	52800000 	mov	w0, #0x0                   	// #0
    af34:	b94f8042 	ldr	w2, [x2, #3968]
    af38:	71000c5f 	cmp	w2, #0x3
    af3c:	54000580 	b.eq	afec <setlocale@plt+0x718c>  // b.none
    af40:	a8c17bfd 	ldp	x29, x30, [sp], #16
    af44:	d50323bf 	autiasp
    af48:	d65f03c0 	ret
    af4c:	528005e0 	mov	w0, #0x2f                  	// #47
    af50:	7140105f 	cmp	w2, #0x4, lsl #12
    af54:	54ffff60 	b.eq	af40 <setlocale@plt+0x70e0>  // b.none
    af58:	d0000121 	adrp	x1, 30000 <_obstack_memory_used@@Base+0x231c0>
    af5c:	52800000 	mov	w0, #0x0                   	// #0
    af60:	b94f8021 	ldr	w1, [x1, #3968]
    af64:	7100043f 	cmp	w1, #0x1
    af68:	54fffec0 	b.eq	af40 <setlocale@plt+0x70e0>  // b.none
    af6c:	52800800 	mov	w0, #0x40                  	// #64
    af70:	7140285f 	cmp	w2, #0xa, lsl #12
    af74:	54fffe60 	b.eq	af40 <setlocale@plt+0x70e0>  // b.none
    af78:	52800f80 	mov	w0, #0x7c                  	// #124
    af7c:	7140045f 	cmp	w2, #0x1, lsl #12
    af80:	54fffe00 	b.eq	af40 <setlocale@plt+0x70e0>  // b.none
    af84:	7140305f 	cmp	w2, #0xc, lsl #12
    af88:	528007a0 	mov	w0, #0x3d                  	// #61
    af8c:	1a9f0000 	csel	w0, w0, wzr, eq	// eq = none
    af90:	17ffffec 	b	af40 <setlocale@plt+0x70e0>
    af94:	52800000 	mov	w0, #0x0                   	// #0
    af98:	7100145f 	cmp	w2, #0x5
    af9c:	54fffd20 	b.eq	af40 <setlocale@plt+0x70e0>  // b.none
    afa0:	71000c5f 	cmp	w2, #0x3
    afa4:	528005e0 	mov	w0, #0x2f                  	// #47
    afa8:	7a491844 	ccmp	w2, #0x9, #0x4, ne	// ne = any
    afac:	54fffca0 	b.eq	af40 <setlocale@plt+0x70e0>  // b.none
    afb0:	d0000121 	adrp	x1, 30000 <_obstack_memory_used@@Base+0x231c0>
    afb4:	52800000 	mov	w0, #0x0                   	// #0
    afb8:	b94f8021 	ldr	w1, [x1, #3968]
    afbc:	7100043f 	cmp	w1, #0x1
    afc0:	54fffc00 	b.eq	af40 <setlocale@plt+0x70e0>  // b.none
    afc4:	52800800 	mov	w0, #0x40                  	// #64
    afc8:	7100185f 	cmp	w2, #0x6
    afcc:	54fffba0 	b.eq	af40 <setlocale@plt+0x70e0>  // b.none
    afd0:	52800f80 	mov	w0, #0x7c                  	// #124
    afd4:	7100045f 	cmp	w2, #0x1
    afd8:	54fffb40 	b.eq	af40 <setlocale@plt+0x70e0>  // b.none
    afdc:	71001c5f 	cmp	w2, #0x7
    afe0:	528007a0 	mov	w0, #0x3d                  	// #61
    afe4:	1a9f0000 	csel	w0, w0, wzr, eq	// eq = none
    afe8:	17ffffd6 	b	af40 <setlocale@plt+0x70e0>
    afec:	52800920 	mov	w0, #0x49                  	// #73
    aff0:	6a00003f 	tst	w1, w0
    aff4:	52800540 	mov	w0, #0x2a                  	// #42
    aff8:	1a9f1000 	csel	w0, w0, wzr, ne	// ne = any
    affc:	17ffffd1 	b	af40 <setlocale@plt+0x70e0>
    b000:	d503233f 	paciasp
    b004:	d103c3ff 	sub	sp, sp, #0xf0
    b008:	90000121 	adrp	x1, 2f000 <_obstack_memory_used@@Base+0x221c0>
    b00c:	f947e821 	ldr	x1, [x1, #4048]
    b010:	a90a7bfd 	stp	x29, x30, [sp, #160]
    b014:	910283fd 	add	x29, sp, #0xa0
    b018:	a90c5bf5 	stp	x21, x22, [sp, #192]
    b01c:	b0000135 	adrp	x21, 30000 <_obstack_memory_used@@Base+0x231c0>
    b020:	aa0003f6 	mov	x22, x0
    b024:	a90e6bf9 	stp	x25, x26, [sp, #224]
    b028:	910ac2ba 	add	x26, x21, #0x2b0
    b02c:	f9400020 	ldr	x0, [x1]
    b030:	f9004fe0 	str	x0, [sp, #152]
    b034:	d2800000 	mov	x0, #0x0                   	// #0
    b038:	39735342 	ldrb	w2, [x26, #3284]
    b03c:	36000262 	tbz	w2, #0, b088 <setlocale@plt+0x7228>
    b040:	90000120 	adrp	x0, 2f000 <_obstack_memory_used@@Base+0x221c0>
    b044:	f947e800 	ldr	x0, [x0, #4048]
    b048:	f9404fe2 	ldr	x2, [sp, #152]
    b04c:	f9400001 	ldr	x1, [x0]
    b050:	eb010042 	subs	x2, x2, x1
    b054:	d2800001 	mov	x1, #0x0                   	// #0
    b058:	54000be1 	b.ne	b1d4 <setlocale@plt+0x7374>  // b.any
    b05c:	90000120 	adrp	x0, 2f000 <_obstack_memory_used@@Base+0x221c0>
    b060:	f947e000 	ldr	x0, [x0, #4032]
    b064:	d2800022 	mov	x2, #0x1                   	// #1
    b068:	a94a7bfd 	ldp	x29, x30, [sp, #160]
    b06c:	f9400003 	ldr	x3, [x0]
    b070:	a94002c1 	ldp	x1, x0, [x22]
    b074:	a94c5bf5 	ldp	x21, x22, [sp, #192]
    b078:	a94e6bf9 	ldp	x25, x26, [sp, #224]
    b07c:	9103c3ff 	add	sp, sp, #0xf0
    b080:	d50323bf 	autiasp
    b084:	17ffe1db 	b	37f0 <fwrite_unlocked@plt>
    b088:	52800021 	mov	w1, #0x1                   	// #1
    b08c:	a90b53f3 	stp	x19, x20, [sp, #176]
    b090:	52800020 	mov	w0, #0x1                   	// #1
    b094:	39335341 	strb	w1, [x26, #3284]
    b098:	97ffe2aa 	bl	3b40 <tcgetpgrp@plt>
    b09c:	36f80140 	tbz	w0, #31, b0c4 <setlocale@plt+0x7264>
    b0a0:	b0000133 	adrp	x19, 30000 <_obstack_memory_used@@Base+0x231c0>
    b0a4:	91038273 	add	x19, x19, #0xe0
    b0a8:	91004274 	add	x20, x19, #0x10
    b0ac:	f9401680 	ldr	x0, [x20, #40]
    b0b0:	b4000820 	cbz	x0, b1b4 <setlocale@plt+0x7354>
    b0b4:	9100c260 	add	x0, x19, #0x30
    b0b8:	97ffffd2 	bl	b000 <setlocale@plt+0x71a0>
    b0bc:	a94b53f3 	ldp	x19, x20, [sp, #176]
    b0c0:	17ffffe0 	b	b040 <setlocale@plt+0x71e0>
    b0c4:	a90d63f7 	stp	x23, x24, [sp, #208]
    b0c8:	b0000078 	adrp	x24, 18000 <_obstack_memory_used@@Base+0xb1c0>
    b0cc:	910a0318 	add	x24, x24, #0x280
    b0d0:	91004313 	add	x19, x24, #0x10
    b0d4:	910003f9 	mov	x25, sp
    b0d8:	91010318 	add	x24, x24, #0x40
    b0dc:	aa1303f4 	mov	x20, x19
    b0e0:	9133835a 	add	x26, x26, #0xce0
    b0e4:	aa1a03e0 	mov	x0, x26
    b0e8:	97ffe25a 	bl	3a50 <sigemptyset@plt>
    b0ec:	d503201f 	nop
    b0f0:	b9400297 	ldr	w23, [x20]
    b0f4:	aa1903e2 	mov	x2, x25
    b0f8:	d2800001 	mov	x1, #0x0                   	// #0
    b0fc:	2a1703e0 	mov	w0, w23
    b100:	97ffe288 	bl	3b20 <sigaction@plt>
    b104:	f94003e0 	ldr	x0, [sp]
    b108:	f100041f 	cmp	x0, #0x1
    b10c:	54000080 	b.eq	b11c <setlocale@plt+0x72bc>  // b.none
    b110:	2a1703e1 	mov	w1, w23
    b114:	aa1a03e0 	mov	x0, x26
    b118:	97ffe32a 	bl	3dc0 <sigaddset@plt>
    b11c:	91001294 	add	x20, x20, #0x4
    b120:	eb18029f 	cmp	x20, x24
    b124:	54fffe61 	b.ne	b0f0 <setlocale@plt+0x7290>  // b.any
    b128:	910ac2b4 	add	x20, x21, #0x2b0
    b12c:	910023e0 	add	x0, sp, #0x8
    b130:	91338294 	add	x20, x20, #0xce0
    b134:	d0ffffda 	adrp	x26, 5000 <setlocale@plt+0x11a0>
    b138:	d0ffffd7 	adrp	x23, 5000 <setlocale@plt+0x11a0>
    b13c:	913e035a 	add	x26, x26, #0xf80
    b140:	913d42f7 	add	x23, x23, #0xf50
    b144:	52a20001 	mov	w1, #0x10000000            	// #268435456
    b148:	ad400680 	ldp	q0, q1, [x20]
    b14c:	b9008be1 	str	w1, [sp, #136]
    b150:	ad411684 	ldp	q4, q5, [x20, #32]
    b154:	ad420e82 	ldp	q2, q3, [x20, #64]
    b158:	ad000400 	stp	q0, q1, [x0]
    b15c:	ad430680 	ldp	q0, q1, [x20, #96]
    b160:	ad011404 	stp	q4, q5, [x0, #32]
    b164:	ad020c02 	stp	q2, q3, [x0, #64]
    b168:	ad030400 	stp	q0, q1, [x0, #96]
    b16c:	d503201f 	nop
    b170:	b9400275 	ldr	w21, [x19]
    b174:	aa1403e0 	mov	x0, x20
    b178:	2a1503e1 	mov	w1, w21
    b17c:	97ffe2a5 	bl	3c10 <sigismember@plt>
    b180:	34000100 	cbz	w0, b1a0 <setlocale@plt+0x7340>
    b184:	710052bf 	cmp	w21, #0x14
    b188:	2a1503e0 	mov	w0, w21
    b18c:	9a9a12e3 	csel	x3, x23, x26, ne	// ne = any
    b190:	aa1903e1 	mov	x1, x25
    b194:	d2800002 	mov	x2, #0x0                   	// #0
    b198:	f90003e3 	str	x3, [sp]
    b19c:	97ffe261 	bl	3b20 <sigaction@plt>
    b1a0:	91001273 	add	x19, x19, #0x4
    b1a4:	eb13031f 	cmp	x24, x19
    b1a8:	54fffe41 	b.ne	b170 <setlocale@plt+0x7310>  // b.any
    b1ac:	a94d63f7 	ldp	x23, x24, [sp, #208]
    b1b0:	17ffffbc 	b	b0a0 <setlocale@plt+0x7240>
    b1b4:	aa1403e0 	mov	x0, x20
    b1b8:	97ffff92 	bl	b000 <setlocale@plt+0x71a0>
    b1bc:	91010260 	add	x0, x19, #0x40
    b1c0:	97ffff90 	bl	b000 <setlocale@plt+0x71a0>
    b1c4:	91004280 	add	x0, x20, #0x10
    b1c8:	97ffff8e 	bl	b000 <setlocale@plt+0x71a0>
    b1cc:	a94b53f3 	ldp	x19, x20, [sp, #176]
    b1d0:	17ffff9c 	b	b040 <setlocale@plt+0x71e0>
    b1d4:	a90b53f3 	stp	x19, x20, [sp, #176]
    b1d8:	a90d63f7 	stp	x23, x24, [sp, #208]
    b1dc:	97ffe24d 	bl	3b10 <__stack_chk_fail@plt>
    b1e0:	d503233f 	paciasp
    b1e4:	d10383ff 	sub	sp, sp, #0xe0
    b1e8:	90000120 	adrp	x0, 2f000 <_obstack_memory_used@@Base+0x221c0>
    b1ec:	f947e800 	ldr	x0, [x0, #4048]
    b1f0:	a9097bfd 	stp	x29, x30, [sp, #144]
    b1f4:	910243fd 	add	x29, sp, #0x90
    b1f8:	a90a53f3 	stp	x19, x20, [sp, #160]
    b1fc:	b0000133 	adrp	x19, 30000 <_obstack_memory_used@@Base+0x231c0>
    b200:	a90b5bf5 	stp	x21, x22, [sp, #176]
    b204:	a90c63f7 	stp	x23, x24, [sp, #192]
    b208:	b0000138 	adrp	x24, 30000 <_obstack_memory_used@@Base+0x231c0>
    b20c:	91038318 	add	x24, x24, #0xe0
    b210:	f9006bf9 	str	x25, [sp, #208]
    b214:	91004319 	add	x25, x24, #0x10
    b218:	90000137 	adrp	x23, 2f000 <_obstack_memory_used@@Base+0x221c0>
    b21c:	f947e2f7 	ldr	x23, [x23, #4032]
    b220:	91008318 	add	x24, x24, #0x20
    b224:	f9400001 	ldr	x1, [x0]
    b228:	f90047e1 	str	x1, [sp, #136]
    b22c:	d2800001 	mov	x1, #0x0                   	// #0
    b230:	14000015 	b	b284 <setlocale@plt+0x7424>
    b234:	f94002e0 	ldr	x0, [x23]
    b238:	910ac274 	add	x20, x19, #0x2b0
    b23c:	910023f5 	add	x21, sp, #0x8
    b240:	97ffe2a4 	bl	3cd0 <fflush_unlocked@plt>
    b244:	aa1503e2 	mov	x2, x21
    b248:	91338281 	add	x1, x20, #0xce0
    b24c:	52800000 	mov	w0, #0x0                   	// #0
    b250:	97ffe18c 	bl	3880 <sigprocmask@plt>
    b254:	b942b276 	ldr	w22, [x19, #688]
    b258:	b9400680 	ldr	w0, [x20, #4]
    b25c:	340002e0 	cbz	w0, b2b8 <setlocale@plt+0x7458>
    b260:	51000400 	sub	w0, w0, #0x1
    b264:	52800276 	mov	w22, #0x13                  	// #19
    b268:	b9000680 	str	w0, [x20, #4]
    b26c:	2a1603e0 	mov	w0, w22
    b270:	97ffe178 	bl	3850 <raise@plt>
    b274:	aa1503e1 	mov	x1, x21
    b278:	d2800002 	mov	x2, #0x0                   	// #0
    b27c:	52800040 	mov	w0, #0x2                   	// #2
    b280:	97ffe180 	bl	3880 <sigprocmask@plt>
    b284:	b942b260 	ldr	w0, [x19, #688]
    b288:	910ac261 	add	x1, x19, #0x2b0
    b28c:	35000060 	cbnz	w0, b298 <setlocale@plt+0x7438>
    b290:	b9400420 	ldr	w0, [x1, #4]
    b294:	340001a0 	cbz	w0, b2c8 <setlocale@plt+0x7468>
    b298:	910ac260 	add	x0, x19, #0x2b0
    b29c:	39735000 	ldrb	w0, [x0, #3284]
    b2a0:	3607fca0 	tbz	w0, #0, b234 <setlocale@plt+0x73d4>
    b2a4:	aa1903e0 	mov	x0, x25
    b2a8:	97ffff56 	bl	b000 <setlocale@plt+0x71a0>
    b2ac:	aa1803e0 	mov	x0, x24
    b2b0:	97ffff54 	bl	b000 <setlocale@plt+0x71a0>
    b2b4:	17ffffe0 	b	b234 <setlocale@plt+0x73d4>
    b2b8:	2a1603e0 	mov	w0, w22
    b2bc:	d2800001 	mov	x1, #0x0                   	// #0
    b2c0:	97ffe1bc 	bl	39b0 <signal@plt>
    b2c4:	17ffffea 	b	b26c <setlocale@plt+0x740c>
    b2c8:	90000120 	adrp	x0, 2f000 <_obstack_memory_used@@Base+0x221c0>
    b2cc:	f947e800 	ldr	x0, [x0, #4048]
    b2d0:	f94047e2 	ldr	x2, [sp, #136]
    b2d4:	f9400001 	ldr	x1, [x0]
    b2d8:	eb010042 	subs	x2, x2, x1
    b2dc:	d2800001 	mov	x1, #0x0                   	// #0
    b2e0:	54000121 	b.ne	b304 <setlocale@plt+0x74a4>  // b.any
    b2e4:	a9497bfd 	ldp	x29, x30, [sp, #144]
    b2e8:	a94a53f3 	ldp	x19, x20, [sp, #160]
    b2ec:	a94b5bf5 	ldp	x21, x22, [sp, #176]
    b2f0:	a94c63f7 	ldp	x23, x24, [sp, #192]
    b2f4:	f9406bf9 	ldr	x25, [sp, #208]
    b2f8:	910383ff 	add	sp, sp, #0xe0
    b2fc:	d50323bf 	autiasp
    b300:	d65f03c0 	ret
    b304:	97ffe203 	bl	3b10 <__stack_chk_fail@plt>
    b308:	d503201f 	nop
    b30c:	d503201f 	nop
    b310:	d503233f 	paciasp
    b314:	d102c3ff 	sub	sp, sp, #0xb0
    b318:	90000123 	adrp	x3, 2f000 <_obstack_memory_used@@Base+0x221c0>
    b31c:	f947e863 	ldr	x3, [x3, #4048]
    b320:	a9087bfd 	stp	x29, x30, [sp, #128]
    b324:	910203fd 	add	x29, sp, #0x80
    b328:	a90953f3 	stp	x19, x20, [sp, #144]
    b32c:	aa0003f4 	mov	x20, x0
    b330:	f90053f5 	str	x21, [sp, #160]
    b334:	aa0103f5 	mov	x21, x1
    b338:	f9400064 	ldr	x4, [x3]
    b33c:	f9003fe4 	str	x4, [sp, #120]
    b340:	d2800004 	mov	x4, #0x0                   	// #0
    b344:	b100045f 	cmn	x2, #0x1
    b348:	54000640 	b.eq	b410 <setlocale@plt+0x75b0>  // b.none
    b34c:	90000081 	adrp	x1, 1b000 <_obstack_memory_used@@Base+0xe1c0>
    b350:	528000a2 	mov	w2, #0x5                   	// #5
    b354:	91288021 	add	x1, x1, #0xa20
    b358:	d2800000 	mov	x0, #0x0                   	// #0
    b35c:	97ffe281 	bl	3d60 <dcgettext@plt>
    b360:	aa0003f3 	mov	x19, x0
    b364:	4f000400 	movi	v0.4s, #0x0
    b368:	910113e4 	add	x4, sp, #0x44
    b36c:	910103e3 	add	x3, sp, #0x40
    b370:	52800100 	mov	w0, #0x8                   	// #8
    b374:	b90043e0 	str	w0, [sp, #64]
    b378:	910023e2 	add	x2, sp, #0x8
    b37c:	b90077ff 	str	wzr, [sp, #116]
    b380:	aa1503e1 	mov	x1, x21
    b384:	52800000 	mov	w0, #0x0                   	// #0
    b388:	ad000080 	stp	q0, q0, [x4]
    b38c:	ad400861 	ldp	q1, q2, [x3]
    b390:	3d800880 	str	q0, [x4, #32]
    b394:	3dc00860 	ldr	q0, [x3, #32]
    b398:	ad000841 	stp	q1, q2, [x2]
    b39c:	f9401863 	ldr	x3, [x3, #48]
    b3a0:	3d800840 	str	q0, [x2, #32]
    b3a4:	f9001843 	str	x3, [x2, #48]
    b3a8:	94001ca6 	bl	12640 <_obstack_memory_used@@Base+0x5800>
    b3ac:	b0000122 	adrp	x2, 30000 <_obstack_memory_used@@Base+0x231c0>
    b3b0:	91004042 	add	x2, x2, #0x10
    b3b4:	aa1403e1 	mov	x1, x20
    b3b8:	9101e042 	add	x2, x2, #0x78
    b3bc:	aa0003f4 	mov	x20, x0
    b3c0:	52800020 	mov	w0, #0x1                   	// #1
    b3c4:	94001c9f 	bl	12640 <_obstack_memory_used@@Base+0x5800>
    b3c8:	aa0003e4 	mov	x4, x0
    b3cc:	90000121 	adrp	x1, 2f000 <_obstack_memory_used@@Base+0x221c0>
    b3d0:	f947e821 	ldr	x1, [x1, #4048]
    b3d4:	f9403fe0 	ldr	x0, [sp, #120]
    b3d8:	f9400022 	ldr	x2, [x1]
    b3dc:	eb020000 	subs	x0, x0, x2
    b3e0:	d2800002 	mov	x2, #0x0                   	// #0
    b3e4:	54000241 	b.ne	b42c <setlocale@plt+0x75cc>  // b.any
    b3e8:	a9487bfd 	ldp	x29, x30, [sp, #128]
    b3ec:	aa1403e3 	mov	x3, x20
    b3f0:	aa1303e2 	mov	x2, x19
    b3f4:	52800001 	mov	w1, #0x0                   	// #0
    b3f8:	a94953f3 	ldp	x19, x20, [sp, #144]
    b3fc:	52800000 	mov	w0, #0x0                   	// #0
    b400:	f94053f5 	ldr	x21, [sp, #160]
    b404:	9102c3ff 	add	sp, sp, #0xb0
    b408:	d50323bf 	autiasp
    b40c:	17ffe119 	b	3870 <error@plt>
    b410:	90000081 	adrp	x1, 1b000 <_obstack_memory_used@@Base+0xe1c0>
    b414:	528000a2 	mov	w2, #0x5                   	// #5
    b418:	91280021 	add	x1, x1, #0xa00
    b41c:	d2800000 	mov	x0, #0x0                   	// #0
    b420:	97ffe250 	bl	3d60 <dcgettext@plt>
    b424:	aa0003f3 	mov	x19, x0
    b428:	17ffffcf 	b	b364 <setlocale@plt+0x7504>
    b42c:	97ffe1b9 	bl	3b10 <__stack_chk_fail@plt>
    b430:	d503233f 	paciasp
    b434:	a9bf7bfd 	stp	x29, x30, [sp, #-16]!
    b438:	aa0003e6 	mov	x6, x0
    b43c:	910003fd 	mov	x29, sp
    b440:	f9400027 	ldr	x7, [x1]
    b444:	d2800002 	mov	x2, #0x0                   	// #0
    b448:	d2800000 	mov	x0, #0x0                   	// #0
    b44c:	d503201f 	nop
    b450:	b7f80587 	tbnz	x7, #63, b500 <setlocale@plt+0x76a0>
    b454:	91000843 	add	x3, x2, #0x2
    b458:	eb0200ff 	cmp	x7, x2
    b45c:	540006e0 	b.eq	b538 <setlocale@plt+0x76d8>  // b.none
    b460:	91000440 	add	x0, x2, #0x1
    b464:	eb0300ff 	cmp	x7, x3
    b468:	54000709 	b.ls	b548 <setlocale@plt+0x76e8>  // b.plast
    b46c:	aa0003e2 	mov	x2, x0
    b470:	14000008 	b	b490 <setlocale@plt+0x7630>
    b474:	7101007f 	cmp	w3, #0x40
    b478:	540003a8 	b.hi	b4ec <setlocale@plt+0x768c>  // b.pmore
    b47c:	710024bf 	cmp	w5, #0x9
    b480:	54000369 	b.ls	b4ec <setlocale@plt+0x768c>  // b.plast
    b484:	91000443 	add	x3, x2, #0x1
    b488:	eb07007f 	cmp	x3, x7
    b48c:	54fffe22 	b.cs	b450 <setlocale@plt+0x75f0>  // b.hs, b.nlast
    b490:	386268c3 	ldrb	w3, [x6, x2]
    b494:	7100b87f 	cmp	w3, #0x2e
    b498:	54fffdc1 	b.ne	b450 <setlocale@plt+0x75f0>  // b.any
    b49c:	8b0200c3 	add	x3, x6, x2
    b4a0:	39400463 	ldrb	w3, [x3, #1]
    b4a4:	7101687f 	cmp	w3, #0x5a
    b4a8:	540003a8 	b.hi	b51c <setlocale@plt+0x76bc>  // b.pmore
    b4ac:	7101007f 	cmp	w3, #0x40
    b4b0:	54fffd09 	b.ls	b450 <setlocale@plt+0x75f0>  // b.plast
    b4b4:	91000842 	add	x2, x2, #0x2
    b4b8:	eb0200ff 	cmp	x7, x2
    b4bc:	54fffe49 	b.ls	b484 <setlocale@plt+0x7624>  // b.plast
    b4c0:	386268c3 	ldrb	w3, [x6, x2]
    b4c4:	5100c065 	sub	w5, w3, #0x30
    b4c8:	51018464 	sub	w4, w3, #0x61
    b4cc:	12001ca5 	and	w5, w5, #0xff
    b4d0:	12001c84 	and	w4, w4, #0xff
    b4d4:	7101687f 	cmp	w3, #0x5a
    b4d8:	54fffce9 	b.ls	b474 <setlocale@plt+0x7614>  // b.plast
    b4dc:	7100649f 	cmp	w4, #0x19
    b4e0:	54000069 	b.ls	b4ec <setlocale@plt+0x768c>  // b.plast
    b4e4:	7101f87f 	cmp	w3, #0x7e
    b4e8:	54fffce1 	b.ne	b484 <setlocale@plt+0x7624>  // b.any
    b4ec:	91000442 	add	x2, x2, #0x1
    b4f0:	eb0200ff 	cmp	x7, x2
    b4f4:	54fffe68 	b.hi	b4c0 <setlocale@plt+0x7660>  // b.pmore
    b4f8:	17ffffe3 	b	b484 <setlocale@plt+0x7624>
    b4fc:	aa0003e2 	mov	x2, x0
    b500:	386268c3 	ldrb	w3, [x6, x2]
    b504:	91000844 	add	x4, x2, #0x2
    b508:	34000183 	cbz	w3, b538 <setlocale@plt+0x76d8>
    b50c:	91000440 	add	x0, x2, #0x1
    b510:	eb0400ff 	cmp	x7, x4
    b514:	54fffac8 	b.hi	b46c <setlocale@plt+0x760c>  // b.pmore
    b518:	17fffff9 	b	b4fc <setlocale@plt+0x769c>
    b51c:	51018464 	sub	w4, w3, #0x61
    b520:	12001c84 	and	w4, w4, #0xff
    b524:	7100649f 	cmp	w4, #0x19
    b528:	54fffc69 	b.ls	b4b4 <setlocale@plt+0x7654>  // b.plast
    b52c:	7101f87f 	cmp	w3, #0x7e
    b530:	54fffc20 	b.eq	b4b4 <setlocale@plt+0x7654>  // b.none
    b534:	17ffffc7 	b	b450 <setlocale@plt+0x75f0>
    b538:	a8c17bfd 	ldp	x29, x30, [sp], #16
    b53c:	d50323bf 	autiasp
    b540:	f9000022 	str	x2, [x1]
    b544:	d65f03c0 	ret
    b548:	aa0003e2 	mov	x2, x0
    b54c:	17ffffc2 	b	b454 <setlocale@plt+0x75f4>
    b550:	d503245f 	bti	c
    b554:	aa0003e9 	mov	x9, x0
    b558:	d503233f 	paciasp
    b55c:	d2800005 	mov	x5, #0x0                   	// #0
    b560:	a9bf7bfd 	stp	x29, x30, [sp, #-16]!
    b564:	d2800004 	mov	x4, #0x0                   	// #0
    b568:	910003fd 	mov	x29, sp
    b56c:	eb01009f 	cmp	x4, x1
    b570:	fa43a0a1 	ccmp	x5, x3, #0x1, ge	// ge = tcont
    b574:	540016ea 	b.ge	b850 <setlocale@plt+0x79f0>  // b.tcont
    b578:	eb01009f 	cmp	x4, x1
    b57c:	5400038a 	b.ge	b5ec <setlocale@plt+0x778c>  // b.tcont
    b580:	38646927 	ldrb	w7, [x9, x4]
    b584:	5100c0e6 	sub	w6, w7, #0x30
    b588:	710024df 	cmp	w6, #0x9
    b58c:	54000309 	b.ls	b5ec <setlocale@plt+0x778c>  // b.plast
    b590:	710168ff 	cmp	w7, #0x5a
    b594:	54000a68 	b.hi	b6e0 <setlocale@plt+0x7880>  // b.pmore
    b598:	710100ff 	cmp	w7, #0x40
    b59c:	54000aa8 	b.hi	b6f0 <setlocale@plt+0x7890>  // b.pmore
    b5a0:	110400e0 	add	w0, w7, #0x100
    b5a4:	eb0300bf 	cmp	x5, x3
    b5a8:	54001580 	b.eq	b858 <setlocale@plt+0x79f8>  // b.none
    b5ac:	38656846 	ldrb	w6, [x2, x5]
    b5b0:	5100c0c7 	sub	w7, w6, #0x30
    b5b4:	710024ff 	cmp	w7, #0x9
    b5b8:	540008e9 	b.ls	b6d4 <setlocale@plt+0x7874>  // b.plast
    b5bc:	710168df 	cmp	w6, #0x5a
    b5c0:	54001708 	b.hi	b8a0 <setlocale@plt+0x7a40>  // b.pmore
    b5c4:	710100df 	cmp	w6, #0x40
    b5c8:	54000ce8 	b.hi	b764 <setlocale@plt+0x7904>  // b.pmore
    b5cc:	d503201f 	nop
    b5d0:	110400c6 	add	w6, w6, #0x100
    b5d4:	6b06001f 	cmp	w0, w6
    b5d8:	54000c61 	b.ne	b764 <setlocale@plt+0x7904>  // b.any
    b5dc:	91000484 	add	x4, x4, #0x1
    b5e0:	910004a5 	add	x5, x5, #0x1
    b5e4:	eb01009f 	cmp	x4, x1
    b5e8:	54fffccb 	b.lt	b580 <setlocale@plt+0x7720>  // b.tstop
    b5ec:	eb0300bf 	cmp	x5, x3
    b5f0:	540000aa 	b.ge	b604 <setlocale@plt+0x77a4>  // b.tcont
    b5f4:	38656846 	ldrb	w6, [x2, x5]
    b5f8:	5100c0c7 	sub	w7, w6, #0x30
    b5fc:	710024ff 	cmp	w7, #0x9
    b600:	54000908 	b.hi	b720 <setlocale@plt+0x78c0>  // b.pmore
    b604:	eb01009f 	cmp	x4, x1
    b608:	540000ab 	b.lt	b61c <setlocale@plt+0x77bc>  // b.tstop
    b60c:	1400008a 	b	b834 <setlocale@plt+0x79d4>
    b610:	91000484 	add	x4, x4, #0x1
    b614:	eb04003f 	cmp	x1, x4
    b618:	54000080 	b.eq	b628 <setlocale@plt+0x77c8>  // b.none
    b61c:	38646926 	ldrb	w6, [x9, x4]
    b620:	7100c0df 	cmp	w6, #0x30
    b624:	54ffff60 	b.eq	b610 <setlocale@plt+0x77b0>  // b.none
    b628:	eb0300bf 	cmp	x5, x3
    b62c:	540000ab 	b.lt	b640 <setlocale@plt+0x77e0>  // b.tstop
    b630:	14000084 	b	b840 <setlocale@plt+0x79e0>
    b634:	910004a5 	add	x5, x5, #0x1
    b638:	eb05007f 	cmp	x3, x5
    b63c:	54000980 	b.eq	b76c <setlocale@plt+0x790c>  // b.none
    b640:	38656846 	ldrb	w6, [x2, x5]
    b644:	7100c0df 	cmp	w6, #0x30
    b648:	54ffff60 	b.eq	b634 <setlocale@plt+0x77d4>  // b.none
    b64c:	eb05007f 	cmp	x3, x5
    b650:	52800000 	mov	w0, #0x0                   	// #0
    b654:	fa44c024 	ccmp	x1, x4, #0x4, gt
    b658:	5400024d 	b.le	b6a0 <setlocale@plt+0x7840>
    b65c:	38646926 	ldrb	w6, [x9, x4]
    b660:	5100c0c7 	sub	w7, w6, #0x30
    b664:	710024ff 	cmp	w7, #0x9
    b668:	540001c8 	b.hi	b6a0 <setlocale@plt+0x7840>  // b.pmore
    b66c:	38656847 	ldrb	w7, [x2, x5]
    b670:	4b0700c6 	sub	w6, w6, w7
    b674:	5100c0e7 	sub	w7, w7, #0x30
    b678:	710024ff 	cmp	w7, #0x9
    b67c:	540007c8 	b.hi	b774 <setlocale@plt+0x7914>  // b.pmore
    b680:	7100001f 	cmp	w0, #0x0
    b684:	91000484 	add	x4, x4, #0x1
    b688:	1a8000c0 	csel	w0, w6, w0, eq	// eq = none
    b68c:	910004a5 	add	x5, x5, #0x1
    b690:	eb04003f 	cmp	x1, x4
    b694:	fa45c064 	ccmp	x3, x5, #0x4, gt
    b698:	54fffe2c 	b.gt	b65c <setlocale@plt+0x77fc>
    b69c:	d503201f 	nop
    b6a0:	eb01009f 	cmp	x4, x1
    b6a4:	540000aa 	b.ge	b6b8 <setlocale@plt+0x7858>  // b.tcont
    b6a8:	38646926 	ldrb	w6, [x9, x4]
    b6ac:	5100c0c6 	sub	w6, w6, #0x30
    b6b0:	710024df 	cmp	w6, #0x9
    b6b4:	54000649 	b.ls	b77c <setlocale@plt+0x791c>  // b.plast
    b6b8:	eb05007f 	cmp	x3, x5
    b6bc:	540000ad 	b.le	b6d0 <setlocale@plt+0x7870>
    b6c0:	38656846 	ldrb	w6, [x2, x5]
    b6c4:	5100c0c6 	sub	w6, w6, #0x30
    b6c8:	710024df 	cmp	w6, #0x9
    b6cc:	54000809 	b.ls	b7cc <setlocale@plt+0x796c>  // b.plast
    b6d0:	34fff4e0 	cbz	w0, b56c <setlocale@plt+0x770c>
    b6d4:	a8c17bfd 	ldp	x29, x30, [sp], #16
    b6d8:	d50323bf 	autiasp
    b6dc:	d65f03c0 	ret
    b6e0:	510184e6 	sub	w6, w7, #0x61
    b6e4:	12001cc6 	and	w6, w6, #0xff
    b6e8:	710064df 	cmp	w6, #0x19
    b6ec:	54000508 	b.hi	b78c <setlocale@plt+0x792c>  // b.pmore
    b6f0:	2a0703e0 	mov	w0, w7
    b6f4:	eb0300bf 	cmp	x5, x3
    b6f8:	54000b40 	b.eq	b860 <setlocale@plt+0x7a00>  // b.none
    b6fc:	38656846 	ldrb	w6, [x2, x5]
    b700:	5100c0c7 	sub	w7, w6, #0x30
    b704:	710024ff 	cmp	w7, #0x9
    b708:	54fffe69 	b.ls	b6d4 <setlocale@plt+0x7874>  // b.plast
    b70c:	710168df 	cmp	w6, #0x5a
    b710:	54000c88 	b.hi	b8a0 <setlocale@plt+0x7a40>  // b.pmore
    b714:	710100df 	cmp	w6, #0x40
    b718:	54fff5e8 	b.hi	b5d4 <setlocale@plt+0x7774>  // b.pmore
    b71c:	17ffffad 	b	b5d0 <setlocale@plt+0x7770>
    b720:	eb01009f 	cmp	x4, x1
    b724:	54000660 	b.eq	b7f0 <setlocale@plt+0x7990>  // b.none
    b728:	38646927 	ldrb	w7, [x9, x4]
    b72c:	5100c0e8 	sub	w8, w7, #0x30
    b730:	7100251f 	cmp	w8, #0x9
    b734:	54fff2e8 	b.hi	b590 <setlocale@plt+0x7730>  // b.pmore
    b738:	710168df 	cmp	w6, #0x5a
    b73c:	540000a8 	b.hi	b750 <setlocale@plt+0x78f0>  // b.pmore
    b740:	710100df 	cmp	w6, #0x40
    b744:	540000e8 	b.hi	b760 <setlocale@plt+0x7900>  // b.pmore
    b748:	52800000 	mov	w0, #0x0                   	// #0
    b74c:	17ffffa1 	b	b5d0 <setlocale@plt+0x7770>
    b750:	510184c0 	sub	w0, w6, #0x61
    b754:	12001c00 	and	w0, w0, #0xff
    b758:	7100641f 	cmp	w0, #0x19
    b75c:	54000408 	b.hi	b7dc <setlocale@plt+0x797c>  // b.pmore
    b760:	52800000 	mov	w0, #0x0                   	// #0
    b764:	4b060000 	sub	w0, w0, w6
    b768:	17ffffdb 	b	b6d4 <setlocale@plt+0x7874>
    b76c:	52800000 	mov	w0, #0x0                   	// #0
    b770:	17ffffcc 	b	b6a0 <setlocale@plt+0x7840>
    b774:	eb04003f 	cmp	x1, x4
    b778:	54fffa0d 	b.le	b6b8 <setlocale@plt+0x7858>
    b77c:	a8c17bfd 	ldp	x29, x30, [sp], #16
    b780:	d50323bf 	autiasp
    b784:	52800020 	mov	w0, #0x1                   	// #1
    b788:	d65f03c0 	ret
    b78c:	7101f8ff 	cmp	w7, #0x7e
    b790:	54fff081 	b.ne	b5a0 <setlocale@plt+0x7740>  // b.any
    b794:	eb0300bf 	cmp	x5, x3
    b798:	540001a0 	b.eq	b7cc <setlocale@plt+0x796c>  // b.none
    b79c:	38656846 	ldrb	w6, [x2, x5]
    b7a0:	5100c0c0 	sub	w0, w6, #0x30
    b7a4:	7100241f 	cmp	w0, #0x9
    b7a8:	54000609 	b.ls	b868 <setlocale@plt+0x7a08>  // b.plast
    b7ac:	710168df 	cmp	w6, #0x5a
    b7b0:	54000608 	b.hi	b870 <setlocale@plt+0x7a10>  // b.pmore
    b7b4:	710100df 	cmp	w6, #0x40
    b7b8:	54000048 	b.hi	b7c0 <setlocale@plt+0x7960>  // b.pmore
    b7bc:	110400c6 	add	w6, w6, #0x100
    b7c0:	12800020 	mov	w0, #0xfffffffe            	// #-2
    b7c4:	4b060000 	sub	w0, w0, w6
    b7c8:	17ffffc3 	b	b6d4 <setlocale@plt+0x7874>
    b7cc:	a8c17bfd 	ldp	x29, x30, [sp], #16
    b7d0:	d50323bf 	autiasp
    b7d4:	12800000 	mov	w0, #0xffffffff            	// #-1
    b7d8:	d65f03c0 	ret
    b7dc:	7101f8df 	cmp	w6, #0x7e
    b7e0:	54000580 	b.eq	b890 <setlocale@plt+0x7a30>  // b.none
    b7e4:	110400c6 	add	w6, w6, #0x100
    b7e8:	52800000 	mov	w0, #0x0                   	// #0
    b7ec:	17ffffde 	b	b764 <setlocale@plt+0x7904>
    b7f0:	710168df 	cmp	w6, #0x5a
    b7f4:	54000169 	b.ls	b820 <setlocale@plt+0x79c0>  // b.plast
    b7f8:	510184c0 	sub	w0, w6, #0x61
    b7fc:	12001c00 	and	w0, w0, #0xff
    b800:	7100641f 	cmp	w0, #0x19
    b804:	54000089 	b.ls	b814 <setlocale@plt+0x79b4>  // b.plast
    b808:	7101f8df 	cmp	w6, #0x7e
    b80c:	540005a0 	b.eq	b8c0 <setlocale@plt+0x7a60>  // b.none
    b810:	110400c6 	add	w6, w6, #0x100
    b814:	12800000 	mov	w0, #0xffffffff            	// #-1
    b818:	4b060000 	sub	w0, w0, w6
    b81c:	17ffffae 	b	b6d4 <setlocale@plt+0x7874>
    b820:	12800000 	mov	w0, #0xffffffff            	// #-1
    b824:	710100df 	cmp	w6, #0x40
    b828:	54ffed49 	b.ls	b5d0 <setlocale@plt+0x7770>  // b.plast
    b82c:	4b060000 	sub	w0, w0, w6
    b830:	17ffffa9 	b	b6d4 <setlocale@plt+0x7874>
    b834:	eb0300bf 	cmp	x5, x3
    b838:	54fff04b 	b.lt	b640 <setlocale@plt+0x77e0>  // b.tstop
    b83c:	17ffff4c 	b	b56c <setlocale@plt+0x770c>
    b840:	52800000 	mov	w0, #0x0                   	// #0
    b844:	eb01009f 	cmp	x4, x1
    b848:	54fff30b 	b.lt	b6a8 <setlocale@plt+0x7848>  // b.tstop
    b84c:	17ffff48 	b	b56c <setlocale@plt+0x770c>
    b850:	52800000 	mov	w0, #0x0                   	// #0
    b854:	17ffffa0 	b	b6d4 <setlocale@plt+0x7874>
    b858:	110404e0 	add	w0, w7, #0x101
    b85c:	17ffff9e 	b	b6d4 <setlocale@plt+0x7874>
    b860:	110004e0 	add	w0, w7, #0x1
    b864:	17ffff9c 	b	b6d4 <setlocale@plt+0x7874>
    b868:	12800020 	mov	w0, #0xfffffffe            	// #-2
    b86c:	17ffff9a 	b	b6d4 <setlocale@plt+0x7874>
    b870:	510184c0 	sub	w0, w6, #0x61
    b874:	12001c00 	and	w0, w0, #0xff
    b878:	7100641f 	cmp	w0, #0x19
    b87c:	54fffa29 	b.ls	b7c0 <setlocale@plt+0x7960>  // b.plast
    b880:	7101f8df 	cmp	w6, #0x7e
    b884:	54ffeac0 	b.eq	b5dc <setlocale@plt+0x777c>  // b.none
    b888:	110400c6 	add	w6, w6, #0x100
    b88c:	17ffffcd 	b	b7c0 <setlocale@plt+0x7960>
    b890:	52800000 	mov	w0, #0x0                   	// #0
    b894:	12800026 	mov	w6, #0xfffffffe            	// #-2
    b898:	4b060000 	sub	w0, w0, w6
    b89c:	17ffff8e 	b	b6d4 <setlocale@plt+0x7874>
    b8a0:	510184c7 	sub	w7, w6, #0x61
    b8a4:	12001ce7 	and	w7, w7, #0xff
    b8a8:	710064ff 	cmp	w7, #0x19
    b8ac:	54ffe949 	b.ls	b5d4 <setlocale@plt+0x7774>  // b.plast
    b8b0:	7101f8df 	cmp	w6, #0x7e
    b8b4:	54ffe8e1 	b.ne	b5d0 <setlocale@plt+0x7770>  // b.any
    b8b8:	12800026 	mov	w6, #0xfffffffe            	// #-2
    b8bc:	17fffff7 	b	b898 <setlocale@plt+0x7a38>
    b8c0:	12800000 	mov	w0, #0xffffffff            	// #-1
    b8c4:	12800026 	mov	w6, #0xfffffffe            	// #-2
    b8c8:	17fffff4 	b	b898 <setlocale@plt+0x7a38>
    b8cc:	d503201f 	nop
    b8d0:	d503233f 	paciasp
    b8d4:	a9bd7bfd 	stp	x29, x30, [sp, #-48]!
    b8d8:	910003fd 	mov	x29, sp
    b8dc:	a90153f3 	stp	x19, x20, [sp, #16]
    b8e0:	aa0003f4 	mov	x20, x0
    b8e4:	aa0003f3 	mov	x19, x0
    b8e8:	f9400401 	ldr	x1, [x0, #8]
    b8ec:	f8410680 	ldr	x0, [x20], #16
    b8f0:	f90013f5 	str	x21, [sp, #32]
    b8f4:	d37ff835 	lsl	x21, x1, #1
    b8f8:	eb14001f 	cmp	x0, x20
    b8fc:	54000060 	b.eq	b908 <setlocale@plt+0x7aa8>  // b.none
    b900:	97ffe0d8 	bl	3c60 <free@plt>
    b904:	f9400661 	ldr	x1, [x19, #8]
    b908:	eb0102bf 	cmp	x21, x1
    b90c:	54000183 	b.cc	b93c <setlocale@plt+0x7adc>  // b.lo, b.ul, b.last
    b910:	aa1503e0 	mov	x0, x21
    b914:	97ffe037 	bl	39f0 <malloc@plt>
    b918:	aa0003e1 	mov	x1, x0
    b91c:	b4000160 	cbz	x0, b948 <setlocale@plt+0x7ae8>
    b920:	a9005661 	stp	x1, x21, [x19]
    b924:	52800020 	mov	w0, #0x1                   	// #1
    b928:	a94153f3 	ldp	x19, x20, [sp, #16]
    b92c:	f94013f5 	ldr	x21, [sp, #32]
    b930:	a8c37bfd 	ldp	x29, x30, [sp], #48
    b934:	d50323bf 	autiasp
    b938:	d65f03c0 	ret
    b93c:	97ffe131 	bl	3e00 <__errno_location@plt>
    b940:	52800181 	mov	w1, #0xc                   	// #12
    b944:	b9000001 	str	w1, [x0]
    b948:	aa1403e1 	mov	x1, x20
    b94c:	d2808015 	mov	x21, #0x400                 	// #1024
    b950:	a9005661 	stp	x1, x21, [x19]
    b954:	52800000 	mov	w0, #0x0                   	// #0
    b958:	a94153f3 	ldp	x19, x20, [sp, #16]
    b95c:	f94013f5 	ldr	x21, [sp, #32]
    b960:	a8c37bfd 	ldp	x29, x30, [sp], #48
    b964:	d50323bf 	autiasp
    b968:	d65f03c0 	ret
    b96c:	d503201f 	nop
    b970:	d503233f 	paciasp
    b974:	a9bc7bfd 	stp	x29, x30, [sp, #-64]!
    b978:	910003fd 	mov	x29, sp
    b97c:	a9025bf5 	stp	x21, x22, [sp, #32]
    b980:	aa0003f5 	mov	x21, x0
    b984:	a90363f7 	stp	x23, x24, [sp, #48]
    b988:	f9400418 	ldr	x24, [x0, #8]
    b98c:	a90153f3 	stp	x19, x20, [sp, #16]
    b990:	aa0003f3 	mov	x19, x0
    b994:	f84106b7 	ldr	x23, [x21], #16
    b998:	d37ffb16 	lsl	x22, x24, #1
    b99c:	eb1502ff 	cmp	x23, x21
    b9a0:	54000200 	b.eq	b9e0 <setlocale@plt+0x7b80>  // b.none
    b9a4:	eb16031f 	cmp	x24, x22
    b9a8:	540002e8 	b.hi	ba04 <setlocale@plt+0x7ba4>  // b.pmore
    b9ac:	aa1703e0 	mov	x0, x23
    b9b0:	aa1603e1 	mov	x1, x22
    b9b4:	97ffe04b 	bl	3ae0 <realloc@plt>
    b9b8:	aa0003f4 	mov	x20, x0
    b9bc:	b4000360 	cbz	x0, ba28 <setlocale@plt+0x7bc8>
    b9c0:	52800020 	mov	w0, #0x1                   	// #1
    b9c4:	a9005a74 	stp	x20, x22, [x19]
    b9c8:	a94153f3 	ldp	x19, x20, [sp, #16]
    b9cc:	a9425bf5 	ldp	x21, x22, [sp, #32]
    b9d0:	a94363f7 	ldp	x23, x24, [sp, #48]
    b9d4:	a8c47bfd 	ldp	x29, x30, [sp], #64
    b9d8:	d50323bf 	autiasp
    b9dc:	d65f03c0 	ret
    b9e0:	aa1603e0 	mov	x0, x22
    b9e4:	97ffe003 	bl	39f0 <malloc@plt>
    b9e8:	aa0003f4 	mov	x20, x0
    b9ec:	b40001a0 	cbz	x0, ba20 <setlocale@plt+0x7bc0>
    b9f0:	aa1803e2 	mov	x2, x24
    b9f4:	aa1703e1 	mov	x1, x23
    b9f8:	aa1603e3 	mov	x3, x22
    b9fc:	97ffdfe9 	bl	39a0 <__memcpy_chk@plt>
    ba00:	17fffff0 	b	b9c0 <setlocale@plt+0x7b60>
    ba04:	97ffe0ff 	bl	3e00 <__errno_location@plt>
    ba08:	52800181 	mov	w1, #0xc                   	// #12
    ba0c:	b9000001 	str	w1, [x0]
    ba10:	aa1703e0 	mov	x0, x23
    ba14:	97ffe093 	bl	3c60 <free@plt>
    ba18:	d2808000 	mov	x0, #0x400                 	// #1024
    ba1c:	a9000275 	stp	x21, x0, [x19]
    ba20:	52800000 	mov	w0, #0x0                   	// #0
    ba24:	17ffffe9 	b	b9c8 <setlocale@plt+0x7b68>
    ba28:	f9400277 	ldr	x23, [x19]
    ba2c:	17fffff9 	b	ba10 <setlocale@plt+0x7bb0>
    ba30:	d503233f 	paciasp
    ba34:	d104c3ff 	sub	sp, sp, #0x130
    ba38:	90000122 	adrp	x2, 2f000 <_obstack_memory_used@@Base+0x221c0>
    ba3c:	f947e842 	ldr	x2, [x2, #4048]
    ba40:	d2800001 	mov	x1, #0x0                   	// #0
    ba44:	a9117bfd 	stp	x29, x30, [sp, #272]
    ba48:	910443fd 	add	x29, sp, #0x110
    ba4c:	f9400043 	ldr	x3, [x2]
    ba50:	f90087e3 	str	x3, [sp, #264]
    ba54:	d2800003 	mov	x3, #0x0                   	// #0
    ba58:	97ffe102 	bl	3e60 <setlocale@plt>
    ba5c:	b40000e0 	cbz	x0, ba78 <setlocale@plt+0x7c18>
    ba60:	f90093f3 	str	x19, [sp, #288]
    ba64:	aa0003f3 	mov	x19, x0
    ba68:	97ffdf66 	bl	3800 <strlen@plt>
    ba6c:	f104001f 	cmp	x0, #0x100
    ba70:	540001c9 	b.ls	baa8 <setlocale@plt+0x7c48>  // b.plast
    ba74:	f94093f3 	ldr	x19, [sp, #288]
    ba78:	52800000 	mov	w0, #0x0                   	// #0
    ba7c:	90000121 	adrp	x1, 2f000 <_obstack_memory_used@@Base+0x221c0>
    ba80:	f947e821 	ldr	x1, [x1, #4048]
    ba84:	f94087e3 	ldr	x3, [sp, #264]
    ba88:	f9400022 	ldr	x2, [x1]
    ba8c:	eb020063 	subs	x3, x3, x2
    ba90:	d2800002 	mov	x2, #0x0                   	// #0
    ba94:	54000341 	b.ne	bafc <setlocale@plt+0x7c9c>  // b.any
    ba98:	a9517bfd 	ldp	x29, x30, [sp, #272]
    ba9c:	9104c3ff 	add	sp, sp, #0x130
    baa0:	d50323bf 	autiasp
    baa4:	d65f03c0 	ret
    baa8:	910003e3 	mov	x3, sp
    baac:	91000402 	add	x2, x0, #0x1
    bab0:	aa1303e1 	mov	x1, x19
    bab4:	aa0303e0 	mov	x0, x3
    bab8:	97ffdf3e 	bl	37b0 <memcpy@plt>
    babc:	aa0003e3 	mov	x3, x0
    bac0:	394003e0 	ldrb	w0, [sp]
    bac4:	71010c1f 	cmp	w0, #0x43
    bac8:	54000120 	b.eq	baec <setlocale@plt+0x7c8c>  // b.none
    bacc:	aa0303e0 	mov	x0, x3
    bad0:	90000081 	adrp	x1, 1b000 <_obstack_memory_used@@Base+0xe1c0>
    bad4:	91290021 	add	x1, x1, #0xa40
    bad8:	97ffe052 	bl	3c20 <strcmp@plt>
    badc:	7100001f 	cmp	w0, #0x0
    bae0:	f94093f3 	ldr	x19, [sp, #288]
    bae4:	1a9f07e0 	cset	w0, ne	// ne = any
    bae8:	17ffffe5 	b	ba7c <setlocale@plt+0x7c1c>
    baec:	39400460 	ldrb	w0, [x3, #1]
    baf0:	35fffee0 	cbnz	w0, bacc <setlocale@plt+0x7c6c>
    baf4:	f94093f3 	ldr	x19, [sp, #288]
    baf8:	17ffffe0 	b	ba78 <setlocale@plt+0x7c18>
    bafc:	f90093f3 	str	x19, [sp, #288]
    bb00:	97ffe004 	bl	3b10 <__stack_chk_fail@plt>
    bb04:	d503245f 	bti	c
    bb08:	aa0003e2 	mov	x2, x0
    bb0c:	d503233f 	paciasp
    bb10:	a9bf7bfd 	stp	x29, x30, [sp, #-16]!
    bb14:	b0000061 	adrp	x1, 18000 <_obstack_memory_used@@Base+0xb1c0>
    bb18:	910a0020 	add	x0, x1, #0x280
    bb1c:	910003fd 	mov	x29, sp
    bb20:	f9401443 	ldr	x3, [x2, #40]
    bb24:	91010000 	add	x0, x0, #0x40
    bb28:	eb00007f 	cmp	x3, x0
    bb2c:	54000480 	b.eq	bbbc <setlocale@plt+0x7d5c>  // b.none
    bb30:	bd400861 	ldr	s1, [x3, #8]
    bb34:	529999a0 	mov	w0, #0xcccd                	// #52429
    bb38:	72a7b980 	movk	w0, #0x3dcc, lsl #16
    bb3c:	1e270000 	fmov	s0, w0
    bb40:	1e202030 	fcmpe	s1, s0
    bb44:	5400010c 	b.gt	bb64 <setlocale@plt+0x7d04>
    bb48:	910a0021 	add	x1, x1, #0x280
    bb4c:	52800000 	mov	w0, #0x0                   	// #0
    bb50:	91010021 	add	x1, x1, #0x40
    bb54:	f9001441 	str	x1, [x2, #40]
    bb58:	a8c17bfd 	ldp	x29, x30, [sp], #16
    bb5c:	d50323bf 	autiasp
    bb60:	d65f03c0 	ret
    bb64:	528cccc0 	mov	w0, #0x6666                	// #26214
    bb68:	72a7ecc0 	movk	w0, #0x3f66, lsl #16
    bb6c:	1e270002 	fmov	s2, w0
    bb70:	1e222030 	fcmpe	s1, s2
    bb74:	54000044 	b.mi	bb7c <setlocale@plt+0x7d1c>  // b.first
    bb78:	17fffff4 	b	bb48 <setlocale@plt+0x7ce8>
    bb7c:	bd400c63 	ldr	s3, [x3, #12]
    bb80:	529999a0 	mov	w0, #0xcccd                	// #52429
    bb84:	72a7f180 	movk	w0, #0x3f8c, lsl #16
    bb88:	1e270002 	fmov	s2, w0
    bb8c:	1e222070 	fcmpe	s3, s2
    bb90:	5400004c 	b.gt	bb98 <setlocale@plt+0x7d38>
    bb94:	17ffffed 	b	bb48 <setlocale@plt+0x7ce8>
    bb98:	bd400062 	ldr	s2, [x3]
    bb9c:	1e202058 	fcmpe	s2, #0.0
    bba0:	5400004a 	b.ge	bba8 <setlocale@plt+0x7d48>  // b.tcont
    bba4:	17ffffe9 	b	bb48 <setlocale@plt+0x7ce8>
    bba8:	1e202842 	fadd	s2, s2, s0
    bbac:	bd400460 	ldr	s0, [x3, #4]
    bbb0:	1e202050 	fcmpe	s2, s0
    bbb4:	540000c4 	b.mi	bbcc <setlocale@plt+0x7d6c>  // b.first
    bbb8:	17ffffe4 	b	bb48 <setlocale@plt+0x7ce8>
    bbbc:	a8c17bfd 	ldp	x29, x30, [sp], #16
    bbc0:	d50323bf 	autiasp
    bbc4:	52800020 	mov	w0, #0x1                   	// #1
    bbc8:	d65f03c0 	ret
    bbcc:	1e2e1003 	fmov	s3, #1.000000000000000000e+00
    bbd0:	1e232010 	fcmpe	s0, s3
    bbd4:	54000049 	b.ls	bbdc <setlocale@plt+0x7d7c>  // b.plast
    bbd8:	17ffffdc 	b	bb48 <setlocale@plt+0x7ce8>
    bbdc:	1e222030 	fcmpe	s1, s2
    bbe0:	52800020 	mov	w0, #0x1                   	// #1
    bbe4:	54fffbac 	b.gt	bb58 <setlocale@plt+0x7cf8>
    bbe8:	17ffffd8 	b	bb48 <setlocale@plt+0x7ce8>
    bbec:	d503201f 	nop
    bbf0:	d503233f 	paciasp
    bbf4:	a9bc7bfd 	stp	x29, x30, [sp, #-64]!
    bbf8:	910003fd 	mov	x29, sp
    bbfc:	a9025bf5 	stp	x21, x22, [sp, #32]
    bc00:	aa0003f5 	mov	x21, x0
    bc04:	a90153f3 	stp	x19, x20, [sp, #16]
    bc08:	f9001bf7 	str	x23, [sp, #48]
    bc0c:	97ffe07d 	bl	3e00 <__errno_location@plt>
    bc10:	f94022a1 	ldr	x1, [x21, #64]
    bc14:	aa0003f6 	mov	x22, x0
    bc18:	b9400017 	ldr	w23, [x0]
    bc1c:	a94002b4 	ldp	x20, x0, [x21]
    bc20:	b4000301 	cbz	x1, bc80 <setlocale@plt+0x7e20>
    bc24:	f94012a1 	ldr	x1, [x21, #32]
    bc28:	b40002c1 	cbz	x1, bc80 <setlocale@plt+0x7e20>
    bc2c:	eb00029f 	cmp	x20, x0
    bc30:	540000c3 	b.cc	bc48 <setlocale@plt+0x7de8>  // b.lo, b.ul, b.last
    bc34:	14000021 	b	bcb8 <setlocale@plt+0x7e58>
    bc38:	f94006a0 	ldr	x0, [x21, #8]
    bc3c:	91004294 	add	x20, x20, #0x10
    bc40:	eb14001f 	cmp	x0, x20
    bc44:	540001e9 	b.ls	bc80 <setlocale@plt+0x7e20>  // b.plast
    bc48:	f9400280 	ldr	x0, [x20]
    bc4c:	b4ffff60 	cbz	x0, bc38 <setlocale@plt+0x7dd8>
    bc50:	aa1403f3 	mov	x19, x20
    bc54:	14000002 	b	bc5c <setlocale@plt+0x7dfc>
    bc58:	f9400260 	ldr	x0, [x19]
    bc5c:	f94022a1 	ldr	x1, [x21, #64]
    bc60:	d63f0020 	blr	x1
    bc64:	f9400673 	ldr	x19, [x19, #8]
    bc68:	b5ffff93 	cbnz	x19, bc58 <setlocale@plt+0x7df8>
    bc6c:	f94006a0 	ldr	x0, [x21, #8]
    bc70:	91004294 	add	x20, x20, #0x10
    bc74:	eb14001f 	cmp	x0, x20
    bc78:	54fffe88 	b.hi	bc48 <setlocale@plt+0x7de8>  // b.pmore
    bc7c:	d503201f 	nop
    bc80:	f94002b4 	ldr	x20, [x21]
    bc84:	eb14001f 	cmp	x0, x20
    bc88:	54000189 	b.ls	bcb8 <setlocale@plt+0x7e58>  // b.plast
    bc8c:	d503201f 	nop
    bc90:	f9400693 	ldr	x19, [x20, #8]
    bc94:	b40000b3 	cbz	x19, bca8 <setlocale@plt+0x7e48>
    bc98:	aa1303e0 	mov	x0, x19
    bc9c:	f9400673 	ldr	x19, [x19, #8]
    bca0:	97ffdff0 	bl	3c60 <free@plt>
    bca4:	b5ffffb3 	cbnz	x19, bc98 <setlocale@plt+0x7e38>
    bca8:	f94006a0 	ldr	x0, [x21, #8]
    bcac:	91004294 	add	x20, x20, #0x10
    bcb0:	eb14001f 	cmp	x0, x20
    bcb4:	54fffee8 	b.hi	bc90 <setlocale@plt+0x7e30>  // b.pmore
    bcb8:	f94026b3 	ldr	x19, [x21, #72]
    bcbc:	b40000b3 	cbz	x19, bcd0 <setlocale@plt+0x7e70>
    bcc0:	aa1303e0 	mov	x0, x19
    bcc4:	f9400673 	ldr	x19, [x19, #8]
    bcc8:	97ffdfe6 	bl	3c60 <free@plt>
    bccc:	b5ffffb3 	cbnz	x19, bcc0 <setlocale@plt+0x7e60>
    bcd0:	f94002a0 	ldr	x0, [x21]
    bcd4:	97ffdfe3 	bl	3c60 <free@plt>
    bcd8:	aa1503e0 	mov	x0, x21
    bcdc:	97ffdfe1 	bl	3c60 <free@plt>
    bce0:	a94153f3 	ldp	x19, x20, [sp, #16]
    bce4:	b90002d7 	str	w23, [x22]
    bce8:	a9425bf5 	ldp	x21, x22, [sp, #32]
    bcec:	f9401bf7 	ldr	x23, [sp, #48]
    bcf0:	a8c47bfd 	ldp	x29, x30, [sp], #64
    bcf4:	d50323bf 	autiasp
    bcf8:	d65f03c0 	ret
    bcfc:	d503201f 	nop
    bd00:	d503233f 	paciasp
    bd04:	d10103ff 	sub	sp, sp, #0x40
    bd08:	90000123 	adrp	x3, 2f000 <_obstack_memory_used@@Base+0x221c0>
    bd0c:	f947e863 	ldr	x3, [x3, #4048]
    bd10:	a9017bfd 	stp	x29, x30, [sp, #16]
    bd14:	910043fd 	add	x29, sp, #0x10
    bd18:	a90253f3 	stp	x19, x20, [sp, #32]
    bd1c:	a9035bf5 	stp	x21, x22, [sp, #48]
    bd20:	f9400064 	ldr	x4, [x3]
    bd24:	f90007e4 	str	x4, [sp, #8]
    bd28:	d2800004 	mov	x4, #0x0                   	// #0
    bd2c:	b4000961 	cbz	x1, be58 <setlocale@plt+0x7ff8>
    bd30:	910003f6 	mov	x22, sp
    bd34:	aa0103f4 	mov	x20, x1
    bd38:	aa0203f5 	mov	x21, x2
    bd3c:	aa0003f3 	mov	x19, x0
    bd40:	aa1603e2 	mov	x2, x22
    bd44:	52800003 	mov	w3, #0x0                   	// #0
    bd48:	97fff2b6 	bl	8820 <setlocale@plt+0x49c0>
    bd4c:	aa0003e1 	mov	x1, x0
    bd50:	b4000200 	cbz	x0, bd90 <setlocale@plt+0x7f30>
    bd54:	52800000 	mov	w0, #0x0                   	// #0
    bd58:	f90002a1 	str	x1, [x21]
    bd5c:	90000121 	adrp	x1, 2f000 <_obstack_memory_used@@Base+0x221c0>
    bd60:	f947e821 	ldr	x1, [x1, #4048]
    bd64:	f94007e3 	ldr	x3, [sp, #8]
    bd68:	f9400022 	ldr	x2, [x1]
    bd6c:	eb020063 	subs	x3, x3, x2
    bd70:	d2800002 	mov	x2, #0x0                   	// #0
    bd74:	540009c1 	b.ne	beac <setlocale@plt+0x804c>  // b.any
    bd78:	a9417bfd 	ldp	x29, x30, [sp, #16]
    bd7c:	a94253f3 	ldp	x19, x20, [sp, #32]
    bd80:	a9435bf5 	ldp	x21, x22, [sp, #48]
    bd84:	910103ff 	add	sp, sp, #0x40
    bd88:	d50323bf 	autiasp
    bd8c:	d65f03c0 	ret
    bd90:	f9400a60 	ldr	x0, [x19, #16]
    bd94:	f9401661 	ldr	x1, [x19, #40]
    bd98:	9e230004 	ucvtf	s4, x0
    bd9c:	f9400e60 	ldr	x0, [x19, #24]
    bda0:	bd400820 	ldr	s0, [x1, #8]
    bda4:	9e230005 	ucvtf	s5, x0
    bda8:	1e200880 	fmul	s0, s4, s0
    bdac:	1e2020b0 	fcmpe	s5, s0
    bdb0:	5400020c 	b.gt	bdf0 <setlocale@plt+0x7f90>
    bdb4:	f94003f5 	ldr	x21, [sp]
    bdb8:	f94002a0 	ldr	x0, [x21]
    bdbc:	b4000500 	cbz	x0, be5c <setlocale@plt+0x7ffc>
    bdc0:	f9402660 	ldr	x0, [x19, #72]
    bdc4:	b40006a0 	cbz	x0, be98 <setlocale@plt+0x8038>
    bdc8:	f9400401 	ldr	x1, [x0, #8]
    bdcc:	f9002661 	str	x1, [x19, #72]
    bdd0:	f9401261 	ldr	x1, [x19, #32]
    bdd4:	f94006a2 	ldr	x2, [x21, #8]
    bdd8:	a9000814 	stp	x20, x2, [x0]
    bddc:	f90006a0 	str	x0, [x21, #8]
    bde0:	91000420 	add	x0, x1, #0x1
    bde4:	f9001260 	str	x0, [x19, #32]
    bde8:	52800020 	mov	w0, #0x1                   	// #1
    bdec:	17ffffdc 	b	bd5c <setlocale@plt+0x7efc>
    bdf0:	aa1303e0 	mov	x0, x19
    bdf4:	97ffff44 	bl	bb04 <setlocale@plt+0x7ca4>
    bdf8:	f9401660 	ldr	x0, [x19, #40]
    bdfc:	bd400800 	ldr	s0, [x0, #8]
    be00:	1e200881 	fmul	s1, s4, s0
    be04:	1e2120b0 	fcmpe	s5, s1
    be08:	5400004c 	b.gt	be10 <setlocale@plt+0x7fb0>
    be0c:	17ffffea 	b	bdb4 <setlocale@plt+0x7f54>
    be10:	39404001 	ldrb	w1, [x0, #16]
    be14:	bd400c01 	ldr	s1, [x0, #12]
    be18:	1e210884 	fmul	s4, s4, s1
    be1c:	360003a1 	tbz	w1, #0, be90 <setlocale@plt+0x8030>
    be20:	52abf000 	mov	w0, #0x5f800000            	// #1602224128
    be24:	1e270000 	fmov	s0, w0
    be28:	1e202090 	fcmpe	s4, s0
    be2c:	5400028a 	b.ge	be7c <setlocale@plt+0x801c>  // b.tcont
    be30:	9e390081 	fcvtzu	x1, s4
    be34:	aa1303e0 	mov	x0, x19
    be38:	97fffa2a 	bl	a6e0 <setlocale@plt+0x6880>
    be3c:	36000260 	tbz	w0, #0, be88 <setlocale@plt+0x8028>
    be40:	aa1603e2 	mov	x2, x22
    be44:	aa1403e1 	mov	x1, x20
    be48:	aa1303e0 	mov	x0, x19
    be4c:	52800003 	mov	w3, #0x0                   	// #0
    be50:	97fff274 	bl	8820 <setlocale@plt+0x49c0>
    be54:	b4fffb00 	cbz	x0, bdb4 <setlocale@plt+0x7f54>
    be58:	97ffdf4a 	bl	3b80 <abort@plt>
    be5c:	b0000080 	adrp	x0, 1c000 <_obstack_memory_used@@Base+0xf1c0>
    be60:	3cc18260 	ldur	q0, [x19, #24]
    be64:	f90002b4 	str	x20, [x21]
    be68:	3dc2c801 	ldr	q1, [x0, #2848]
    be6c:	52800020 	mov	w0, #0x1                   	// #1
    be70:	4ee18400 	add	v0.2d, v0.2d, v1.2d
    be74:	3c818260 	stur	q0, [x19, #24]
    be78:	17ffffb9 	b	bd5c <setlocale@plt+0x7efc>
    be7c:	97ffdfe1 	bl	3e00 <__errno_location@plt>
    be80:	52800181 	mov	w1, #0xc                   	// #12
    be84:	b9000001 	str	w1, [x0]
    be88:	12800000 	mov	w0, #0xffffffff            	// #-1
    be8c:	17ffffb4 	b	bd5c <setlocale@plt+0x7efc>
    be90:	1e200884 	fmul	s4, s4, s0
    be94:	17ffffe3 	b	be20 <setlocale@plt+0x7fc0>
    be98:	d2800200 	mov	x0, #0x10                  	// #16
    be9c:	97ffded5 	bl	39f0 <malloc@plt>
    bea0:	b5fff980 	cbnz	x0, bdd0 <setlocale@plt+0x7f70>
    bea4:	12800000 	mov	w0, #0xffffffff            	// #-1
    bea8:	17ffffad 	b	bd5c <setlocale@plt+0x7efc>
    beac:	97ffdf19 	bl	3b10 <__stack_chk_fail@plt>
    beb0:	d503233f 	paciasp
    beb4:	d103c3ff 	sub	sp, sp, #0xf0
    beb8:	90000125 	adrp	x5, 2f000 <_obstack_memory_used@@Base+0x221c0>
    bebc:	f947e8a5 	ldr	x5, [x5, #4048]
    bec0:	a9097bfd 	stp	x29, x30, [sp, #144]
    bec4:	910243fd 	add	x29, sp, #0x90
    bec8:	a90a53f3 	stp	x19, x20, [sp, #160]
    becc:	2a0203f4 	mov	w20, w2
    bed0:	721b0042 	ands	w2, w2, #0x20
    bed4:	aa0003f3 	mov	x19, x0
    bed8:	52808000 	mov	w0, #0x400                 	// #1024
    bedc:	f9001fe1 	str	x1, [sp, #56]
    bee0:	a90b5bf5 	stp	x21, x22, [sp, #176]
    bee4:	aa0303f6 	mov	x22, x3
    bee8:	aa0403f5 	mov	x21, x4
    beec:	a90c63f7 	stp	x23, x24, [sp, #192]
    bef0:	a90d6bf9 	stp	x25, x26, [sp, #208]
    bef4:	52807d19 	mov	w25, #0x3e8                 	// #1000
    bef8:	1a800320 	csel	w0, w25, w0, eq	// eq = none
    befc:	29090be0 	stp	w0, w2, [sp, #72]
    bf00:	a90e73fb 	stp	x27, x28, [sp, #224]
    bf04:	1200069c 	and	w28, w20, #0x3
    bf08:	f94000a0 	ldr	x0, [x5]
    bf0c:	f90047e0 	str	x0, [sp, #136]
    bf10:	d2800000 	mov	x0, #0x0                   	// #0
    bf14:	97ffde9b 	bl	3980 <localeconv@plt>
    bf18:	aa0003f7 	mov	x23, x0
    bf1c:	f9400000 	ldr	x0, [x0]
    bf20:	aa0003fb 	mov	x27, x0
    bf24:	97ffde37 	bl	3800 <strlen@plt>
    bf28:	aa0003fa 	mov	x26, x0
    bf2c:	d1000400 	sub	x0, x0, #0x1
    bf30:	f1003c1f 	cmp	x0, #0xf
    bf34:	540000a9 	b.ls	bf48 <setlocale@plt+0x80e8>  // b.plast
    bf38:	90000080 	adrp	x0, 1b000 <_obstack_memory_used@@Base+0xe1c0>
    bf3c:	91292000 	add	x0, x0, #0xa48
    bf40:	aa0003fb 	mov	x27, x0
    bf44:	d280003a 	mov	x26, #0x1                   	// #1
    bf48:	a940def8 	ldp	x24, x23, [x23, #8]
    bf4c:	aa1803e0 	mov	x0, x24
    bf50:	97ffde2c 	bl	3800 <strlen@plt>
    bf54:	f9401fe1 	ldr	x1, [sp, #56]
    bf58:	f100401f 	cmp	x0, #0x10
    bf5c:	d0000060 	adrp	x0, 19000 <_obstack_memory_used@@Base+0xc1c0>
    bf60:	912a0000 	add	x0, x0, #0xa80
    bf64:	910a1c21 	add	x1, x1, #0x287
    bf68:	f90023e1 	str	x1, [sp, #64]
    bf6c:	9a988018 	csel	x24, x0, x24, hi	// hi = pmore
    bf70:	eb1602bf 	cmp	x21, x22
    bf74:	54000949 	b.ls	c09c <setlocale@plt+0x823c>  // b.plast
    bf78:	9ad60aa1 	udiv	x1, x21, x22
    bf7c:	9b16d420 	msub	x0, x1, x22, x21
    bf80:	b50009c0 	cbnz	x0, c0b8 <setlocale@plt+0x8258>
    bf84:	9ac10a64 	udiv	x4, x19, x1
    bf88:	9b01cc93 	msub	x19, x4, x1, x19
    bf8c:	8b130a73 	add	x19, x19, x19, lsl #2
    bf90:	d37ffa60 	lsl	x0, x19, #1
    bf94:	9ac10802 	udiv	x2, x0, x1
    bf98:	9b018040 	msub	x0, x2, x1, x0
    bf9c:	d37ff800 	lsl	x0, x0, #1
    bfa0:	eb00003f 	cmp	x1, x0
    bfa4:	54003369 	b.ls	c610 <setlocale@plt+0x87b0>  // b.plast
    bfa8:	f100001f 	cmp	x0, #0x0
    bfac:	1a9f07e1 	cset	w1, ne	// ne = any
    bfb0:	121c0283 	and	w3, w20, #0x10
    bfb4:	362025f4 	tbz	w20, #4, c470 <setlocale@plt+0x8610>
    bfb8:	b9404be6 	ldr	w6, [sp, #72]
    bfbc:	52800013 	mov	w19, #0x0                   	// #0
    bfc0:	eb0400df 	cmp	x6, x4
    bfc4:	54001fe9 	b.ls	c3c0 <setlocale@plt+0x8560>  // b.plast
    bfc8:	f94023f9 	ldr	x25, [sp, #64]
    bfcc:	7100079f 	cmp	w28, #0x1
    bfd0:	54002540 	b.eq	c478 <setlocale@plt+0x8618>  // b.none
    bfd4:	3500013c 	cbnz	w28, bff8 <setlocale@plt+0x8198>
    bfd8:	0b010042 	add	w2, w2, w1
    bfdc:	7100005f 	cmp	w2, #0x0
    bfe0:	540000cd 	b.le	bff8 <setlocale@plt+0x8198>
    bfe4:	91000484 	add	x4, x4, #0x1
    bfe8:	34000083 	cbz	w3, bff8 <setlocale@plt+0x8198>
    bfec:	b9404be0 	ldr	w0, [sp, #72]
    bff0:	eb20409f 	cmp	x4, w0, uxtw
    bff4:	54003140 	b.eq	c61c <setlocale@plt+0x87bc>  // b.none
    bff8:	b202e7e5 	mov	x5, #0xcccccccccccccccc    	// #-3689348814741910324
    bffc:	aa1903fc 	mov	x28, x25
    c000:	f29999a5 	movk	x5, #0xcccd
    c004:	d503201f 	nop
    c008:	9bc57c81 	umulh	x1, x4, x5
    c00c:	aa0403e2 	mov	x2, x4
    c010:	d343fc21 	lsr	x1, x1, #3
    c014:	8b010820 	add	x0, x1, x1, lsl #2
    c018:	cb000480 	sub	x0, x4, x0, lsl #1
    c01c:	aa0103e4 	mov	x4, x1
    c020:	1100c000 	add	w0, w0, #0x30
    c024:	381fff80 	strb	w0, [x28, #-1]!
    c028:	f100245f 	cmp	x2, #0x9
    c02c:	54fffee8 	b.hi	c008 <setlocale@plt+0x81a8>  // b.pmore
    c030:	37101634 	tbnz	w20, #2, c2f4 <setlocale@plt+0x8494>
    c034:	d503201f 	nop
    c038:	363800d4 	tbz	w20, #7, c050 <setlocale@plt+0x81f0>
    c03c:	3100067f 	cmn	w19, #0x1
    c040:	540026a0 	b.eq	c514 <setlocale@plt+0x86b4>  // b.none
    c044:	12180280 	and	w0, w20, #0x100
    c048:	2a130001 	orr	w1, w0, w19
    c04c:	35002ce1 	cbnz	w1, c5e8 <setlocale@plt+0x8788>
    c050:	f94023e1 	ldr	x1, [sp, #64]
    c054:	f0000100 	adrp	x0, 2f000 <_obstack_memory_used@@Base+0x221c0>
    c058:	f947e800 	ldr	x0, [x0, #4048]
    c05c:	3900003f 	strb	wzr, [x1]
    c060:	f94047e2 	ldr	x2, [sp, #136]
    c064:	f9400001 	ldr	x1, [x0]
    c068:	eb010042 	subs	x2, x2, x1
    c06c:	d2800001 	mov	x1, #0x0                   	// #0
    c070:	540035a1 	b.ne	c724 <setlocale@plt+0x88c4>  // b.any
    c074:	a9497bfd 	ldp	x29, x30, [sp, #144]
    c078:	aa1c03e0 	mov	x0, x28
    c07c:	a94a53f3 	ldp	x19, x20, [sp, #160]
    c080:	a94b5bf5 	ldp	x21, x22, [sp, #176]
    c084:	a94c63f7 	ldp	x23, x24, [sp, #192]
    c088:	a94d6bf9 	ldp	x25, x26, [sp, #208]
    c08c:	a94e73fb 	ldp	x27, x28, [sp, #224]
    c090:	9103c3ff 	add	sp, sp, #0xf0
    c094:	d50323bf 	autiasp
    c098:	d65f03c0 	ret
    c09c:	9ad50ac0 	udiv	x0, x22, x21
    c0a0:	9b15d801 	msub	x1, x0, x21, x22
    c0a4:	b50000a1 	cbnz	x1, c0b8 <setlocale@plt+0x8258>
    c0a8:	9b007e64 	mul	x4, x19, x0
    c0ac:	9ac00880 	udiv	x0, x4, x0
    c0b0:	eb13001f 	cmp	x0, x19
    c0b4:	54001d60 	b.eq	c460 <setlocale@plt+0x8600>  // b.none
    c0b8:	aa1603e0 	mov	x0, x22
    c0bc:	94002f6d 	bl	17e70 <_obstack_memory_used@@Base+0xb030>
    c0c0:	aa1503e0 	mov	x0, x21
    c0c4:	3d8003e0 	str	q0, [sp]
    c0c8:	94002f6a 	bl	17e70 <_obstack_memory_used@@Base+0xb030>
    c0cc:	4ea01c01 	mov	v1.16b, v0.16b
    c0d0:	3dc003e0 	ldr	q0, [sp]
    c0d4:	94002a4b 	bl	16a00 <_obstack_memory_used@@Base+0x9bc0>
    c0d8:	3d8003e0 	str	q0, [sp]
    c0dc:	aa1303e0 	mov	x0, x19
    c0e0:	94002f64 	bl	17e70 <_obstack_memory_used@@Base+0xb030>
    c0e4:	4ea01c01 	mov	v1.16b, v0.16b
    c0e8:	3dc003e0 	ldr	q0, [sp]
    c0ec:	94002d21 	bl	17570 <_obstack_memory_used@@Base+0xa730>
    c0f0:	3d800be0 	str	q0, [sp, #32]
    c0f4:	36200b54 	tbz	w20, #4, c25c <setlocale@plt+0x83fc>
    c0f8:	b9404be0 	ldr	w0, [sp, #72]
    c0fc:	52800013 	mov	w19, #0x0                   	// #0
    c100:	94002f00 	bl	17d00 <_obstack_memory_used@@Base+0xaec0>
    c104:	3d8007e0 	str	q0, [sp, #16]
    c108:	90000080 	adrp	x0, 1c000 <_obstack_memory_used@@Base+0xf1c0>
    c10c:	912d0000 	add	x0, x0, #0xb40
    c110:	3dc00001 	ldr	q1, [x0]
    c114:	3d8003e1 	str	q1, [sp]
    c118:	3dc003e0 	ldr	q0, [sp]
    c11c:	11000673 	add	w19, w19, #0x1
    c120:	3dc007e1 	ldr	q1, [sp, #16]
    c124:	94002d13 	bl	17570 <_obstack_memory_used@@Base+0xa730>
    c128:	3d8003e0 	str	q0, [sp]
    c12c:	3dc007e1 	ldr	q1, [sp, #16]
    c130:	94002d10 	bl	17570 <_obstack_memory_used@@Base+0xa730>
    c134:	3dc00be1 	ldr	q1, [sp, #32]
    c138:	94002cba 	bl	17420 <_obstack_memory_used@@Base+0xa5e0>
    c13c:	7100001f 	cmp	w0, #0x0
    c140:	5400006c 	b.gt	c14c <setlocale@plt+0x82ec>
    c144:	71002a7f 	cmp	w19, #0xa
    c148:	54fffe81 	b.ne	c118 <setlocale@plt+0x82b8>  // b.any
    c14c:	3dc003e1 	ldr	q1, [sp]
    c150:	9100075a 	add	x26, x26, #0x1
    c154:	3dc00be0 	ldr	q0, [sp, #32]
    c158:	94002a2a 	bl	16a00 <_obstack_memory_used@@Base+0x9bc0>
    c15c:	3d8003e0 	str	q0, [sp]
    c160:	b9404fe0 	ldr	w0, [sp, #76]
    c164:	7100001f 	cmp	w0, #0x0
    c168:	9a9f17e0 	cset	x0, eq	// eq = none
    c16c:	91000400 	add	x0, x0, #0x1
    c170:	8b1a0019 	add	x25, x0, x26
    c174:	7100079f 	cmp	w28, #0x1
    c178:	54002300 	b.eq	c5d8 <setlocale@plt+0x8778>  // b.none
    c17c:	90000080 	adrp	x0, 1c000 <_obstack_memory_used@@Base+0xf1c0>
    c180:	912cc000 	add	x0, x0, #0xb30
    c184:	3dc00001 	ldr	q1, [x0]
    c188:	94002ca6 	bl	17420 <_obstack_memory_used@@Base+0xa5e0>
    c18c:	36f81400 	tbz	w0, #31, c40c <setlocale@plt+0x85ac>
    c190:	3dc003e0 	ldr	q0, [sp]
    c194:	94002ef7 	bl	17d70 <_obstack_memory_used@@Base+0xaf30>
    c198:	aa0003f6 	mov	x22, x0
    c19c:	350000dc 	cbnz	w28, c1b4 <setlocale@plt+0x8354>
    c1a0:	94002f34 	bl	17e70 <_obstack_memory_used@@Base+0xb030>
    c1a4:	3dc003e1 	ldr	q1, [sp]
    c1a8:	94002c5e 	bl	17320 <_obstack_memory_used@@Base+0xa4e0>
    c1ac:	7100001f 	cmp	w0, #0x0
    c1b0:	9a9606d6 	cinc	x22, x22, ne	// ne = any
    c1b4:	aa1603e0 	mov	x0, x22
    c1b8:	94002f2e 	bl	17e70 <_obstack_memory_used@@Base+0xb030>
    c1bc:	f9401ff6 	ldr	x22, [sp, #56]
    c1c0:	f0000063 	adrp	x3, 1b000 <_obstack_memory_used@@Base+0xe1c0>
    c1c4:	91296063 	add	x3, x3, #0xa58
    c1c8:	92800002 	mov	x2, #0xffffffffffffffff    	// #-1
    c1cc:	52800041 	mov	w1, #0x2                   	// #2
    c1d0:	aa1603e0 	mov	x0, x22
    c1d4:	97ffdd8f 	bl	3810 <__sprintf_chk@plt>
    c1d8:	aa1603e0 	mov	x0, x22
    c1dc:	97ffdd89 	bl	3800 <strlen@plt>
    c1e0:	aa0003e2 	mov	x2, x0
    c1e4:	eb19001f 	cmp	x0, x25
    c1e8:	540012c9 	b.ls	c440 <setlocale@plt+0x85e0>  // b.plast
    c1ec:	90000080 	adrp	x0, 1c000 <_obstack_memory_used@@Base+0xf1c0>
    c1f0:	912d4000 	add	x0, x0, #0xb50
    c1f4:	3dc003e0 	ldr	q0, [sp]
    c1f8:	3dc00001 	ldr	q1, [x0]
    c1fc:	94002cdd 	bl	17570 <_obstack_memory_used@@Base+0xa730>
    c200:	4ea01c02 	mov	v2.16b, v0.16b
    c204:	90000080 	adrp	x0, 1c000 <_obstack_memory_used@@Base+0xf1c0>
    c208:	912cc000 	add	x0, x0, #0xb30
    c20c:	4ea21c40 	mov	v0.16b, v2.16b
    c210:	3d8003e2 	str	q2, [sp]
    c214:	3dc00001 	ldr	q1, [x0]
    c218:	94002c82 	bl	17420 <_obstack_memory_used@@Base+0xa5e0>
    c21c:	3dc003e2 	ldr	q2, [sp]
    c220:	36f81460 	tbz	w0, #31, c4ac <setlocale@plt+0x864c>
    c224:	4ea21c40 	mov	v0.16b, v2.16b
    c228:	94002ed2 	bl	17d70 <_obstack_memory_used@@Base+0xaf30>
    c22c:	aa0003fa 	mov	x26, x0
    c230:	350000fc 	cbnz	w28, c24c <setlocale@plt+0x83ec>
    c234:	94002f0f 	bl	17e70 <_obstack_memory_used@@Base+0xb030>
    c238:	3dc003e2 	ldr	q2, [sp]
    c23c:	4ea21c41 	mov	v1.16b, v2.16b
    c240:	94002c38 	bl	17320 <_obstack_memory_used@@Base+0xa4e0>
    c244:	7100001f 	cmp	w0, #0x0
    c248:	9a9a075a 	cinc	x26, x26, ne	// ne = any
    c24c:	aa1a03e0 	mov	x0, x26
    c250:	94002f08 	bl	17e70 <_obstack_memory_used@@Base+0xb030>
    c254:	4ea01c02 	mov	v2.16b, v0.16b
    c258:	14000095 	b	c4ac <setlocale@plt+0x864c>
    c25c:	7100079f 	cmp	w28, #0x1
    c260:	54000240 	b.eq	c2a8 <setlocale@plt+0x8448>  // b.none
    c264:	90000080 	adrp	x0, 1c000 <_obstack_memory_used@@Base+0xf1c0>
    c268:	912cc000 	add	x0, x0, #0xb30
    c26c:	3dc00001 	ldr	q1, [x0]
    c270:	94002c6c 	bl	17420 <_obstack_memory_used@@Base+0xa5e0>
    c274:	36f801a0 	tbz	w0, #31, c2a8 <setlocale@plt+0x8448>
    c278:	3dc00be0 	ldr	q0, [sp, #32]
    c27c:	94002ebd 	bl	17d70 <_obstack_memory_used@@Base+0xaf30>
    c280:	aa0003f3 	mov	x19, x0
    c284:	350000dc 	cbnz	w28, c29c <setlocale@plt+0x843c>
    c288:	94002efa 	bl	17e70 <_obstack_memory_used@@Base+0xb030>
    c28c:	3dc00be1 	ldr	q1, [sp, #32]
    c290:	94002c24 	bl	17320 <_obstack_memory_used@@Base+0xa4e0>
    c294:	7100001f 	cmp	w0, #0x0
    c298:	9a930673 	cinc	x19, x19, ne	// ne = any
    c29c:	aa1303e0 	mov	x0, x19
    c2a0:	94002ef4 	bl	17e70 <_obstack_memory_used@@Base+0xb030>
    c2a4:	3d800be0 	str	q0, [sp, #32]
    c2a8:	3dc00be0 	ldr	q0, [sp, #32]
    c2ac:	f0000063 	adrp	x3, 1b000 <_obstack_memory_used@@Base+0xe1c0>
    c2b0:	f9401ff3 	ldr	x19, [sp, #56]
    c2b4:	91294063 	add	x3, x3, #0xa50
    c2b8:	92800002 	mov	x2, #0xffffffffffffffff    	// #-1
    c2bc:	52800041 	mov	w1, #0x2                   	// #2
    c2c0:	aa1303e0 	mov	x0, x19
    c2c4:	97ffdd53 	bl	3810 <__sprintf_chk@plt>
    c2c8:	aa1303e0 	mov	x0, x19
    c2cc:	97ffdd4d 	bl	3800 <strlen@plt>
    c2d0:	aa0003e2 	mov	x2, x0
    c2d4:	aa0003f9 	mov	x25, x0
    c2d8:	12800013 	mov	w19, #0xffffffff            	// #-1
    c2dc:	a94383e1 	ldp	x1, x0, [sp, #56]
    c2e0:	cb02001c 	sub	x28, x0, x2
    c2e4:	aa1c03e0 	mov	x0, x28
    c2e8:	8b190399 	add	x25, x28, x25
    c2ec:	97ffdd35 	bl	37c0 <memmove@plt>
    c2f0:	3617ea54 	tbz	w20, #2, c038 <setlocale@plt+0x81d8>
    c2f4:	aa1803e0 	mov	x0, x24
    c2f8:	97ffdd42 	bl	3800 <strlen@plt>
    c2fc:	910163e2 	add	x2, sp, #0x58
    c300:	cb1c0336 	sub	x22, x25, x28
    c304:	aa0003fa 	mov	x26, x0
    c308:	aa1c03e1 	mov	x1, x28
    c30c:	aa0203e0 	mov	x0, x2
    c310:	d2800523 	mov	x3, #0x29                  	// #41
    c314:	9280001b 	mov	x27, #0xffffffffffffffff    	// #-1
    c318:	f90003e2 	str	x2, [sp]
    c31c:	aa1603e2 	mov	x2, x22
    c320:	97ffdda0 	bl	39a0 <__memcpy_chk@plt>
    c324:	14000010 	b	c364 <setlocale@plt+0x8504>
    c328:	f94003e0 	ldr	x0, [sp]
    c32c:	eb16037f 	cmp	x27, x22
    c330:	9a96937b 	csel	x27, x27, x22, ls	// ls = plast
    c334:	cb1b02d6 	sub	x22, x22, x27
    c338:	8b160001 	add	x1, x0, x22
    c33c:	cb1b033c 	sub	x28, x25, x27
    c340:	aa1b03e2 	mov	x2, x27
    c344:	aa1c03e0 	mov	x0, x28
    c348:	97ffdd1a 	bl	37b0 <memcpy@plt>
    c34c:	b4ffe776 	cbz	x22, c038 <setlocale@plt+0x81d8>
    c350:	cb1a0399 	sub	x25, x28, x26
    c354:	aa1a03e2 	mov	x2, x26
    c358:	aa1903e0 	mov	x0, x25
    c35c:	aa1803e1 	mov	x1, x24
    c360:	97ffdd14 	bl	37b0 <memcpy@plt>
    c364:	394002e0 	ldrb	w0, [x23]
    c368:	34fffe00 	cbz	w0, c328 <setlocale@plt+0x84c8>
    c36c:	7103fc1f 	cmp	w0, #0xff
    c370:	54000100 	b.eq	c390 <setlocale@plt+0x8530>  // b.none
    c374:	eb2002df 	cmp	x22, w0, uxtb
    c378:	910006f7 	add	x23, x23, #0x1
    c37c:	9a96201b 	csel	x27, x0, x22, cs	// cs = hs, nlast
    c380:	f94003e0 	ldr	x0, [sp]
    c384:	cb1b02d6 	sub	x22, x22, x27
    c388:	8b160001 	add	x1, x0, x22
    c38c:	17ffffec 	b	c33c <setlocale@plt+0x84dc>
    c390:	f94003e1 	ldr	x1, [sp]
    c394:	aa1603fb 	mov	x27, x22
    c398:	910006f7 	add	x23, x23, #0x1
    c39c:	d2800016 	mov	x22, #0x0                   	// #0
    c3a0:	17ffffe7 	b	c33c <setlocale@plt+0x84dc>
    c3a4:	7100003f 	cmp	w1, #0x0
    c3a8:	1a9f07e1 	cset	w1, ne	// ne = any
    c3ac:	11000673 	add	w19, w19, #0x1
    c3b0:	eb0500df 	cmp	x6, x5
    c3b4:	54001468 	b.hi	c640 <setlocale@plt+0x87e0>  // b.pmore
    c3b8:	71002a7f 	cmp	w19, #0xa
    c3bc:	54ffe060 	b.eq	bfc8 <setlocale@plt+0x8168>  // b.none
    c3c0:	9ac60885 	udiv	x5, x4, x6
    c3c4:	b9404be9 	ldr	w9, [sp, #72]
    c3c8:	13017c28 	asr	w8, w1, #1
    c3cc:	9b0690a0 	msub	x0, x5, x6, x4
    c3d0:	aa0503e4 	mov	x4, x5
    c3d4:	0b000800 	add	w0, w0, w0, lsl #2
    c3d8:	0b000440 	add	w0, w2, w0, lsl #1
    c3dc:	1ac90807 	udiv	w7, w0, w9
    c3e0:	1b0980e0 	msub	w0, w7, w9, w0
    c3e4:	2a0703e2 	mov	w2, w7
    c3e8:	0b000500 	add	w0, w8, w0, lsl #1
    c3ec:	0b000021 	add	w1, w1, w0
    c3f0:	6b00013f 	cmp	w9, w0
    c3f4:	54fffd88 	b.hi	c3a4 <setlocale@plt+0x8544>  // b.pmore
    c3f8:	b9404be0 	ldr	w0, [sp, #72]
    c3fc:	6b01001f 	cmp	w0, w1
    c400:	1a9f27e1 	cset	w1, cc	// cc = lo, ul, last
    c404:	11000821 	add	w1, w1, #0x2
    c408:	17ffffe9 	b	c3ac <setlocale@plt+0x854c>
    c40c:	3dc003e0 	ldr	q0, [sp]
    c410:	f0000063 	adrp	x3, 1b000 <_obstack_memory_used@@Base+0xe1c0>
    c414:	91296063 	add	x3, x3, #0xa58
    c418:	92800002 	mov	x2, #0xffffffffffffffff    	// #-1
    c41c:	f9401ff6 	ldr	x22, [sp, #56]
    c420:	52800041 	mov	w1, #0x2                   	// #2
    c424:	aa1603e0 	mov	x0, x22
    c428:	97ffdcfa 	bl	3810 <__sprintf_chk@plt>
    c42c:	aa1603e0 	mov	x0, x22
    c430:	97ffdcf4 	bl	3800 <strlen@plt>
    c434:	aa0003e2 	mov	x2, x0
    c438:	eb19001f 	cmp	x0, x25
    c43c:	540002c8 	b.hi	c494 <setlocale@plt+0x8634>  // b.pmore
    c440:	361800d4 	tbz	w20, #3, c458 <setlocale@plt+0x85f8>
    c444:	f9401fe0 	ldr	x0, [sp, #56]
    c448:	8b020000 	add	x0, x0, x2
    c44c:	385ff000 	ldurb	w0, [x0, #-1]
    c450:	7100c01f 	cmp	w0, #0x30
    c454:	540004e0 	b.eq	c4f0 <setlocale@plt+0x8690>  // b.none
    c458:	cb1a0059 	sub	x25, x2, x26
    c45c:	17ffffa0 	b	c2dc <setlocale@plt+0x847c>
    c460:	121c0283 	and	w3, w20, #0x10
    c464:	52800001 	mov	w1, #0x0                   	// #0
    c468:	52800002 	mov	w2, #0x0                   	// #0
    c46c:	3727da74 	tbnz	w20, #4, bfb8 <setlocale@plt+0x8158>
    c470:	12800013 	mov	w19, #0xffffffff            	// #-1
    c474:	17fffed5 	b	bfc8 <setlocale@plt+0x8168>
    c478:	93407c21 	sxtw	x1, w1
    c47c:	92400080 	and	x0, x4, #0x1
    c480:	ab01001f 	cmn	x0, x1
    c484:	1a820442 	cinc	w2, w2, ne	// ne = any
    c488:	7100145f 	cmp	w2, #0x5
    c48c:	54ffdacc 	b.gt	bfe4 <setlocale@plt+0x8184>
    c490:	17fffeda 	b	bff8 <setlocale@plt+0x8198>
    c494:	90000080 	adrp	x0, 1c000 <_obstack_memory_used@@Base+0xf1c0>
    c498:	912d4000 	add	x0, x0, #0xb50
    c49c:	3dc003e0 	ldr	q0, [sp]
    c4a0:	3dc00001 	ldr	q1, [x0]
    c4a4:	94002c33 	bl	17570 <_obstack_memory_used@@Base+0xa730>
    c4a8:	4ea01c02 	mov	v2.16b, v0.16b
    c4ac:	90000080 	adrp	x0, 1c000 <_obstack_memory_used@@Base+0xf1c0>
    c4b0:	912d4000 	add	x0, x0, #0xb50
    c4b4:	4ea21c40 	mov	v0.16b, v2.16b
    c4b8:	3dc00001 	ldr	q1, [x0]
    c4bc:	94002951 	bl	16a00 <_obstack_memory_used@@Base+0x9bc0>
    c4c0:	f9401ff6 	ldr	x22, [sp, #56]
    c4c4:	f0000063 	adrp	x3, 1b000 <_obstack_memory_used@@Base+0xe1c0>
    c4c8:	91294063 	add	x3, x3, #0xa50
    c4cc:	92800002 	mov	x2, #0xffffffffffffffff    	// #-1
    c4d0:	52800041 	mov	w1, #0x2                   	// #2
    c4d4:	aa1603e0 	mov	x0, x22
    c4d8:	97ffdcce 	bl	3810 <__sprintf_chk@plt>
    c4dc:	aa1603e0 	mov	x0, x22
    c4e0:	97ffdcc8 	bl	3800 <strlen@plt>
    c4e4:	aa0003e2 	mov	x2, x0
    c4e8:	aa0003f9 	mov	x25, x0
    c4ec:	17ffff7c 	b	c2dc <setlocale@plt+0x847c>
    c4f0:	90000080 	adrp	x0, 1c000 <_obstack_memory_used@@Base+0xf1c0>
    c4f4:	912d4000 	add	x0, x0, #0xb50
    c4f8:	3dc003e0 	ldr	q0, [sp]
    c4fc:	3dc00001 	ldr	q1, [x0]
    c500:	94002c1c 	bl	17570 <_obstack_memory_used@@Base+0xa730>
    c504:	4ea01c02 	mov	v2.16b, v0.16b
    c508:	7100079f 	cmp	w28, #0x1
    c50c:	54ffe7c1 	b.ne	c204 <setlocale@plt+0x83a4>  // b.any
    c510:	17ffffe7 	b	c4ac <setlocale@plt+0x864c>
    c514:	f10006bf 	cmp	x21, #0x1
    c518:	54000e49 	b.ls	c6e0 <setlocale@plt+0x8880>  // b.plast
    c51c:	b9404bf9 	ldr	w25, [sp, #72]
    c520:	52800033 	mov	w19, #0x1                   	// #1
    c524:	d2800020 	mov	x0, #0x1                   	// #1
    c528:	9b197c00 	mul	x0, x0, x25
    c52c:	eb0002bf 	cmp	x21, x0
    c530:	54000089 	b.ls	c540 <setlocale@plt+0x86e0>  // b.plast
    c534:	11000673 	add	w19, w19, #0x1
    c538:	71002a7f 	cmp	w19, #0xa
    c53c:	54ffff61 	b.ne	c528 <setlocale@plt+0x86c8>  // b.any
    c540:	12180280 	and	w0, w20, #0x100
    c544:	363000d4 	tbz	w20, #6, c55c <setlocale@plt+0x86fc>
    c548:	f9401fe2 	ldr	x2, [sp, #56]
    c54c:	52800401 	mov	w1, #0x20                  	// #32
    c550:	910a2043 	add	x3, x2, #0x288
    c554:	f90023e3 	str	x3, [sp, #64]
    c558:	390a1c41 	strb	w1, [x2, #647]
    c55c:	b9404fe1 	ldr	w1, [sp, #76]
    c560:	7100003f 	cmp	w1, #0x0
    c564:	f94023e1 	ldr	x1, [sp, #64]
    c568:	7a410a60 	ccmp	w19, #0x1, #0x0, eq	// eq = none
    c56c:	91000422 	add	x2, x1, #0x1
    c570:	54000260 	b.eq	c5bc <setlocale@plt+0x875c>  // b.none
    c574:	90000061 	adrp	x1, 18000 <_obstack_memory_used@@Base+0xb1c0>
    c578:	910a0021 	add	x1, x1, #0x280
    c57c:	f94023e3 	ldr	x3, [sp, #64]
    c580:	91016021 	add	x1, x1, #0x58
    c584:	3873c821 	ldrb	w1, [x1, w19, sxtw]
    c588:	39000061 	strb	w1, [x3]
    c58c:	34000220 	cbz	w0, c5d0 <setlocale@plt+0x8770>
    c590:	b9404fe0 	ldr	w0, [sp, #76]
    c594:	340000a0 	cbz	w0, c5a8 <setlocale@plt+0x8748>
    c598:	f94023e1 	ldr	x1, [sp, #64]
    c59c:	52800d20 	mov	w0, #0x69                  	// #105
    c5a0:	91000822 	add	x2, x1, #0x2
    c5a4:	39000420 	strb	w0, [x1, #1]
    c5a8:	aa0203e1 	mov	x1, x2
    c5ac:	52800840 	mov	w0, #0x42                  	// #66
    c5b0:	38001420 	strb	w0, [x1], #1
    c5b4:	f90023e1 	str	x1, [sp, #64]
    c5b8:	17fffea6 	b	c050 <setlocale@plt+0x81f0>
    c5bc:	f94023e3 	ldr	x3, [sp, #64]
    c5c0:	52800d61 	mov	w1, #0x6b                  	// #107
    c5c4:	39000061 	strb	w1, [x3]
    c5c8:	35ffff00 	cbnz	w0, c5a8 <setlocale@plt+0x8748>
    c5cc:	d503201f 	nop
    c5d0:	f90023e2 	str	x2, [sp, #64]
    c5d4:	17fffe9f 	b	c050 <setlocale@plt+0x81f0>
    c5d8:	f0000063 	adrp	x3, 1b000 <_obstack_memory_used@@Base+0xe1c0>
    c5dc:	92800002 	mov	x2, #0xffffffffffffffff    	// #-1
    c5e0:	91296063 	add	x3, x3, #0xa58
    c5e4:	17ffff8e 	b	c41c <setlocale@plt+0x85bc>
    c5e8:	363000d4 	tbz	w20, #6, c600 <setlocale@plt+0x87a0>
    c5ec:	f9401fe2 	ldr	x2, [sp, #56]
    c5f0:	910a2041 	add	x1, x2, #0x288
    c5f4:	f90023e1 	str	x1, [sp, #64]
    c5f8:	52800401 	mov	w1, #0x20                  	// #32
    c5fc:	390a1c41 	strb	w1, [x2, #647]
    c600:	35fffaf3 	cbnz	w19, c55c <setlocale@plt+0x86fc>
    c604:	34ffd260 	cbz	w0, c050 <setlocale@plt+0x81f0>
    c608:	f94023e2 	ldr	x2, [sp, #64]
    c60c:	17ffffe7 	b	c5a8 <setlocale@plt+0x8748>
    c610:	1a9f27e1 	cset	w1, cc	// cc = lo, ul, last
    c614:	11000821 	add	w1, w1, #0x2
    c618:	17fffe66 	b	bfb0 <setlocale@plt+0x8150>
    c61c:	71002a7f 	cmp	w19, #0xa
    c620:	54ffcec0 	b.eq	bff8 <setlocale@plt+0x8198>  // b.none
    c624:	11000673 	add	w19, w19, #0x1
    c628:	361806d4 	tbz	w20, #3, c700 <setlocale@plt+0x88a0>
    c62c:	52800620 	mov	w0, #0x31                  	// #49
    c630:	381ff320 	sturb	w0, [x25, #-1]
    c634:	d100073c 	sub	x28, x25, #0x1
    c638:	3617d014 	tbz	w20, #2, c038 <setlocale@plt+0x81d8>
    c63c:	17ffff2e 	b	c2f4 <setlocale@plt+0x8494>
    c640:	f10024bf 	cmp	x5, #0x9
    c644:	54ffcc28 	b.hi	bfc8 <setlocale@plt+0x8168>  // b.pmore
    c648:	7100079f 	cmp	w28, #0x1
    c64c:	54000340 	b.eq	c6b4 <setlocale@plt+0x8854>  // b.none
    c650:	7100039f 	cmp	w28, #0x0
    c654:	7a400824 	ccmp	w1, #0x0, #0x4, eq	// eq = none
    c658:	5400036d 	b.le	c6c4 <setlocale@plt+0x8864>
    c65c:	110004e0 	add	w0, w7, #0x1
    c660:	1100c000 	add	w0, w0, #0x30
    c664:	12001c00 	and	w0, w0, #0xff
    c668:	710024ff 	cmp	w7, #0x9
    c66c:	540003e0 	b.eq	c6e8 <setlocale@plt+0x8888>  // b.none
    c670:	f9401fe1 	ldr	x1, [sp, #56]
    c674:	aa1a03e2 	mov	x2, x26
    c678:	b90003e3 	str	w3, [sp]
    c67c:	cb1a0026 	sub	x6, x1, x26
    c680:	f9000be4 	str	x4, [sp, #16]
    c684:	390a1820 	strb	w0, [x1, #646]
    c688:	910a18d9 	add	x25, x6, #0x286
    c68c:	aa1b03e1 	mov	x1, x27
    c690:	aa1903e0 	mov	x0, x25
    c694:	97ffdc47 	bl	37b0 <memcpy@plt>
    c698:	f9400be4 	ldr	x4, [sp, #16]
    c69c:	52800001 	mov	w1, #0x0                   	// #0
    c6a0:	b94003e3 	ldr	w3, [sp]
    c6a4:	52800002 	mov	w2, #0x0                   	// #0
    c6a8:	7100079f 	cmp	w28, #0x1
    c6ac:	54ffc941 	b.ne	bfd4 <setlocale@plt+0x8174>  // b.any
    c6b0:	17fffe52 	b	bff8 <setlocale@plt+0x8198>
    c6b4:	120000e0 	and	w0, w7, #0x1
    c6b8:	0b010000 	add	w0, w0, w1
    c6bc:	7100081f 	cmp	w0, #0x2
    c6c0:	54fffcec 	b.gt	c65c <setlocale@plt+0x87fc>
    c6c4:	1100c0e0 	add	w0, w7, #0x30
    c6c8:	12001c00 	and	w0, w0, #0xff
    c6cc:	35fffd27 	cbnz	w7, c670 <setlocale@plt+0x8810>
    c6d0:	f94023f9 	ldr	x25, [sp, #64]
    c6d4:	371ffe94 	tbnz	w20, #3, c6a4 <setlocale@plt+0x8844>
    c6d8:	52800600 	mov	w0, #0x30                  	// #48
    c6dc:	17ffffe5 	b	c670 <setlocale@plt+0x8810>
    c6e0:	52800013 	mov	w19, #0x0                   	// #0
    c6e4:	17fffe58 	b	c044 <setlocale@plt+0x81e4>
    c6e8:	910004a4 	add	x4, x5, #0x1
    c6ec:	52800001 	mov	w1, #0x0                   	// #0
    c6f0:	f10024bf 	cmp	x5, #0x9
    c6f4:	54fffee1 	b.ne	c6d0 <setlocale@plt+0x8870>  // b.any
    c6f8:	f94023f9 	ldr	x25, [sp, #64]
    c6fc:	17fffe3f 	b	bff8 <setlocale@plt+0x8198>
    c700:	aa3a03e0 	mvn	x0, x26
    c704:	52800601 	mov	w1, #0x30                  	// #48
    c708:	381ff321 	sturb	w1, [x25, #-1]
    c70c:	8b000339 	add	x25, x25, x0
    c710:	aa1b03e1 	mov	x1, x27
    c714:	aa1a03e2 	mov	x2, x26
    c718:	aa1903e0 	mov	x0, x25
    c71c:	97ffdc25 	bl	37b0 <memcpy@plt>
    c720:	17ffffc3 	b	c62c <setlocale@plt+0x87cc>
    c724:	97ffdcfb 	bl	3b10 <__stack_chk_fail@plt>
    c728:	d503201f 	nop
    c72c:	d503201f 	nop
    c730:	d503233f 	paciasp
    c734:	a9bd7bfd 	stp	x29, x30, [sp, #-48]!
    c738:	910003fd 	mov	x29, sp
    c73c:	a90153f3 	stp	x19, x20, [sp, #16]
    c740:	90000134 	adrp	x20, 30000 <_obstack_memory_used@@Base+0x231c0>
    c744:	910ac281 	add	x1, x20, #0x2b0
    c748:	f0000102 	adrp	x2, 2f000 <_obstack_memory_used@@Base+0x221c0>
    c74c:	f947e842 	ldr	x2, [x2, #4048]
    c750:	a9025bf5 	stp	x21, x22, [sp, #32]
    c754:	d10a83ff 	sub	sp, sp, #0x2a0
    c758:	39720023 	ldrb	w3, [x1, #3200]
    c75c:	aa0003f5 	mov	x21, x0
    c760:	f9400040 	ldr	x0, [x2]
    c764:	f9014fe0 	str	x0, [sp, #664]
    c768:	d2800000 	mov	x0, #0x0                   	// #0
    c76c:	3971e036 	ldrb	w22, [x1, #3192]
    c770:	36000503 	tbz	w3, #0, c810 <setlocale@plt+0x89b0>
    c774:	b94c7c20 	ldr	w0, [x1, #3196]
    c778:	7100101f 	cmp	w0, #0x4
    c77c:	54000960 	b.eq	c8a8 <setlocale@plt+0x8a48>  // b.none
    c780:	b98c4433 	ldrsw	x19, [x1, #3140]
    c784:	91000673 	add	x19, x19, #0x1
    c788:	360008b6 	tbz	w22, #0, c89c <setlocale@plt+0x8a3c>
    c78c:	910ac280 	add	x0, x20, #0x2b0
    c790:	b98c4800 	ldrsw	x0, [x0, #3144]
    c794:	91000400 	add	x0, x0, #0x1
    c798:	8b000273 	add	x19, x19, x0
    c79c:	910ac280 	add	x0, x20, #0x2b0
    c7a0:	3975b001 	ldrb	w1, [x0, #3436]
    c7a4:	370005c1 	tbnz	w1, #0, c85c <setlocale@plt+0x89fc>
    c7a8:	f9405ea1 	ldr	x1, [x21, #184]
    c7ac:	b40006a1 	cbz	x1, c880 <setlocale@plt+0x8a20>
    c7b0:	910ac294 	add	x20, x20, #0x2b0
    c7b4:	8b010273 	add	x19, x19, x1
    c7b8:	b94cd281 	ldr	w1, [x20, #3280]
    c7bc:	340000e1 	cbz	w1, c7d8 <setlocale@plt+0x8978>
    c7c0:	3942a2a0 	ldrb	w0, [x21, #168]
    c7c4:	b9402aa1 	ldr	w1, [x21, #40]
    c7c8:	b9409aa2 	ldr	w2, [x21, #152]
    c7cc:	97fff9d1 	bl	af10 <setlocale@plt+0x70b0>
    c7d0:	72001c1f 	tst	w0, #0xff
    c7d4:	9a930673 	cinc	x19, x19, ne	// ne = any
    c7d8:	f0000100 	adrp	x0, 2f000 <_obstack_memory_used@@Base+0x221c0>
    c7dc:	f947e800 	ldr	x0, [x0, #4048]
    c7e0:	f9414fe2 	ldr	x2, [sp, #664]
    c7e4:	f9400001 	ldr	x1, [x0]
    c7e8:	eb010042 	subs	x2, x2, x1
    c7ec:	d2800001 	mov	x1, #0x0                   	// #0
    c7f0:	54000961 	b.ne	c91c <setlocale@plt+0x8abc>  // b.any
    c7f4:	910a83ff 	add	sp, sp, #0x2a0
    c7f8:	aa1303e0 	mov	x0, x19
    c7fc:	a94153f3 	ldp	x19, x20, [sp, #16]
    c800:	a9425bf5 	ldp	x21, x22, [sp, #32]
    c804:	a8c37bfd 	ldp	x29, x30, [sp], #48
    c808:	d50323bf 	autiasp
    c80c:	d65f03c0 	ret
    c810:	d2800013 	mov	x19, #0x0                   	// #0
    c814:	3607fc56 	tbz	w22, #0, c79c <setlocale@plt+0x893c>
    c818:	b94c7c20 	ldr	w0, [x1, #3196]
    c81c:	7100101f 	cmp	w0, #0x4
    c820:	54fffb61 	b.ne	c78c <setlocale@plt+0x892c>  // b.any
    c824:	3942a2a1 	ldrb	w1, [x21, #168]
    c828:	d2800040 	mov	x0, #0x2                   	// #2
    c82c:	3607fb61 	tbz	w1, #0, c798 <setlocale@plt+0x8938>
    c830:	910ac282 	add	x2, x20, #0x2b0
    c834:	910023e1 	add	x1, sp, #0x8
    c838:	f9402ea0 	ldr	x0, [x21, #88]
    c83c:	d2804003 	mov	x3, #0x200                 	// #512
    c840:	f946b044 	ldr	x4, [x2, #3424]
    c844:	b94d6842 	ldr	w2, [x2, #3432]
    c848:	97fffd9a 	bl	beb0 <setlocale@plt+0x8050>
    c84c:	97ffdbed 	bl	3800 <strlen@plt>
    c850:	91000400 	add	x0, x0, #0x1
    c854:	8b000273 	add	x19, x19, x0
    c858:	17ffffd1 	b	c79c <setlocale@plt+0x893c>
    c85c:	b94c7c00 	ldr	w0, [x0, #3196]
    c860:	7100101f 	cmp	w0, #0x4
    c864:	54000520 	b.eq	c908 <setlocale@plt+0x8aa8>  // b.none
    c868:	910ac280 	add	x0, x20, #0x2b0
    c86c:	b98c5c00 	ldrsw	x0, [x0, #3164]
    c870:	91000400 	add	x0, x0, #0x1
    c874:	8b000273 	add	x19, x19, x0
    c878:	f9405ea1 	ldr	x1, [x21, #184]
    c87c:	b5fff9a1 	cbnz	x1, c7b0 <setlocale@plt+0x8950>
    c880:	910ac281 	add	x1, x20, #0x2b0
    c884:	b940b6a2 	ldr	w2, [x21, #180]
    c888:	f94002a0 	ldr	x0, [x21]
    c88c:	f9463821 	ldr	x1, [x1, #3184]
    c890:	97fff628 	bl	a130 <setlocale@plt+0x62d0>
    c894:	aa0003e1 	mov	x1, x0
    c898:	17ffffc6 	b	c7b0 <setlocale@plt+0x8950>
    c89c:	3975b020 	ldrb	w0, [x1, #3436]
    c8a0:	3707fe40 	tbnz	w0, #0, c868 <setlocale@plt+0x8a08>
    c8a4:	17ffffc1 	b	c7a8 <setlocale@plt+0x8948>
    c8a8:	f94012a3 	ldr	x3, [x21, #32]
    c8ac:	b202e7e5 	mov	x5, #0xcccccccccccccccc    	// #-3689348814741910324
    c8b0:	910073e4 	add	x4, sp, #0x1c
    c8b4:	f29999a5 	movk	x5, #0xcccd
    c8b8:	390073ff 	strb	wzr, [sp, #28]
    c8bc:	d503201f 	nop
    c8c0:	9bc57c62 	umulh	x2, x3, x5
    c8c4:	aa0303e0 	mov	x0, x3
    c8c8:	d343fc42 	lsr	x2, x2, #3
    c8cc:	8b020841 	add	x1, x2, x2, lsl #2
    c8d0:	cb010461 	sub	x1, x3, x1, lsl #1
    c8d4:	aa0203e3 	mov	x3, x2
    c8d8:	1100c021 	add	w1, w1, #0x30
    c8dc:	381ffc81 	strb	w1, [x4, #-1]!
    c8e0:	f100241f 	cmp	x0, #0x9
    c8e4:	54fffee8 	b.hi	c8c0 <setlocale@plt+0x8a60>  // b.pmore
    c8e8:	aa0403e0 	mov	x0, x4
    c8ec:	97ffdbc5 	bl	3800 <strlen@plt>
    c8f0:	91000413 	add	x19, x0, #0x1
    c8f4:	3707f996 	tbnz	w22, #0, c824 <setlocale@plt+0x89c4>
    c8f8:	910ac280 	add	x0, x20, #0x2b0
    c8fc:	3975b000 	ldrb	w0, [x0, #3436]
    c900:	3607f540 	tbz	w0, #0, c7a8 <setlocale@plt+0x8948>
    c904:	d503201f 	nop
    c908:	f94052a0 	ldr	x0, [x21, #160]
    c90c:	97ffdbbd 	bl	3800 <strlen@plt>
    c910:	91000400 	add	x0, x0, #0x1
    c914:	8b000273 	add	x19, x19, x0
    c918:	17ffffd8 	b	c878 <setlocale@plt+0x8a18>
    c91c:	97ffdc7d 	bl	3b10 <__stack_chk_fail@plt>
    c920:	d503233f 	paciasp
    c924:	a9b97bfd 	stp	x29, x30, [sp, #-112]!
    c928:	910003fd 	mov	x29, sp
    c92c:	a90153f3 	stp	x19, x20, [sp, #16]
    c930:	90000134 	adrp	x20, 30000 <_obstack_memory_used@@Base+0x231c0>
    c934:	910ac294 	add	x20, x20, #0x2b0
    c938:	a9046bf9 	stp	x25, x26, [sp, #64]
    c93c:	12001c19 	and	w25, w0, #0xff
    c940:	f9461a80 	ldr	x0, [x20, #3120]
    c944:	a90363f7 	stp	x23, x24, [sp, #48]
    c948:	b4000ce0 	cbz	x0, cae4 <setlocale@plt+0x8c84>
    c94c:	9000013a 	adrp	x26, 30000 <_obstack_memory_used@@Base+0x231c0>
    c950:	d2800013 	mov	x19, #0x0                   	// #0
    c954:	f0000118 	adrp	x24, 2f000 <_obstack_memory_used@@Base+0x221c0>
    c958:	f947e318 	ldr	x24, [x24, #4032]
    c95c:	a9025bf5 	stp	x21, x22, [sp, #32]
    c960:	d2800016 	mov	x22, #0x0                   	// #0
    c964:	a90573fb 	stp	x27, x28, [sp, #80]
    c968:	9100435b 	add	x27, x26, #0x10
    c96c:	1400000a 	b	c994 <setlocale@plt+0x8b34>
    c970:	aa1603f5 	mov	x21, x22
    c974:	b5000ad3 	cbnz	x19, cacc <setlocale@plt+0x8c6c>
    c978:	aa1703e0 	mov	x0, x23
    c97c:	aa1503e1 	mov	x1, x21
    c980:	94002781 	bl	16784 <_obstack_memory_used@@Base+0x9944>
    c984:	91000673 	add	x19, x19, #0x1
    c988:	f9461a80 	ldr	x0, [x20, #3120]
    c98c:	eb13001f 	cmp	x0, x19
    c990:	54000569 	b.ls	ca3c <setlocale@plt+0x8bdc>  // b.plast
    c994:	f9461e81 	ldr	x1, [x20, #3128]
    c998:	f946ba80 	ldr	x0, [x20, #3440]
    c99c:	f8737837 	ldr	x23, [x1, x19, lsl #3]
    c9a0:	b4fffe80 	cbz	x0, c970 <setlocale@plt+0x8b10>
    c9a4:	aa1703e0 	mov	x0, x23
    c9a8:	97ffff62 	bl	c730 <setlocale@plt+0x88d0>
    c9ac:	b4000973 	cbz	x19, cad8 <setlocale@plt+0x8c78>
    c9b0:	f946ba81 	ldr	x1, [x20, #3440]
    c9b4:	91000ad5 	add	x21, x22, #0x2
    c9b8:	8b150002 	add	x2, x0, x21
    c9bc:	b4000621 	cbz	x1, ca80 <setlocale@plt+0x8c20>
    c9c0:	eb02003f 	cmp	x1, x2
    c9c4:	540000a9 	b.ls	c9d8 <setlocale@plt+0x8b78>  // b.plast
    c9c8:	92800041 	mov	x1, #0xfffffffffffffffd    	// #-3
    c9cc:	cb000021 	sub	x1, x1, x0
    c9d0:	eb16003f 	cmp	x1, x22
    c9d4:	54000562 	b.cs	ca80 <setlocale@plt+0x8c20>  // b.hs, b.nlast
    c9d8:	aa0003f6 	mov	x22, x0
    c9dc:	3942f37c 	ldrb	w28, [x27, #188]
    c9e0:	f9400300 	ldr	x0, [x24]
    c9e4:	2a1c03e3 	mov	w3, w28
    c9e8:	d2800015 	mov	x21, #0x0                   	// #0
    c9ec:	a9428801 	ldp	x1, x2, [x0, #40]
    c9f0:	eb02003f 	cmp	x1, x2
    c9f4:	54000562 	b.cs	caa0 <setlocale@plt+0x8c40>  // b.hs, b.nlast
    c9f8:	91000422 	add	x2, x1, #0x1
    c9fc:	f9001402 	str	x2, [x0, #40]
    ca00:	39000039 	strb	w25, [x1]
    ca04:	f9400300 	ldr	x0, [x24]
    ca08:	a9428801 	ldp	x1, x2, [x0, #40]
    ca0c:	eb02003f 	cmp	x1, x2
    ca10:	54000582 	b.cs	cac0 <setlocale@plt+0x8c60>  // b.hs, b.nlast
    ca14:	91000422 	add	x2, x1, #0x1
    ca18:	f9001402 	str	x2, [x0, #40]
    ca1c:	3900003c 	strb	w28, [x1]
    ca20:	aa1703e0 	mov	x0, x23
    ca24:	aa1503e1 	mov	x1, x21
    ca28:	91000673 	add	x19, x19, #0x1
    ca2c:	94002756 	bl	16784 <_obstack_memory_used@@Base+0x9944>
    ca30:	f9461a80 	ldr	x0, [x20, #3120]
    ca34:	eb13001f 	cmp	x0, x19
    ca38:	54fffae8 	b.hi	c994 <setlocale@plt+0x8b34>  // b.pmore
    ca3c:	f9400300 	ldr	x0, [x24]
    ca40:	9100435a 	add	x26, x26, #0x10
    ca44:	a9425bf5 	ldp	x21, x22, [sp, #32]
    ca48:	a9428c02 	ldp	x2, x3, [x0, #40]
    ca4c:	a94573fb 	ldp	x27, x28, [sp, #80]
    ca50:	3942f341 	ldrb	w1, [x26, #188]
    ca54:	eb03005f 	cmp	x2, x3
    ca58:	54000582 	b.cs	cb08 <setlocale@plt+0x8ca8>  // b.hs, b.nlast
    ca5c:	91000443 	add	x3, x2, #0x1
    ca60:	f9001403 	str	x3, [x0, #40]
    ca64:	39000041 	strb	w1, [x2]
    ca68:	a94153f3 	ldp	x19, x20, [sp, #16]
    ca6c:	a94363f7 	ldp	x23, x24, [sp, #48]
    ca70:	a9446bf9 	ldp	x25, x26, [sp, #64]
    ca74:	a8c77bfd 	ldp	x29, x30, [sp], #112
    ca78:	d50323bf 	autiasp
    ca7c:	d65f03c0 	ret
    ca80:	aa0203f6 	mov	x22, x2
    ca84:	d503201f 	nop
    ca88:	f9400300 	ldr	x0, [x24]
    ca8c:	52800403 	mov	w3, #0x20                  	// #32
    ca90:	2a0303fc 	mov	w28, w3
    ca94:	a9428801 	ldp	x1, x2, [x0, #40]
    ca98:	eb02003f 	cmp	x1, x2
    ca9c:	54fffae3 	b.cc	c9f8 <setlocale@plt+0x8b98>  // b.lo, b.ul, b.last
    caa0:	2a1903e1 	mov	w1, w25
    caa4:	b9006fe3 	str	w3, [sp, #108]
    caa8:	97ffdc42 	bl	3bb0 <__overflow@plt>
    caac:	f9400300 	ldr	x0, [x24]
    cab0:	b9406fe3 	ldr	w3, [sp, #108]
    cab4:	a9428801 	ldp	x1, x2, [x0, #40]
    cab8:	eb02003f 	cmp	x1, x2
    cabc:	54fffac3 	b.cc	ca14 <setlocale@plt+0x8bb4>  // b.lo, b.ul, b.last
    cac0:	2a0303e1 	mov	w1, w3
    cac4:	97ffdc3b 	bl	3bb0 <__overflow@plt>
    cac8:	17ffffac 	b	c978 <setlocale@plt+0x8b18>
    cacc:	91000ad6 	add	x22, x22, #0x2
    cad0:	aa1603f5 	mov	x21, x22
    cad4:	17ffffed 	b	ca88 <setlocale@plt+0x8c28>
    cad8:	aa1603f5 	mov	x21, x22
    cadc:	8b160016 	add	x22, x0, x22
    cae0:	17ffffa6 	b	c978 <setlocale@plt+0x8b18>
    cae4:	f0000118 	adrp	x24, 2f000 <_obstack_memory_used@@Base+0x221c0>
    cae8:	f947e318 	ldr	x24, [x24, #4032]
    caec:	9000013a 	adrp	x26, 30000 <_obstack_memory_used@@Base+0x231c0>
    caf0:	9100435a 	add	x26, x26, #0x10
    caf4:	f9400300 	ldr	x0, [x24]
    caf8:	3942f341 	ldrb	w1, [x26, #188]
    cafc:	a9428c02 	ldp	x2, x3, [x0, #40]
    cb00:	eb03005f 	cmp	x2, x3
    cb04:	54fffac3 	b.cc	ca5c <setlocale@plt+0x8bfc>  // b.lo, b.ul, b.last
    cb08:	a94153f3 	ldp	x19, x20, [sp, #16]
    cb0c:	a94363f7 	ldp	x23, x24, [sp, #48]
    cb10:	a9446bf9 	ldp	x25, x26, [sp, #64]
    cb14:	a8c77bfd 	ldp	x29, x30, [sp], #112
    cb18:	d50323bf 	autiasp
    cb1c:	17ffdc25 	b	3bb0 <__overflow@plt>

000000000000cb20 <_obstack_begin@@Base>:
    cb20:	d503233f 	paciasp
    cb24:	a9bf7bfd 	stp	x29, x30, [sp, #-16]!
    cb28:	910003fd 	mov	x29, sp
    cb2c:	39414006 	ldrb	w6, [x0, #80]
    cb30:	a9039003 	stp	x3, x4, [x0, #56]
    cb34:	121f78c6 	and	w6, w6, #0xfffffffe
    cb38:	39014006 	strb	w6, [x0, #80]
    cb3c:	a8c17bfd 	ldp	x29, x30, [sp], #16
    cb40:	d50323bf 	autiasp
    cb44:	17ffe9c3 	b	7250 <setlocale@plt+0x33f0>
    cb48:	d503201f 	nop
    cb4c:	d503201f 	nop

000000000000cb50 <_obstack_begin_1@@Base>:
    cb50:	d503233f 	paciasp
    cb54:	a9bf7bfd 	stp	x29, x30, [sp, #-16]!
    cb58:	910003fd 	mov	x29, sp
    cb5c:	39414007 	ldrb	w7, [x0, #80]
    cb60:	a9039003 	stp	x3, x4, [x0, #56]
    cb64:	320000e7 	orr	w7, w7, #0x1
    cb68:	f9002405 	str	x5, [x0, #72]
    cb6c:	39014007 	strb	w7, [x0, #80]
    cb70:	a8c17bfd 	ldp	x29, x30, [sp], #16
    cb74:	d50323bf 	autiasp
    cb78:	17ffe9b6 	b	7250 <setlocale@plt+0x33f0>
    cb7c:	d503201f 	nop

000000000000cb80 <_obstack_newchunk@@Base>:
    cb80:	d503233f 	paciasp
    cb84:	a9bc7bfd 	stp	x29, x30, [sp, #-64]!
    cb88:	910003fd 	mov	x29, sp
    cb8c:	a9025bf5 	stp	x21, x22, [sp, #32]
    cb90:	a9415402 	ldp	x2, x21, [x0, #16]
    cb94:	a90153f3 	stp	x19, x20, [sp, #16]
    cb98:	aa0003f3 	mov	x19, x0
    cb9c:	f9401800 	ldr	x0, [x0, #48]
    cba0:	cb0202b5 	sub	x21, x21, x2
    cba4:	f9400262 	ldr	x2, [x19]
    cba8:	ab0102a3 	adds	x3, x21, x1
    cbac:	9a9f37e4 	cset	x4, cs	// cs = hs, nlast
    cbb0:	d343fea1 	lsr	x1, x21, #3
    cbb4:	ab030000 	adds	x0, x0, x3
    cbb8:	91019021 	add	x1, x1, #0x64
    cbbc:	9a9f37e3 	cset	x3, cs	// cs = hs, nlast
    cbc0:	eb00005f 	cmp	x2, x0
    cbc4:	8b000021 	add	x1, x1, x0
    cbc8:	9a802042 	csel	x2, x2, x0, cs	// cs = hs, nlast
    cbcc:	eb02003f 	cmp	x1, x2
    cbd0:	f9001bf7 	str	x23, [sp, #48]
    cbd4:	9a822034 	csel	x20, x1, x2, cs	// cs = hs, nlast
    cbd8:	f100009f 	cmp	x4, #0x0
    cbdc:	f9400677 	ldr	x23, [x19, #8]
    cbe0:	fa400860 	ccmp	x3, #0x0, #0x0, eq	// eq = none
    cbe4:	54000721 	b.ne	ccc8 <_obstack_newchunk@@Base+0x148>  // b.any
    cbe8:	39414260 	ldrb	w0, [x19, #80]
    cbec:	f9401e62 	ldr	x2, [x19, #56]
    cbf0:	360004e0 	tbz	w0, #0, cc8c <_obstack_newchunk@@Base+0x10c>
    cbf4:	f9402660 	ldr	x0, [x19, #72]
    cbf8:	aa1403e1 	mov	x1, x20
    cbfc:	d63f0040 	blr	x2
    cc00:	aa0003f6 	mov	x22, x0
    cc04:	b4000636 	cbz	x22, ccc8 <_obstack_newchunk@@Base+0x148>
    cc08:	aa1603e3 	mov	x3, x22
    cc0c:	f9000676 	str	x22, [x19, #8]
    cc10:	f9400a61 	ldr	x1, [x19, #16]
    cc14:	8b1402d4 	add	x20, x22, x20
    cc18:	f9401a60 	ldr	x0, [x19, #48]
    cc1c:	f90006d7 	str	x23, [x22, #8]
    cc20:	f9001274 	str	x20, [x19, #32]
    cc24:	aa1503e2 	mov	x2, x21
    cc28:	f8010474 	str	x20, [x3], #16
    cc2c:	8b000063 	add	x3, x3, x0
    cc30:	8a200074 	bic	x20, x3, x0
    cc34:	aa1403e0 	mov	x0, x20
    cc38:	97ffdade 	bl	37b0 <memcpy@plt>
    cc3c:	39414262 	ldrb	w2, [x19, #80]
    cc40:	37080102 	tbnz	w2, #1, cc60 <_obstack_newchunk@@Base+0xe0>
    cc44:	f9401a61 	ldr	x1, [x19, #48]
    cc48:	910042e0 	add	x0, x23, #0x10
    cc4c:	f9400a63 	ldr	x3, [x19, #16]
    cc50:	8b010000 	add	x0, x0, x1
    cc54:	8a210001 	bic	x1, x0, x1
    cc58:	eb01007f 	cmp	x3, x1
    cc5c:	54000200 	b.eq	cc9c <_obstack_newchunk@@Base+0x11c>  // b.none
    cc60:	39414260 	ldrb	w0, [x19, #80]
    cc64:	8b150295 	add	x21, x20, x21
    cc68:	f9401bf7 	ldr	x23, [sp, #48]
    cc6c:	121e7800 	and	w0, w0, #0xfffffffd
    cc70:	a9015674 	stp	x20, x21, [x19, #16]
    cc74:	39014260 	strb	w0, [x19, #80]
    cc78:	a94153f3 	ldp	x19, x20, [sp, #16]
    cc7c:	a9425bf5 	ldp	x21, x22, [sp, #32]
    cc80:	a8c47bfd 	ldp	x29, x30, [sp], #64
    cc84:	d50323bf 	autiasp
    cc88:	d65f03c0 	ret
    cc8c:	aa1403e0 	mov	x0, x20
    cc90:	d63f0040 	blr	x2
    cc94:	aa0003f6 	mov	x22, x0
    cc98:	17ffffdb 	b	cc04 <_obstack_newchunk@@Base+0x84>
    cc9c:	f94006e0 	ldr	x0, [x23, #8]
    cca0:	f9402263 	ldr	x3, [x19, #64]
    cca4:	f90006c0 	str	x0, [x22, #8]
    cca8:	360000a2 	tbz	w2, #0, ccbc <_obstack_newchunk@@Base+0x13c>
    ccac:	f9402660 	ldr	x0, [x19, #72]
    ccb0:	aa1703e1 	mov	x1, x23
    ccb4:	d63f0060 	blr	x3
    ccb8:	17ffffea 	b	cc60 <_obstack_newchunk@@Base+0xe0>
    ccbc:	aa1703e0 	mov	x0, x23
    ccc0:	d63f0060 	blr	x3
    ccc4:	17ffffe7 	b	cc60 <_obstack_newchunk@@Base+0xe0>
    ccc8:	f0000100 	adrp	x0, 2f000 <_obstack_memory_used@@Base+0x221c0>
    cccc:	f947c000 	ldr	x0, [x0, #3968]
    ccd0:	f9400000 	ldr	x0, [x0]
    ccd4:	d63f0000 	blr	x0
    ccd8:	d503201f 	nop
    ccdc:	d503201f 	nop
    cce0:	d503233f 	paciasp
    cce4:	a9be7bfd 	stp	x29, x30, [sp, #-32]!
    cce8:	910003fd 	mov	x29, sp
    ccec:	a9418402 	ldp	x2, x1, [x0, #24]
    ccf0:	f9000bf3 	str	x19, [sp, #16]
    ccf4:	aa0003f3 	mov	x19, x0
    ccf8:	cb020021 	sub	x1, x1, x2
    ccfc:	f1001c3f 	cmp	x1, #0x7
    cd00:	54000169 	b.ls	cd2c <_obstack_newchunk@@Base+0x1ac>  // b.plast
    cd04:	90000120 	adrp	x0, 30000 <_obstack_memory_used@@Base+0x231c0>
    cd08:	f9416000 	ldr	x0, [x0, #704]
    cd0c:	f9000040 	str	x0, [x2]
    cd10:	f9400e60 	ldr	x0, [x19, #24]
    cd14:	91002000 	add	x0, x0, #0x8
    cd18:	f9000e60 	str	x0, [x19, #24]
    cd1c:	f9400bf3 	ldr	x19, [sp, #16]
    cd20:	a8c27bfd 	ldp	x29, x30, [sp], #32
    cd24:	d50323bf 	autiasp
    cd28:	d65f03c0 	ret
    cd2c:	d2800101 	mov	x1, #0x8                   	// #8
    cd30:	97ffff94 	bl	cb80 <_obstack_newchunk@@Base>
    cd34:	f9400e62 	ldr	x2, [x19, #24]
    cd38:	17fffff3 	b	cd04 <_obstack_newchunk@@Base+0x184>
    cd3c:	d503201f 	nop

000000000000cd40 <_obstack_allocated_p@@Base>:
    cd40:	d503233f 	paciasp
    cd44:	a9bf7bfd 	stp	x29, x30, [sp, #-16]!
    cd48:	910003fd 	mov	x29, sp
    cd4c:	f9400400 	ldr	x0, [x0, #8]
    cd50:	b4000140 	cbz	x0, cd78 <_obstack_allocated_p@@Base+0x38>
    cd54:	d503201f 	nop
    cd58:	eb00003f 	cmp	x1, x0
    cd5c:	54000089 	b.ls	cd6c <_obstack_allocated_p@@Base+0x2c>  // b.plast
    cd60:	f9400002 	ldr	x2, [x0]
    cd64:	eb01005f 	cmp	x2, x1
    cd68:	540000e2 	b.cs	cd84 <_obstack_allocated_p@@Base+0x44>  // b.hs, b.nlast
    cd6c:	f9400400 	ldr	x0, [x0, #8]
    cd70:	b5ffff40 	cbnz	x0, cd58 <_obstack_allocated_p@@Base+0x18>
    cd74:	52800000 	mov	w0, #0x0                   	// #0
    cd78:	a8c17bfd 	ldp	x29, x30, [sp], #16
    cd7c:	d50323bf 	autiasp
    cd80:	d65f03c0 	ret
    cd84:	a8c17bfd 	ldp	x29, x30, [sp], #16
    cd88:	d50323bf 	autiasp
    cd8c:	52800020 	mov	w0, #0x1                   	// #1
    cd90:	d65f03c0 	ret

000000000000cd94 <_obstack_free@@Base>:
    cd94:	d503233f 	paciasp
    cd98:	a9bd7bfd 	stp	x29, x30, [sp, #-48]!
    cd9c:	910003fd 	mov	x29, sp
    cda0:	f90013f5 	str	x21, [sp, #32]
    cda4:	aa0103f5 	mov	x21, x1
    cda8:	f9400401 	ldr	x1, [x0, #8]
    cdac:	b4000361 	cbz	x1, ce18 <_obstack_free@@Base+0x84>
    cdb0:	a90153f3 	stp	x19, x20, [sp, #16]
    cdb4:	aa0003f3 	mov	x19, x0
    cdb8:	14000008 	b	cdd8 <_obstack_free@@Base+0x44>
    cdbc:	f9402660 	ldr	x0, [x19, #72]
    cdc0:	d63f0040 	blr	x2
    cdc4:	39414260 	ldrb	w0, [x19, #80]
    cdc8:	321f0000 	orr	w0, w0, #0x2
    cdcc:	39014260 	strb	w0, [x19, #80]
    cdd0:	b4000234 	cbz	x20, ce14 <_obstack_free@@Base+0x80>
    cdd4:	aa1403e1 	mov	x1, x20
    cdd8:	eb0102bf 	cmp	x21, x1
    cddc:	54000089 	b.ls	cdec <_obstack_free@@Base+0x58>  // b.plast
    cde0:	f9400020 	ldr	x0, [x1]
    cde4:	eb15001f 	cmp	x0, x21
    cde8:	540001e2 	b.cs	ce24 <_obstack_free@@Base+0x90>  // b.hs, b.nlast
    cdec:	39414260 	ldrb	w0, [x19, #80]
    cdf0:	f9400434 	ldr	x20, [x1, #8]
    cdf4:	f9402262 	ldr	x2, [x19, #64]
    cdf8:	3707fe20 	tbnz	w0, #0, cdbc <_obstack_free@@Base+0x28>
    cdfc:	aa0103e0 	mov	x0, x1
    ce00:	d63f0040 	blr	x2
    ce04:	39414260 	ldrb	w0, [x19, #80]
    ce08:	321f0000 	orr	w0, w0, #0x2
    ce0c:	39014260 	strb	w0, [x19, #80]
    ce10:	b5fffe34 	cbnz	x20, cdd4 <_obstack_free@@Base+0x40>
    ce14:	a94153f3 	ldp	x19, x20, [sp, #16]
    ce18:	b40000d5 	cbz	x21, ce30 <_obstack_free@@Base+0x9c>
    ce1c:	a90153f3 	stp	x19, x20, [sp, #16]
    ce20:	97ffdb58 	bl	3b80 <abort@plt>
    ce24:	a900d661 	stp	x1, x21, [x19, #8]
    ce28:	a9018275 	stp	x21, x0, [x19, #24]
    ce2c:	a94153f3 	ldp	x19, x20, [sp, #16]
    ce30:	f94013f5 	ldr	x21, [sp, #32]
    ce34:	a8c37bfd 	ldp	x29, x30, [sp], #48
    ce38:	d50323bf 	autiasp
    ce3c:	d65f03c0 	ret

000000000000ce40 <_obstack_memory_used@@Base>:
    ce40:	d503233f 	paciasp
    ce44:	a9bf7bfd 	stp	x29, x30, [sp, #-16]!
    ce48:	910003fd 	mov	x29, sp
    ce4c:	f9400401 	ldr	x1, [x0, #8]
    ce50:	d2800000 	mov	x0, #0x0                   	// #0
    ce54:	b40000c1 	cbz	x1, ce6c <_obstack_memory_used@@Base+0x2c>
    ce58:	f9400022 	ldr	x2, [x1]
    ce5c:	cb010042 	sub	x2, x2, x1
    ce60:	f9400421 	ldr	x1, [x1, #8]
    ce64:	8b020000 	add	x0, x0, x2
    ce68:	b5ffff81 	cbnz	x1, ce58 <_obstack_memory_used@@Base+0x18>
    ce6c:	a8c17bfd 	ldp	x29, x30, [sp], #16
    ce70:	d50323bf 	autiasp
    ce74:	d65f03c0 	ret
    ce78:	d503201f 	nop
    ce7c:	d503201f 	nop
    ce80:	d503233f 	paciasp
    ce84:	a9be7bfd 	stp	x29, x30, [sp, #-32]!
    ce88:	910003fd 	mov	x29, sp
    ce8c:	a90153f3 	stp	x19, x20, [sp, #16]
    ce90:	aa0003f4 	mov	x20, x0
    ce94:	2a0103f3 	mov	w19, w1
    ce98:	528001c0 	mov	w0, #0xe                   	// #14
    ce9c:	97ffdad1 	bl	39e0 <nl_langinfo@plt>
    cea0:	b4000540 	cbz	x0, cf48 <_obstack_memory_used@@Base+0x108>
    cea4:	39400002 	ldrb	w2, [x0]
    cea8:	34000502 	cbz	w2, cf48 <_obstack_memory_used@@Base+0x108>
    ceac:	121a7842 	and	w2, w2, #0xffffffdf
    ceb0:	7101545f 	cmp	w2, #0x55
    ceb4:	54000381 	b.ne	cf24 <_obstack_memory_used@@Base+0xe4>  // b.any
    ceb8:	39400402 	ldrb	w2, [x0, #1]
    cebc:	121a7842 	and	w2, w2, #0xffffffdf
    cec0:	7101505f 	cmp	w2, #0x54
    cec4:	54000421 	b.ne	cf48 <_obstack_memory_used@@Base+0x108>  // b.any
    cec8:	39400801 	ldrb	w1, [x0, #2]
    cecc:	121a7821 	and	w1, w1, #0xffffffdf
    ced0:	7101183f 	cmp	w1, #0x46
    ced4:	540003a1 	b.ne	cf48 <_obstack_memory_used@@Base+0x108>  // b.any
    ced8:	39400c01 	ldrb	w1, [x0, #3]
    cedc:	7100b43f 	cmp	w1, #0x2d
    cee0:	54000341 	b.ne	cf48 <_obstack_memory_used@@Base+0x108>  // b.any
    cee4:	39401001 	ldrb	w1, [x0, #4]
    cee8:	7100e03f 	cmp	w1, #0x38
    ceec:	540002e1 	b.ne	cf48 <_obstack_memory_used@@Base+0x108>  // b.any
    cef0:	39401400 	ldrb	w0, [x0, #5]
    cef4:	350002a0 	cbnz	w0, cf48 <_obstack_memory_used@@Base+0x108>
    cef8:	39400282 	ldrb	w2, [x20]
    cefc:	f0000061 	adrp	x1, 1b000 <_obstack_memory_used@@Base+0xe1c0>
    cf00:	f0000060 	adrp	x0, 1b000 <_obstack_memory_used@@Base+0xe1c0>
    cf04:	912a2021 	add	x1, x1, #0xa88
    cf08:	7101805f 	cmp	w2, #0x60
    cf0c:	91298000 	add	x0, x0, #0xa60
    cf10:	a94153f3 	ldp	x19, x20, [sp, #16]
    cf14:	9a811000 	csel	x0, x0, x1, ne	// ne = any
    cf18:	a8c27bfd 	ldp	x29, x30, [sp], #32
    cf1c:	d50323bf 	autiasp
    cf20:	d65f03c0 	ret
    cf24:	71011c5f 	cmp	w2, #0x47
    cf28:	54000101 	b.ne	cf48 <_obstack_memory_used@@Base+0x108>  // b.any
    cf2c:	39400401 	ldrb	w1, [x0, #1]
    cf30:	121a7821 	and	w1, w1, #0xffffffdf
    cf34:	7101083f 	cmp	w1, #0x42
    cf38:	54000081 	b.ne	cf48 <_obstack_memory_used@@Base+0x108>  // b.any
    cf3c:	39400801 	ldrb	w1, [x0, #2]
    cf40:	7100c43f 	cmp	w1, #0x31
    cf44:	54000160 	b.eq	cf70 <_obstack_memory_used@@Base+0x130>  // b.none
    cf48:	7100267f 	cmp	w19, #0x9
    cf4c:	f0000061 	adrp	x1, 1b000 <_obstack_memory_used@@Base+0xe1c0>
    cf50:	f0000060 	adrp	x0, 1b000 <_obstack_memory_used@@Base+0xe1c0>
    cf54:	9129c021 	add	x1, x1, #0xa70
    cf58:	9129e000 	add	x0, x0, #0xa78
    cf5c:	a94153f3 	ldp	x19, x20, [sp, #16]
    cf60:	9a811000 	csel	x0, x0, x1, ne	// ne = any
    cf64:	a8c27bfd 	ldp	x29, x30, [sp], #32
    cf68:	d50323bf 	autiasp
    cf6c:	d65f03c0 	ret
    cf70:	39400c01 	ldrb	w1, [x0, #3]
    cf74:	7100e03f 	cmp	w1, #0x38
    cf78:	54fffe81 	b.ne	cf48 <_obstack_memory_used@@Base+0x108>  // b.any
    cf7c:	39401001 	ldrb	w1, [x0, #4]
    cf80:	7100c03f 	cmp	w1, #0x30
    cf84:	54fffe21 	b.ne	cf48 <_obstack_memory_used@@Base+0x108>  // b.any
    cf88:	39401401 	ldrb	w1, [x0, #5]
    cf8c:	7100cc3f 	cmp	w1, #0x33
    cf90:	54fffdc1 	b.ne	cf48 <_obstack_memory_used@@Base+0x108>  // b.any
    cf94:	39401801 	ldrb	w1, [x0, #6]
    cf98:	7100c03f 	cmp	w1, #0x30
    cf9c:	54fffd61 	b.ne	cf48 <_obstack_memory_used@@Base+0x108>  // b.any
    cfa0:	39401c00 	ldrb	w0, [x0, #7]
    cfa4:	35fffd20 	cbnz	w0, cf48 <_obstack_memory_used@@Base+0x108>
    cfa8:	39400282 	ldrb	w2, [x20]
    cfac:	f0000061 	adrp	x1, 1b000 <_obstack_memory_used@@Base+0xe1c0>
    cfb0:	f0000060 	adrp	x0, 1b000 <_obstack_memory_used@@Base+0xe1c0>
    cfb4:	912a0021 	add	x1, x1, #0xa80
    cfb8:	7101805f 	cmp	w2, #0x60
    cfbc:	9129a000 	add	x0, x0, #0xa68
    cfc0:	a94153f3 	ldp	x19, x20, [sp, #16]
    cfc4:	9a811000 	csel	x0, x0, x1, ne	// ne = any
    cfc8:	a8c27bfd 	ldp	x29, x30, [sp], #32
    cfcc:	d50323bf 	autiasp
    cfd0:	d65f03c0 	ret
    cfd4:	d503233f 	paciasp
    cfd8:	a9bd7bfd 	stp	x29, x30, [sp, #-48]!
    cfdc:	910003fd 	mov	x29, sp
    cfe0:	a90153f3 	stp	x19, x20, [sp, #16]
    cfe4:	340002e0 	cbz	w0, d040 <_obstack_memory_used@@Base+0x200>
    cfe8:	2a0003f3 	mov	w19, w0
    cfec:	7100281f 	cmp	w0, #0xa
    cff0:	540000c0 	b.eq	d008 <_obstack_memory_used@@Base+0x1c8>  // b.none
    cff4:	2a1303e0 	mov	w0, w19
    cff8:	a94153f3 	ldp	x19, x20, [sp, #16]
    cffc:	a8c37bfd 	ldp	x29, x30, [sp], #48
    d000:	d50323bf 	autiasp
    d004:	d65f03c0 	ret
    d008:	aa0103f4 	mov	x20, x1
    d00c:	f90013f5 	str	x21, [sp, #32]
    d010:	d0000061 	adrp	x1, 1b000 <_obstack_memory_used@@Base+0xe1c0>
    d014:	912a4021 	add	x1, x1, #0xa90
    d018:	f9400295 	ldr	x21, [x20]
    d01c:	aa1503e0 	mov	x0, x21
    d020:	97ffdb00 	bl	3c20 <strcmp@plt>
    d024:	34000180 	cbz	w0, d054 <_obstack_memory_used@@Base+0x214>
    d028:	f94013f5 	ldr	x21, [sp, #32]
    d02c:	2a1303e0 	mov	w0, w19
    d030:	a94153f3 	ldp	x19, x20, [sp, #16]
    d034:	a8c37bfd 	ldp	x29, x30, [sp], #48
    d038:	d50323bf 	autiasp
    d03c:	d65f03c0 	ret
    d040:	97ffdb70 	bl	3e00 <__errno_location@plt>
    d044:	12800013 	mov	w19, #0xffffffff            	// #-1
    d048:	52800be1 	mov	w1, #0x5f                  	// #95
    d04c:	b9000001 	str	w1, [x0]
    d050:	17ffffe9 	b	cff4 <_obstack_memory_used@@Base+0x1b4>
    d054:	aa1503e0 	mov	x0, x21
    d058:	97ffda6a 	bl	3a00 <freecon@plt>
    d05c:	f900029f 	str	xzr, [x20]
    d060:	12800013 	mov	w19, #0xffffffff            	// #-1
    d064:	97ffdb67 	bl	3e00 <__errno_location@plt>
    d068:	f94013f5 	ldr	x21, [sp, #32]
    d06c:	528007a1 	mov	w1, #0x3d                  	// #61
    d070:	b9000001 	str	w1, [x0]
    d074:	17ffffe0 	b	cff4 <_obstack_memory_used@@Base+0x1b4>
    d078:	d503201f 	nop
    d07c:	d503201f 	nop
    d080:	d503233f 	paciasp
    d084:	a9bc7bfd 	stp	x29, x30, [sp, #-64]!
    d088:	910003fd 	mov	x29, sp
    d08c:	a9025bf5 	stp	x21, x22, [sp, #32]
    d090:	f9401835 	ldr	x21, [x1, #48]
    d094:	b40005b5 	cbz	x21, d148 <_obstack_memory_used@@Base+0x308>
    d098:	a90153f3 	stp	x19, x20, [sp, #16]
    d09c:	aa0103f6 	mov	x22, x1
    d0a0:	aa0003f4 	mov	x20, x0
    d0a4:	eb15003f 	cmp	x1, x21
    d0a8:	54000088 	b.hi	d0b8 <_obstack_memory_used@@Base+0x278>  // b.pmore
    d0ac:	9100e020 	add	x0, x1, #0x38
    d0b0:	eb0002bf 	cmp	x21, x0
    d0b4:	540005e3 	b.cc	d170 <_obstack_memory_used@@Base+0x330>  // b.lo, b.ul, b.last
    d0b8:	394002a0 	ldrb	w0, [x21]
    d0bc:	91002693 	add	x19, x20, #0x9
    d0c0:	340004e0 	cbz	w0, d15c <_obstack_memory_used@@Base+0x31c>
    d0c4:	d503201f 	nop
    d0c8:	aa1503e1 	mov	x1, x21
    d0cc:	aa1303e0 	mov	x0, x19
    d0d0:	97ffdad4 	bl	3c20 <strcmp@plt>
    d0d4:	2a0003e2 	mov	w2, w0
    d0d8:	91002681 	add	x1, x20, #0x9
    d0dc:	aa1303e0 	mov	x0, x19
    d0e0:	34000302 	cbz	w2, d140 <_obstack_memory_used@@Base+0x300>
    d0e4:	39400262 	ldrb	w2, [x19]
    d0e8:	350000a2 	cbnz	w2, d0fc <_obstack_memory_used@@Base+0x2bc>
    d0ec:	eb01027f 	cmp	x19, x1
    d0f0:	54000441 	b.ne	d178 <_obstack_memory_used@@Base+0x338>  // b.any
    d0f4:	39402281 	ldrb	w1, [x20, #8]
    d0f8:	34000401 	cbz	w1, d178 <_obstack_memory_used@@Base+0x338>
    d0fc:	97ffd9c1 	bl	3800 <strlen@plt>
    d100:	91000400 	add	x0, x0, #0x1
    d104:	8b000273 	add	x19, x19, x0
    d108:	39400260 	ldrb	w0, [x19]
    d10c:	35fffde0 	cbnz	w0, d0c8 <_obstack_memory_used@@Base+0x288>
    d110:	f9400280 	ldr	x0, [x20]
    d114:	b4fffda0 	cbz	x0, d0c8 <_obstack_memory_used@@Base+0x288>
    d118:	91002413 	add	x19, x0, #0x9
    d11c:	aa0003f4 	mov	x20, x0
    d120:	aa1503e1 	mov	x1, x21
    d124:	aa1303e0 	mov	x0, x19
    d128:	97ffdabe 	bl	3c20 <strcmp@plt>
    d12c:	2a0003e2 	mov	w2, w0
    d130:	91002681 	add	x1, x20, #0x9
    d134:	aa1303e0 	mov	x0, x19
    d138:	35fffd62 	cbnz	w2, d0e4 <_obstack_memory_used@@Base+0x2a4>
    d13c:	d503201f 	nop
    d140:	f9001ad3 	str	x19, [x22, #48]
    d144:	a94153f3 	ldp	x19, x20, [sp, #16]
    d148:	52800020 	mov	w0, #0x1                   	// #1
    d14c:	a9425bf5 	ldp	x21, x22, [sp, #32]
    d150:	a8c47bfd 	ldp	x29, x30, [sp], #64
    d154:	d50323bf 	autiasp
    d158:	d65f03c0 	ret
    d15c:	90000073 	adrp	x19, 19000 <_obstack_memory_used@@Base+0xc1c0>
    d160:	912a0273 	add	x19, x19, #0xa80
    d164:	f9001ad3 	str	x19, [x22, #48]
    d168:	a94153f3 	ldp	x19, x20, [sp, #16]
    d16c:	17fffff7 	b	d148 <_obstack_memory_used@@Base+0x308>
    d170:	a94153f3 	ldp	x19, x20, [sp, #16]
    d174:	17fffff5 	b	d148 <_obstack_memory_used@@Base+0x308>
    d178:	aa1503e0 	mov	x0, x21
    d17c:	f9001bf7 	str	x23, [sp, #48]
    d180:	97ffd9a0 	bl	3800 <strlen@plt>
    d184:	91000417 	add	x23, x0, #0x1
    d188:	91020281 	add	x1, x20, #0x80
    d18c:	cb130021 	sub	x1, x1, x19
    d190:	eb17003f 	cmp	x1, x23
    d194:	5400010d 	b.le	d1b4 <_obstack_memory_used@@Base+0x374>
    d198:	aa1703e2 	mov	x2, x23
    d19c:	aa1503e1 	mov	x1, x21
    d1a0:	aa1303e0 	mov	x0, x19
    d1a4:	97ffd983 	bl	37b0 <memcpy@plt>
    d1a8:	38376a7f 	strb	wzr, [x19, x23]
    d1ac:	f9401bf7 	ldr	x23, [sp, #48]
    d1b0:	17ffffe4 	b	d140 <_obstack_memory_used@@Base+0x300>
    d1b4:	aa1503e0 	mov	x0, x21
    d1b8:	97ffeb42 	bl	7ec0 <setlocale@plt+0x4060>
    d1bc:	f9000280 	str	x0, [x20]
    d1c0:	b40000a0 	cbz	x0, d1d4 <_obstack_memory_used@@Base+0x394>
    d1c4:	3900201f 	strb	wzr, [x0, #8]
    d1c8:	91002413 	add	x19, x0, #0x9
    d1cc:	f9401bf7 	ldr	x23, [sp, #48]
    d1d0:	17ffffdc 	b	d140 <_obstack_memory_used@@Base+0x300>
    d1d4:	a94153f3 	ldp	x19, x20, [sp, #16]
    d1d8:	52800000 	mov	w0, #0x0                   	// #0
    d1dc:	f9401bf7 	ldr	x23, [sp, #48]
    d1e0:	17ffffdb 	b	d14c <_obstack_memory_used@@Base+0x30c>
    d1e4:	d503233f 	paciasp
    d1e8:	a9bc7bfd 	stp	x29, x30, [sp, #-64]!
    d1ec:	910003fd 	mov	x29, sp
    d1f0:	a9025bf5 	stp	x21, x22, [sp, #32]
    d1f4:	d0000076 	adrp	x22, 1b000 <_obstack_memory_used@@Base+0xe1c0>
    d1f8:	f9001bf7 	str	x23, [sp, #48]
    d1fc:	912a82d7 	add	x23, x22, #0xaa0
    d200:	a90153f3 	stp	x19, x20, [sp, #16]
    d204:	aa0003f4 	mov	x20, x0
    d208:	aa1703e0 	mov	x0, x23
    d20c:	97ffdb05 	bl	3e20 <getenv@plt>
    d210:	aa0003f5 	mov	x21, x0
    d214:	b4000640 	cbz	x0, d2dc <_obstack_memory_used@@Base+0x49c>
    d218:	39402281 	ldrb	w1, [x20, #8]
    d21c:	340002e1 	cbz	w1, d278 <_obstack_memory_used@@Base+0x438>
    d220:	aa0003e1 	mov	x1, x0
    d224:	d2800033 	mov	x19, #0x1                   	// #1
    d228:	91002680 	add	x0, x20, #0x9
    d22c:	97ffda7d 	bl	3c20 <strcmp@plt>
    d230:	34000160 	cbz	w0, d25c <_obstack_memory_used@@Base+0x41c>
    d234:	aa1503e0 	mov	x0, x21
    d238:	97ffeb22 	bl	7ec0 <setlocale@plt+0x4060>
    d23c:	aa0003f3 	mov	x19, x0
    d240:	b40003e0 	cbz	x0, d2bc <_obstack_memory_used@@Base+0x47c>
    d244:	91002681 	add	x1, x20, #0x9
    d248:	912a82c0 	add	x0, x22, #0xaa0
    d24c:	52800022 	mov	w2, #0x1                   	// #1
    d250:	97ffd994 	bl	38a0 <setenv@plt>
    d254:	350001e0 	cbnz	w0, d290 <_obstack_memory_used@@Base+0x450>
    d258:	97ffd9f2 	bl	3a20 <tzset@plt>
    d25c:	a9425bf5 	ldp	x21, x22, [sp, #32]
    d260:	aa1303e0 	mov	x0, x19
    d264:	a94153f3 	ldp	x19, x20, [sp, #16]
    d268:	f9401bf7 	ldr	x23, [sp, #48]
    d26c:	a8c47bfd 	ldp	x29, x30, [sp], #64
    d270:	d50323bf 	autiasp
    d274:	d65f03c0 	ret
    d278:	97ffeb12 	bl	7ec0 <setlocale@plt+0x4060>
    d27c:	aa0003f3 	mov	x19, x0
    d280:	b40001e0 	cbz	x0, d2bc <_obstack_memory_used@@Base+0x47c>
    d284:	aa1703e0 	mov	x0, x23
    d288:	97ffda9e 	bl	3d00 <unsetenv@plt>
    d28c:	34fffe60 	cbz	w0, d258 <_obstack_memory_used@@Base+0x418>
    d290:	97ffdadc 	bl	3e00 <__errno_location@plt>
    d294:	b9400015 	ldr	w21, [x0]
    d298:	aa0003f4 	mov	x20, x0
    d29c:	f100067f 	cmp	x19, #0x1
    d2a0:	540000c0 	b.eq	d2b8 <_obstack_memory_used@@Base+0x478>  // b.none
    d2a4:	d503201f 	nop
    d2a8:	aa1303e0 	mov	x0, x19
    d2ac:	f9400273 	ldr	x19, [x19]
    d2b0:	97ffda6c 	bl	3c60 <free@plt>
    d2b4:	b5ffffb3 	cbnz	x19, d2a8 <_obstack_memory_used@@Base+0x468>
    d2b8:	b9000295 	str	w21, [x20]
    d2bc:	d2800013 	mov	x19, #0x0                   	// #0
    d2c0:	aa1303e0 	mov	x0, x19
    d2c4:	a94153f3 	ldp	x19, x20, [sp, #16]
    d2c8:	a9425bf5 	ldp	x21, x22, [sp, #32]
    d2cc:	f9401bf7 	ldr	x23, [sp, #48]
    d2d0:	a8c47bfd 	ldp	x29, x30, [sp], #64
    d2d4:	d50323bf 	autiasp
    d2d8:	d65f03c0 	ret
    d2dc:	39402280 	ldrb	w0, [x20, #8]
    d2e0:	d2800033 	mov	x19, #0x1                   	// #1
    d2e4:	35fffa80 	cbnz	w0, d234 <_obstack_memory_used@@Base+0x3f4>
    d2e8:	a9425bf5 	ldp	x21, x22, [sp, #32]
    d2ec:	aa1303e0 	mov	x0, x19
    d2f0:	a94153f3 	ldp	x19, x20, [sp, #16]
    d2f4:	f9401bf7 	ldr	x23, [sp, #48]
    d2f8:	a8c47bfd 	ldp	x29, x30, [sp], #64
    d2fc:	d50323bf 	autiasp
    d300:	d65f03c0 	ret
    d304:	d503233f 	paciasp
    d308:	a9bd7bfd 	stp	x29, x30, [sp, #-48]!
    d30c:	910003fd 	mov	x29, sp
    d310:	a90153f3 	stp	x19, x20, [sp, #16]
    d314:	aa0003f3 	mov	x19, x0
    d318:	a9025bf5 	stp	x21, x22, [sp, #32]
    d31c:	97ffdab9 	bl	3e00 <__errno_location@plt>
    d320:	39402261 	ldrb	w1, [x19, #8]
    d324:	b9400015 	ldr	w21, [x0]
    d328:	aa0003f4 	mov	x20, x0
    d32c:	d0000060 	adrp	x0, 1b000 <_obstack_memory_used@@Base+0xe1c0>
    d330:	35000221 	cbnz	w1, d374 <_obstack_memory_used@@Base+0x534>
    d334:	912a8000 	add	x0, x0, #0xaa0
    d338:	97ffda72 	bl	3d00 <unsetenv@plt>
    d33c:	34000260 	cbz	w0, d388 <_obstack_memory_used@@Base+0x548>
    d340:	b9400295 	ldr	w21, [x20]
    d344:	52800016 	mov	w22, #0x0                   	// #0
    d348:	aa1303e0 	mov	x0, x19
    d34c:	f9400273 	ldr	x19, [x19]
    d350:	97ffda44 	bl	3c60 <free@plt>
    d354:	b5ffffb3 	cbnz	x19, d348 <_obstack_memory_used@@Base+0x508>
    d358:	b9000295 	str	w21, [x20]
    d35c:	2a1603e0 	mov	w0, w22
    d360:	a94153f3 	ldp	x19, x20, [sp, #16]
    d364:	a9425bf5 	ldp	x21, x22, [sp, #32]
    d368:	a8c37bfd 	ldp	x29, x30, [sp], #48
    d36c:	d50323bf 	autiasp
    d370:	d65f03c0 	ret
    d374:	912a8000 	add	x0, x0, #0xaa0
    d378:	91002661 	add	x1, x19, #0x9
    d37c:	52800022 	mov	w2, #0x1                   	// #1
    d380:	97ffd948 	bl	38a0 <setenv@plt>
    d384:	35fffde0 	cbnz	w0, d340 <_obstack_memory_used@@Base+0x500>
    d388:	52800036 	mov	w22, #0x1                   	// #1
    d38c:	97ffd9a5 	bl	3a20 <tzset@plt>
    d390:	17ffffee 	b	d348 <_obstack_memory_used@@Base+0x508>
    d394:	d503233f 	paciasp
    d398:	a9bd7bfd 	stp	x29, x30, [sp, #-48]!
    d39c:	910003fd 	mov	x29, sp
    d3a0:	a90153f3 	stp	x19, x20, [sp, #16]
    d3a4:	aa0203f3 	mov	x19, x2
    d3a8:	a9025bf5 	stp	x21, x22, [sp, #32]
    d3ac:	aa0103f6 	mov	x22, x1
    d3b0:	b4000440 	cbz	x0, d438 <_obstack_memory_used@@Base+0x5f8>
    d3b4:	aa0003f4 	mov	x20, x0
    d3b8:	97ffff8b 	bl	d1e4 <_obstack_memory_used@@Base+0x3a4>
    d3bc:	aa0003f5 	mov	x21, x0
    d3c0:	b4000300 	cbz	x0, d420 <_obstack_memory_used@@Base+0x5e0>
    d3c4:	aa1603e0 	mov	x0, x22
    d3c8:	aa1303e1 	mov	x1, x19
    d3cc:	97ffd931 	bl	3890 <localtime_r@plt>
    d3d0:	b4000200 	cbz	x0, d410 <_obstack_memory_used@@Base+0x5d0>
    d3d4:	aa1403e0 	mov	x0, x20
    d3d8:	aa1303e1 	mov	x1, x19
    d3dc:	97ffff29 	bl	d080 <_obstack_memory_used@@Base+0x240>
    d3e0:	36000180 	tbz	w0, #0, d410 <_obstack_memory_used@@Base+0x5d0>
    d3e4:	f10006bf 	cmp	x21, #0x1
    d3e8:	54000080 	b.eq	d3f8 <_obstack_memory_used@@Base+0x5b8>  // b.none
    d3ec:	aa1503e0 	mov	x0, x21
    d3f0:	97ffffc5 	bl	d304 <_obstack_memory_used@@Base+0x4c4>
    d3f4:	36000160 	tbz	w0, #0, d420 <_obstack_memory_used@@Base+0x5e0>
    d3f8:	a9425bf5 	ldp	x21, x22, [sp, #32]
    d3fc:	aa1303e0 	mov	x0, x19
    d400:	a94153f3 	ldp	x19, x20, [sp, #16]
    d404:	a8c37bfd 	ldp	x29, x30, [sp], #48
    d408:	d50323bf 	autiasp
    d40c:	d65f03c0 	ret
    d410:	f10006bf 	cmp	x21, #0x1
    d414:	54000060 	b.eq	d420 <_obstack_memory_used@@Base+0x5e0>  // b.none
    d418:	aa1503e0 	mov	x0, x21
    d41c:	97ffffba 	bl	d304 <_obstack_memory_used@@Base+0x4c4>
    d420:	a94153f3 	ldp	x19, x20, [sp, #16]
    d424:	d2800000 	mov	x0, #0x0                   	// #0
    d428:	a9425bf5 	ldp	x21, x22, [sp, #32]
    d42c:	a8c37bfd 	ldp	x29, x30, [sp], #48
    d430:	d50323bf 	autiasp
    d434:	d65f03c0 	ret
    d438:	a94153f3 	ldp	x19, x20, [sp, #16]
    d43c:	aa1603e0 	mov	x0, x22
    d440:	a9425bf5 	ldp	x21, x22, [sp, #32]
    d444:	aa0203e1 	mov	x1, x2
    d448:	a8c37bfd 	ldp	x29, x30, [sp], #48
    d44c:	d50323bf 	autiasp
    d450:	17ffd994 	b	3aa0 <gmtime_r@plt>
    d454:	d503233f 	paciasp
    d458:	f0000103 	adrp	x3, 30000 <_obstack_memory_used@@Base+0x231c0>
    d45c:	a9be7bfd 	stp	x29, x30, [sp, #-32]!
    d460:	91004063 	add	x3, x3, #0x10
    d464:	528000a2 	mov	w2, #0x5                   	// #5
    d468:	910003fd 	mov	x29, sp
    d46c:	f9000bf3 	str	x19, [sp, #16]
    d470:	d0000061 	adrp	x1, 1b000 <_obstack_memory_used@@Base+0xe1c0>
    d474:	b9407073 	ldr	w19, [x3, #112]
    d478:	91274021 	add	x1, x1, #0x9d0
    d47c:	d2800000 	mov	x0, #0x0                   	// #0
    d480:	97ffda38 	bl	3d60 <dcgettext@plt>
    d484:	d0000062 	adrp	x2, 1b000 <_obstack_memory_used@@Base+0xe1c0>
    d488:	aa0003e3 	mov	x3, x0
    d48c:	913a2042 	add	x2, x2, #0xe88
    d490:	2a1303e0 	mov	w0, w19
    d494:	52800001 	mov	w1, #0x0                   	// #0
    d498:	97ffd8f6 	bl	3870 <error@plt>
    d49c:	97ffd9b9 	bl	3b80 <abort@plt>
    d4a0:	d503233f 	paciasp
    d4a4:	a9be7bfd 	stp	x29, x30, [sp, #-32]!
    d4a8:	910003fd 	mov	x29, sp
    d4ac:	f9000bf3 	str	x19, [sp, #16]
    d4b0:	aa0003f3 	mov	x19, x0
    d4b4:	d2800200 	mov	x0, #0x10                  	// #16
    d4b8:	97ffd94e 	bl	39f0 <malloc@plt>
    d4bc:	b4000140 	cbz	x0, d4e4 <_obstack_memory_used@@Base+0x6a4>
    d4c0:	f0000101 	adrp	x1, 30000 <_obstack_memory_used@@Base+0x231c0>
    d4c4:	910ac021 	add	x1, x1, #0x2b0
    d4c8:	f946bc22 	ldr	x2, [x1, #3448]
    d4cc:	a9000813 	stp	x19, x2, [x0]
    d4d0:	f9400bf3 	ldr	x19, [sp, #16]
    d4d4:	f906bc20 	str	x0, [x1, #3448]
    d4d8:	a8c27bfd 	ldp	x29, x30, [sp], #32
    d4dc:	d50323bf 	autiasp
    d4e0:	d65f03c0 	ret
    d4e4:	97ffffdc 	bl	d454 <_obstack_memory_used@@Base+0x614>
    d4e8:	d503201f 	nop
    d4ec:	d503201f 	nop
    d4f0:	d503233f 	paciasp
    d4f4:	a9bc7bfd 	stp	x29, x30, [sp, #-64]!
    d4f8:	910003fd 	mov	x29, sp
    d4fc:	a90153f3 	stp	x19, x20, [sp, #16]
    d500:	f0000113 	adrp	x19, 30000 <_obstack_memory_used@@Base+0x231c0>
    d504:	910ac273 	add	x19, x19, #0x2b0
    d508:	a9025bf5 	stp	x21, x22, [sp, #32]
    d50c:	f9461a75 	ldr	x21, [x19, #3120]
    d510:	a90363f7 	stp	x23, x24, [sp, #48]
    d514:	f946c260 	ldr	x0, [x19, #3456]
    d518:	8b5506a1 	add	x1, x21, x21, lsr #1
    d51c:	eb00003f 	cmp	x1, x0
    d520:	54000189 	b.ls	d550 <_obstack_memory_used@@Base+0x710>  // b.plast
    d524:	f9461e60 	ldr	x0, [x19, #3128]
    d528:	97ffd9ce 	bl	3c60 <free@plt>
    d52c:	aa1503e1 	mov	x1, x21
    d530:	d2800302 	mov	x2, #0x18                  	// #24
    d534:	d2800000 	mov	x0, #0x0                   	// #0
    d538:	97ffd8de 	bl	38b0 <reallocarray@plt>
    d53c:	b4000f60 	cbz	x0, d728 <_obstack_memory_used@@Base+0x8e8>
    d540:	f9461a75 	ldr	x21, [x19, #3120]
    d544:	f9061e60 	str	x0, [x19, #3128]
    d548:	8b1506a0 	add	x0, x21, x21, lsl #1
    d54c:	f906c260 	str	x0, [x19, #3456]
    d550:	f0000103 	adrp	x3, 30000 <_obstack_memory_used@@Base+0x231c0>
    d554:	910ac063 	add	x3, x3, #0x2b0
    d558:	b94c8c77 	ldr	w23, [x3, #3212]
    d55c:	b4000f15 	cbz	x21, d73c <_obstack_memory_used@@Base+0x8fc>
    d560:	f9461c76 	ldr	x22, [x3, #3128]
    d564:	d2800002 	mov	x2, #0x0                   	// #0
    d568:	aa1603e1 	mov	x1, x22
    d56c:	8b150ec4 	add	x4, x22, x21, lsl #3
    d570:	f946c460 	ldr	x0, [x3, #3464]
    d574:	8b020000 	add	x0, x0, x2
    d578:	f8008420 	str	x0, [x1], #8
    d57c:	91030042 	add	x2, x2, #0xc0
    d580:	eb04003f 	cmp	x1, x4
    d584:	54ffff61 	b.ne	d570 <_obstack_memory_used@@Base+0x730>  // b.any
    d588:	71000aff 	cmp	w23, #0x2
    d58c:	54000720 	b.eq	d670 <_obstack_memory_used@@Base+0x830>  // b.none
    d590:	f946b860 	ldr	x0, [x3, #3440]
    d594:	b40000a0 	cbz	x0, d5a8 <_obstack_memory_used@@Base+0x768>
    d598:	b94c7c60 	ldr	w0, [x3, #3196]
    d59c:	51000800 	sub	w0, w0, #0x2
    d5a0:	7100041f 	cmp	w0, #0x1
    d5a4:	54000649 	b.ls	d66c <_obstack_memory_used@@Base+0x82c>  // b.plast
    d5a8:	71001aff 	cmp	w23, #0x6
    d5ac:	54000540 	b.eq	d654 <_obstack_memory_used@@Base+0x814>  // b.none
    d5b0:	f0000100 	adrp	x0, 30000 <_obstack_memory_used@@Base+0x231c0>
    d5b4:	910ac000 	add	x0, x0, #0x2b0
    d5b8:	91364000 	add	x0, x0, #0xd90
    d5bc:	97ffd8a1 	bl	3840 <_setjmp@plt>
    d5c0:	d503249f 	bti	j
    d5c4:	f0000104 	adrp	x4, 30000 <_obstack_memory_used@@Base+0x231c0>
    d5c8:	910ac084 	add	x4, x4, #0x2b0
    d5cc:	b94c8c85 	ldr	w5, [x4, #3212]
    d5d0:	34000700 	cbz	w0, d6b0 <_obstack_memory_used@@Base+0x870>
    d5d4:	710010bf 	cmp	w5, #0x4
    d5d8:	54000b80 	b.eq	d748 <_obstack_memory_used@@Base+0x908>  // b.none
    d5dc:	f9461881 	ldr	x1, [x4, #3120]
    d5e0:	f9461c93 	ldr	x19, [x4, #3128]
    d5e4:	b4000a41 	cbz	x1, d72c <_obstack_memory_used@@Base+0x8ec>
    d5e8:	aa1303e3 	mov	x3, x19
    d5ec:	8b010e66 	add	x6, x19, x1, lsl #3
    d5f0:	d2800002 	mov	x2, #0x0                   	// #0
    d5f4:	d503201f 	nop
    d5f8:	f946c480 	ldr	x0, [x4, #3464]
    d5fc:	8b020000 	add	x0, x0, x2
    d600:	f8008460 	str	x0, [x3], #8
    d604:	91030042 	add	x2, x2, #0xc0
    d608:	eb06007f 	cmp	x3, x6
    d60c:	54ffff61 	b.ne	d5f8 <_obstack_memory_used@@Base+0x7b8>  // b.any
    d610:	52800020 	mov	w0, #0x1                   	// #1
    d614:	710014bf 	cmp	w5, #0x5
    d618:	54000540 	b.eq	d6c0 <_obstack_memory_used@@Base+0x880>  // b.none
    d61c:	f0000102 	adrp	x2, 30000 <_obstack_memory_used@@Base+0x231c0>
    d620:	910ac042 	add	x2, x2, #0x2b0
    d624:	d37f7ca5 	ubfiz	x5, x5, #1, #32
    d628:	b0000103 	adrp	x3, 2e000 <_obstack_memory_used@@Base+0x211c0>
    d62c:	8b20c0a0 	add	x0, x5, w0, sxtw
    d630:	913d0063 	add	x3, x3, #0xf40
    d634:	397b2444 	ldrb	w4, [x2, #3785]
    d638:	397b2042 	ldrb	w2, [x2, #3784]
    d63c:	8b000480 	add	x0, x4, x0, lsl #1
    d640:	8b000440 	add	x0, x2, x0, lsl #1
    d644:	f8607863 	ldr	x3, [x3, x0, lsl #3]
    d648:	f100083f 	cmp	x1, #0x2
    d64c:	54000428 	b.hi	d6d0 <_obstack_memory_used@@Base+0x890>  // b.pmore
    d650:	54000520 	b.eq	d6f4 <_obstack_memory_used@@Base+0x8b4>  // b.none
    d654:	a94153f3 	ldp	x19, x20, [sp, #16]
    d658:	a9425bf5 	ldp	x21, x22, [sp, #32]
    d65c:	a94363f7 	ldp	x23, x24, [sp, #48]
    d660:	a8c47bfd 	ldp	x29, x30, [sp], #64
    d664:	d50323bf 	autiasp
    d668:	d65f03c0 	ret
    d66c:	f9461c76 	ldr	x22, [x3, #3128]
    d670:	f0000118 	adrp	x24, 30000 <_obstack_memory_used@@Base+0x231c0>
    d674:	d2800013 	mov	x19, #0x0                   	// #0
    d678:	910ac318 	add	x24, x24, #0x2b0
    d67c:	14000005 	b	d690 <_obstack_memory_used@@Base+0x850>
    d680:	91000673 	add	x19, x19, #0x1
    d684:	f9005e80 	str	x0, [x20, #184]
    d688:	eb15027f 	cmp	x19, x21
    d68c:	54fff8e2 	b.cs	d5a8 <_obstack_memory_used@@Base+0x768>  // b.hs, b.nlast
    d690:	f8737ad4 	ldr	x20, [x22, x19, lsl #3]
    d694:	f9405e80 	ldr	x0, [x20, #184]
    d698:	b5ffff40 	cbnz	x0, d680 <_obstack_memory_used@@Base+0x840>
    d69c:	f9400280 	ldr	x0, [x20]
    d6a0:	f9463b01 	ldr	x1, [x24, #3184]
    d6a4:	b940b682 	ldr	w2, [x20, #180]
    d6a8:	97fff2a2 	bl	a130 <setlocale@plt+0x62d0>
    d6ac:	17fffff5 	b	d680 <_obstack_memory_used@@Base+0x840>
    d6b0:	f9461881 	ldr	x1, [x4, #3120]
    d6b4:	f9461c93 	ldr	x19, [x4, #3128]
    d6b8:	710014bf 	cmp	w5, #0x5
    d6bc:	54fffb01 	b.ne	d61c <_obstack_memory_used@@Base+0x7dc>  // b.any
    d6c0:	f0000102 	adrp	x2, 30000 <_obstack_memory_used@@Base+0x231c0>
    d6c4:	b94f3445 	ldr	w5, [x2, #3892]
    d6c8:	110014a5 	add	w5, w5, #0x5
    d6cc:	17ffffd4 	b	d61c <_obstack_memory_used@@Base+0x7dc>
    d6d0:	8b010e62 	add	x2, x19, x1, lsl #3
    d6d4:	aa1303e0 	mov	x0, x19
    d6d8:	97ffe952 	bl	7c20 <setlocale@plt+0x3dc0>
    d6dc:	a94153f3 	ldp	x19, x20, [sp, #16]
    d6e0:	a9425bf5 	ldp	x21, x22, [sp, #32]
    d6e4:	a94363f7 	ldp	x23, x24, [sp, #48]
    d6e8:	a8c47bfd 	ldp	x29, x30, [sp], #64
    d6ec:	d50323bf 	autiasp
    d6f0:	d65f03c0 	ret
    d6f4:	a9405674 	ldp	x20, x21, [x19]
    d6f8:	aa1403e0 	mov	x0, x20
    d6fc:	aa1503e1 	mov	x1, x21
    d700:	d63f0060 	blr	x3
    d704:	7100001f 	cmp	w0, #0x0
    d708:	54fffa6d 	b.le	d654 <_obstack_memory_used@@Base+0x814>
    d70c:	a9005275 	stp	x21, x20, [x19]
    d710:	a94153f3 	ldp	x19, x20, [sp, #16]
    d714:	a9425bf5 	ldp	x21, x22, [sp, #32]
    d718:	a94363f7 	ldp	x23, x24, [sp, #48]
    d71c:	a8c47bfd 	ldp	x29, x30, [sp], #64
    d720:	d50323bf 	autiasp
    d724:	d65f03c0 	ret
    d728:	97ffff4b 	bl	d454 <_obstack_memory_used@@Base+0x614>
    d72c:	710014bf 	cmp	w5, #0x5
    d730:	54fff921 	b.ne	d654 <_obstack_memory_used@@Base+0x814>  // b.any
    d734:	52800020 	mov	w0, #0x1                   	// #1
    d738:	17ffffe2 	b	d6c0 <_obstack_memory_used@@Base+0x880>
    d73c:	71000aff 	cmp	w23, #0x2
    d740:	54fff341 	b.ne	d5a8 <_obstack_memory_used@@Base+0x768>  // b.any
    d744:	17ffff9b 	b	d5b0 <_obstack_memory_used@@Base+0x770>
    d748:	f0000043 	adrp	x3, 18000 <_obstack_memory_used@@Base+0xb1c0>
    d74c:	910a0063 	add	x3, x3, #0x280
    d750:	d0000061 	adrp	x1, 1b000 <_obstack_memory_used@@Base+0xe1c0>
    d754:	d0000060 	adrp	x0, 1b000 <_obstack_memory_used@@Base+0xe1c0>
    d758:	9101a063 	add	x3, x3, #0x68
    d75c:	912aa021 	add	x1, x1, #0xaa8
    d760:	912ae000 	add	x0, x0, #0xab8
    d764:	52820242 	mov	w2, #0x1012                	// #4114
    d768:	97ffd9a2 	bl	3df0 <__assert_fail@plt>
    d76c:	d503201f 	nop
    d770:	d503233f 	paciasp
    d774:	a9ba7bfd 	stp	x29, x30, [sp, #-96]!
    d778:	910003fd 	mov	x29, sp
    d77c:	a90363f7 	stp	x23, x24, [sp, #48]
    d780:	aa0003f7 	mov	x23, x0
    d784:	a9046bf9 	stp	x25, x26, [sp, #64]
    d788:	12001c3a 	and	w26, w1, #0xff
    d78c:	97ffd81d 	bl	3800 <strlen@plt>
    d790:	91000418 	add	x24, x0, #0x1
    d794:	d2800061 	mov	x1, #0x3                   	// #3
    d798:	aa1803e2 	mov	x2, x24
    d79c:	d2800000 	mov	x0, #0x0                   	// #0
    d7a0:	97ffd844 	bl	38b0 <reallocarray@plt>
    d7a4:	b4000860 	cbz	x0, d8b0 <_obstack_memory_used@@Base+0xa70>
    d7a8:	a9025bf5 	stp	x21, x22, [sp, #32]
    d7ac:	aa0003f5 	mov	x21, x0
    d7b0:	f9002bfb 	str	x27, [sp, #80]
    d7b4:	aa0003fb 	mov	x27, x0
    d7b8:	394002e4 	ldrb	w4, [x23]
    d7bc:	34000564 	cbz	w4, d868 <_obstack_memory_used@@Base+0xa28>
    d7c0:	8b180718 	add	x24, x24, x24, lsl #1
    d7c4:	f0000119 	adrp	x25, 30000 <_obstack_memory_used@@Base+0x231c0>
    d7c8:	910ac339 	add	x25, x25, #0x2b0
    d7cc:	a90153f3 	stp	x19, x20, [sp, #16]
    d7d0:	913b4339 	add	x25, x25, #0xed0
    d7d4:	d0000074 	adrp	x20, 1b000 <_obstack_memory_used@@Base+0xe1c0>
    d7d8:	aa1803f3 	mov	x19, x24
    d7dc:	912b6294 	add	x20, x20, #0xad8
    d7e0:	1400000a 	b	d808 <_obstack_memory_used@@Base+0x9c8>
    d7e4:	cb1302d3 	sub	x19, x22, x19
    d7e8:	380016a4 	strb	w4, [x21], #1
    d7ec:	91000673 	add	x19, x19, #0x1
    d7f0:	eb16027f 	cmp	x19, x22
    d7f4:	9a962273 	csel	x19, x19, x22, cs	// cs = hs, nlast
    d7f8:	cb160273 	sub	x19, x19, x22
    d7fc:	8b010273 	add	x19, x19, x1
    d800:	394002e4 	ldrb	w4, [x23]
    d804:	34000304 	cbz	w4, d864 <_obstack_memory_used@@Base+0xa24>
    d808:	eb13031f 	cmp	x24, x19
    d80c:	910006f7 	add	x23, x23, #0x1
    d810:	9a932316 	csel	x22, x24, x19, cs	// cs = hs, nlast
    d814:	7100bc9f 	cmp	w4, #0x2f
    d818:	7a400b44 	ccmp	w26, #0x0, #0x4, eq	// eq = none
    d81c:	d1000661 	sub	x1, x19, #0x1
    d820:	54000361 	b.ne	d88c <_obstack_memory_used@@Base+0xa4c>  // b.any
    d824:	3864cb20 	ldrb	w0, [x25, w4, sxtw]
    d828:	35fffde0 	cbnz	w0, d7e4 <_obstack_memory_used@@Base+0x9a4>
    d82c:	aa1303e2 	mov	x2, x19
    d830:	aa1503e0 	mov	x0, x21
    d834:	52800041 	mov	w1, #0x2                   	// #2
    d838:	aa1403e3 	mov	x3, x20
    d83c:	97ffd7f5 	bl	3810 <__sprintf_chk@plt>
    d840:	91000eb5 	add	x21, x21, #0x3
    d844:	91000ec1 	add	x1, x22, #0x3
    d848:	394002e4 	ldrb	w4, [x23]
    d84c:	cb130020 	sub	x0, x1, x19
    d850:	cb010273 	sub	x19, x19, x1
    d854:	eb16001f 	cmp	x0, x22
    d858:	9a962000 	csel	x0, x0, x22, cs	// cs = hs, nlast
    d85c:	8b130013 	add	x19, x0, x19
    d860:	35fffd44 	cbnz	w4, d808 <_obstack_memory_used@@Base+0x9c8>
    d864:	a94153f3 	ldp	x19, x20, [sp, #16]
    d868:	390002bf 	strb	wzr, [x21]
    d86c:	aa1b03e0 	mov	x0, x27
    d870:	a9425bf5 	ldp	x21, x22, [sp, #32]
    d874:	a94363f7 	ldp	x23, x24, [sp, #48]
    d878:	a9446bf9 	ldp	x25, x26, [sp, #64]
    d87c:	f9402bfb 	ldr	x27, [sp, #80]
    d880:	a8c67bfd 	ldp	x29, x30, [sp], #96
    d884:	d50323bf 	autiasp
    d888:	d65f03c0 	ret
    d88c:	cb1302d3 	sub	x19, x22, x19
    d890:	528005e0 	mov	w0, #0x2f                  	// #47
    d894:	91000673 	add	x19, x19, #0x1
    d898:	380016a0 	strb	w0, [x21], #1
    d89c:	eb16027f 	cmp	x19, x22
    d8a0:	9a962273 	csel	x19, x19, x22, cs	// cs = hs, nlast
    d8a4:	cb160273 	sub	x19, x19, x22
    d8a8:	8b010273 	add	x19, x19, x1
    d8ac:	17ffffd5 	b	d800 <_obstack_memory_used@@Base+0x9c0>
    d8b0:	a90153f3 	stp	x19, x20, [sp, #16]
    d8b4:	a9025bf5 	stp	x21, x22, [sp, #32]
    d8b8:	f9002bfb 	str	x27, [sp, #80]
    d8bc:	97fffee6 	bl	d454 <_obstack_memory_used@@Base+0x614>
    d8c0:	d503233f 	paciasp
    d8c4:	a9ba7bfd 	stp	x29, x30, [sp, #-96]!
    d8c8:	d284080d 	mov	x13, #0x2040                	// #8256
    d8cc:	910003fd 	mov	x29, sp
    d8d0:	a90153f3 	stp	x19, x20, [sp, #16]
    d8d4:	a9025bf5 	stp	x21, x22, [sp, #32]
    d8d8:	a90363f7 	stp	x23, x24, [sp, #48]
    d8dc:	a9046bf9 	stp	x25, x26, [sp, #64]
    d8e0:	a90573fb 	stp	x27, x28, [sp, #80]
    d8e4:	cb2d63ff 	sub	sp, sp, x13
    d8e8:	f90203ff 	str	xzr, [sp, #1024]
    d8ec:	d0000107 	adrp	x7, 2f000 <_obstack_memory_used@@Base+0x221c0>
    d8f0:	f947e8e7 	ldr	x7, [x7, #4048]
    d8f4:	aa0003f7 	mov	x23, x0
    d8f8:	2a0203e0 	mov	w0, w2
    d8fc:	aa0303fb 	mov	x27, x3
    d900:	2a0003e3 	mov	w3, w0
    d904:	f94000e0 	ldr	x0, [x7]
    d908:	f9101fe0 	str	x0, [sp, #8248]
    d90c:	d2800000 	mov	x0, #0x0                   	// #0
    d910:	aa0103e2 	mov	x2, x1
    d914:	12001c93 	and	w19, w4, #0xff
    d918:	aa0503f8 	mov	x24, x5
    d91c:	aa0603f5 	mov	x21, x6
    d920:	aa1703e1 	mov	x1, x23
    d924:	9100e3fa 	add	x26, sp, #0x38
    d928:	9100bfe5 	add	x5, sp, #0x2f
    d92c:	9100c3e0 	add	x0, sp, #0x30
    d930:	d2800004 	mov	x4, #0x0                   	// #0
    d934:	f9001bfa 	str	x26, [sp, #48]
    d938:	940014ba 	bl	12c20 <_obstack_memory_used@@Base+0x5de0>
    d93c:	3940bff6 	ldrb	w22, [sp, #47]
    d940:	aa0003f4 	mov	x20, x0
    d944:	710002df 	cmp	w22, #0x0
    d948:	7a401a64 	ccmp	w19, #0x0, #0x4, ne	// ne = any
    d94c:	540012c1 	b.ne	dba4 <_obstack_memory_used@@Base+0xd64>  // b.any
    d950:	d0000119 	adrp	x25, 2f000 <_obstack_memory_used@@Base+0x221c0>
    d954:	f947e339 	ldr	x25, [x25, #4032]
    d958:	f0000113 	adrp	x19, 30000 <_obstack_memory_used@@Base+0x231c0>
    d95c:	b40001bb 	cbz	x27, d990 <_obstack_memory_used@@Base+0xb50>
    d960:	52800080 	mov	w0, #0x4                   	// #4
    d964:	f000011c 	adrp	x28, 30000 <_obstack_memory_used@@Base+0x231c0>
    d968:	97fff4ce 	bl	aca0 <setlocale@plt+0x6e40>
    d96c:	37000fc0 	tbnz	w0, #0, db64 <_obstack_memory_used@@Base+0xd24>
    d970:	9103839c 	add	x28, x28, #0xe0
    d974:	9100439c 	add	x28, x28, #0x10
    d978:	aa1c03e0 	mov	x0, x28
    d97c:	97fff5a1 	bl	b000 <setlocale@plt+0x71a0>
    d980:	aa1b03e0 	mov	x0, x27
    d984:	97fff59f 	bl	b000 <setlocale@plt+0x71a0>
    d988:	91004380 	add	x0, x28, #0x10
    d98c:	97fff59d 	bl	b000 <setlocale@plt+0x71a0>
    d990:	b4000e35 	cbz	x21, db54 <_obstack_memory_used@@Base+0xd14>
    d994:	910ac260 	add	x0, x19, #0x2b0
    d998:	397f401b 	ldrb	w27, [x0, #4048]
    d99c:	3600013b 	tbz	w27, #0, d9c0 <_obstack_memory_used@@Base+0xb80>
    d9a0:	39710000 	ldrb	w0, [x0, #3136]
    d9a4:	52000000 	eor	w0, w0, #0x1
    d9a8:	2a0002c0 	orr	w0, w22, w0
    d9ac:	360011c0 	tbz	w0, #0, dbe4 <_obstack_memory_used@@Base+0xda4>
    d9b0:	d280001c 	mov	x28, #0x0                   	// #0
    d9b4:	5280001b 	mov	w27, #0x0                   	// #0
    d9b8:	f9000bf4 	str	x20, [sp, #16]
    d9bc:	14000003 	b	d9c8 <_obstack_memory_used@@Base+0xb88>
    d9c0:	d280001c 	mov	x28, #0x0                   	// #0
    d9c4:	f9000bf4 	str	x20, [sp, #16]
    d9c8:	910ac260 	add	x0, x19, #0x2b0
    d9cc:	52800001 	mov	w1, #0x0                   	// #0
    d9d0:	f947ec00 	ldr	x0, [x0, #4056]
    d9d4:	97ffff67 	bl	d770 <_obstack_memory_used@@Base+0x930>
    d9d8:	f90007e0 	str	x0, [sp, #8]
    d9dc:	52800021 	mov	w1, #0x1                   	// #1
    d9e0:	aa1503e0 	mov	x0, x21
    d9e4:	97ffff63 	bl	d770 <_obstack_memory_used@@Base+0x930>
    d9e8:	39400006 	ldrb	w6, [x0]
    d9ec:	f94007e2 	ldr	x2, [sp, #8]
    d9f0:	7100bcdf 	cmp	w6, #0x2f
    d9f4:	90000065 	adrp	x5, 19000 <_obstack_memory_used@@Base+0xc1c0>
    d9f8:	912a00a5 	add	x5, x5, #0xa80
    d9fc:	f0000063 	adrp	x3, 1c000 <_obstack_memory_used@@Base+0xf1c0>
    da00:	9105a063 	add	x3, x3, #0x168
    da04:	aa0003e4 	mov	x4, x0
    da08:	9a851063 	csel	x3, x3, x5, ne	// ne = any
    da0c:	d0000061 	adrp	x1, 1b000 <_obstack_memory_used@@Base+0xe1c0>
    da10:	52800040 	mov	w0, #0x2                   	// #2
    da14:	912b8021 	add	x1, x1, #0xae0
    da18:	f9000fe4 	str	x4, [sp, #24]
    da1c:	97ffd819 	bl	3a80 <__printf_chk@plt>
    da20:	f94007e0 	ldr	x0, [sp, #8]
    da24:	97ffd88f 	bl	3c60 <free@plt>
    da28:	f9400fe4 	ldr	x4, [sp, #24]
    da2c:	aa0403e0 	mov	x0, x4
    da30:	97ffd88c 	bl	3c60 <free@plt>
    da34:	b40007b8 	cbz	x24, db28 <_obstack_memory_used@@Base+0xce8>
    da38:	910ac260 	add	x0, x19, #0x2b0
    da3c:	397f8000 	ldrb	w0, [x0, #4064]
    da40:	36000060 	tbz	w0, #0, da4c <_obstack_memory_used@@Base+0xc0c>
    da44:	aa1803e0 	mov	x0, x24
    da48:	97fffca6 	bl	cce0 <_obstack_newchunk@@Base+0x160>
    da4c:	f9400323 	ldr	x3, [x25]
    da50:	910ac273 	add	x19, x19, #0x2b0
    da54:	f9400be2 	ldr	x2, [sp, #16]
    da58:	d2800021 	mov	x1, #0x1                   	// #1
    da5c:	f9401be0 	ldr	x0, [sp, #48]
    da60:	8b1c0000 	add	x0, x0, x28
    da64:	97ffd763 	bl	37f0 <fwrite_unlocked@plt>
    da68:	f9400a60 	ldr	x0, [x19, #16]
    da6c:	397f8261 	ldrb	w1, [x19, #4064]
    da70:	8b140000 	add	x0, x0, x20
    da74:	f9000a60 	str	x0, [x19, #16]
    da78:	36000061 	tbz	w1, #0, da84 <_obstack_memory_used@@Base+0xc44>
    da7c:	aa1803e0 	mov	x0, x24
    da80:	97fffc98 	bl	cce0 <_obstack_newchunk@@Base+0x160>
    da84:	b4000255 	cbz	x21, dacc <_obstack_memory_used@@Base+0xc8c>
    da88:	f9400323 	ldr	x3, [x25]
    da8c:	d0000060 	adrp	x0, 1b000 <_obstack_memory_used@@Base+0xe1c0>
    da90:	d28000c2 	mov	x2, #0x6                   	// #6
    da94:	912be000 	add	x0, x0, #0xaf8
    da98:	d2800021 	mov	x1, #0x1                   	// #1
    da9c:	97ffd755 	bl	37f0 <fwrite_unlocked@plt>
    daa0:	3600017b 	tbz	w27, #0, dacc <_obstack_memory_used@@Base+0xc8c>
    daa4:	f9400320 	ldr	x0, [x25]
    daa8:	f9401be1 	ldr	x1, [sp, #48]
    daac:	a9428c02 	ldp	x2, x3, [x0, #40]
    dab0:	8b140021 	add	x1, x1, x20
    dab4:	385ff021 	ldurb	w1, [x1, #-1]
    dab8:	eb03005f 	cmp	x2, x3
    dabc:	54000ae2 	b.cs	dc18 <_obstack_memory_used@@Base+0xdd8>  // b.hs, b.nlast
    dac0:	91000443 	add	x3, x2, #0x1
    dac4:	f9001403 	str	x3, [x0, #40]
    dac8:	39000041 	strb	w1, [x2]
    dacc:	f9401be0 	ldr	x0, [sp, #48]
    dad0:	eb17001f 	cmp	x0, x23
    dad4:	fa401344 	ccmp	x26, x0, #0x4, ne	// ne = any
    dad8:	54000040 	b.eq	dae0 <_obstack_memory_used@@Base+0xca0>  // b.none
    dadc:	97ffd861 	bl	3c60 <free@plt>
    dae0:	d0000101 	adrp	x1, 2f000 <_obstack_memory_used@@Base+0x221c0>
    dae4:	f947e821 	ldr	x1, [x1, #4048]
    dae8:	8b360280 	add	x0, x20, w22, uxtb
    daec:	f9501fe3 	ldr	x3, [sp, #8248]
    daf0:	f9400022 	ldr	x2, [x1]
    daf4:	eb020063 	subs	x3, x3, x2
    daf8:	d2800002 	mov	x2, #0x0                   	// #0
    dafc:	540009c1 	b.ne	dc34 <_obstack_memory_used@@Base+0xdf4>  // b.any
    db00:	d284080d 	mov	x13, #0x2040                	// #8256
    db04:	8b2d63ff 	add	sp, sp, x13
    db08:	a94153f3 	ldp	x19, x20, [sp, #16]
    db0c:	a9425bf5 	ldp	x21, x22, [sp, #32]
    db10:	a94363f7 	ldp	x23, x24, [sp, #48]
    db14:	a9446bf9 	ldp	x25, x26, [sp, #64]
    db18:	a94573fb 	ldp	x27, x28, [sp, #80]
    db1c:	a8c67bfd 	ldp	x29, x30, [sp], #96
    db20:	d50323bf 	autiasp
    db24:	d65f03c0 	ret
    db28:	f9400323 	ldr	x3, [x25]
    db2c:	910ac273 	add	x19, x19, #0x2b0
    db30:	f9400be2 	ldr	x2, [sp, #16]
    db34:	d2800021 	mov	x1, #0x1                   	// #1
    db38:	f9401be0 	ldr	x0, [sp, #48]
    db3c:	8b1c0000 	add	x0, x0, x28
    db40:	97ffd72c 	bl	37f0 <fwrite_unlocked@plt>
    db44:	f9400a60 	ldr	x0, [x19, #16]
    db48:	8b140000 	add	x0, x0, x20
    db4c:	f9000a60 	str	x0, [x19, #16]
    db50:	17ffffcd 	b	da84 <_obstack_memory_used@@Base+0xc44>
    db54:	d280001c 	mov	x28, #0x0                   	// #0
    db58:	5280001b 	mov	w27, #0x0                   	// #0
    db5c:	f9000bf4 	str	x20, [sp, #16]
    db60:	17ffffb5 	b	da34 <_obstack_memory_used@@Base+0xbf4>
    db64:	91038380 	add	x0, x28, #0xe0
    db68:	9103839c 	add	x28, x28, #0xe0
    db6c:	91004000 	add	x0, x0, #0x10
    db70:	f90007e0 	str	x0, [sp, #8]
    db74:	97fff523 	bl	b000 <setlocale@plt+0x71a0>
    db78:	9100439c 	add	x28, x28, #0x10
    db7c:	f94007e0 	ldr	x0, [sp, #8]
    db80:	91004000 	add	x0, x0, #0x10
    db84:	97fff51f 	bl	b000 <setlocale@plt+0x71a0>
    db88:	aa1c03e0 	mov	x0, x28
    db8c:	97fff51d 	bl	b000 <setlocale@plt+0x71a0>
    db90:	aa1b03e0 	mov	x0, x27
    db94:	97fff51b 	bl	b000 <setlocale@plt+0x71a0>
    db98:	91004380 	add	x0, x28, #0x10
    db9c:	97fff519 	bl	b000 <setlocale@plt+0x71a0>
    dba0:	17ffff7c 	b	d990 <_obstack_memory_used@@Base+0xb50>
    dba4:	d0000119 	adrp	x25, 2f000 <_obstack_memory_used@@Base+0x221c0>
    dba8:	f947e339 	ldr	x25, [x25, #4032]
    dbac:	f0000113 	adrp	x19, 30000 <_obstack_memory_used@@Base+0x231c0>
    dbb0:	910ac263 	add	x3, x19, #0x2b0
    dbb4:	f9400320 	ldr	x0, [x25]
    dbb8:	f9400861 	ldr	x1, [x3, #16]
    dbbc:	a9429002 	ldp	x2, x4, [x0, #40]
    dbc0:	91000421 	add	x1, x1, #0x1
    dbc4:	f9000861 	str	x1, [x3, #16]
    dbc8:	eb04005f 	cmp	x2, x4
    dbcc:	540002a2 	b.cs	dc20 <_obstack_memory_used@@Base+0xde0>  // b.hs, b.nlast
    dbd0:	91000441 	add	x1, x2, #0x1
    dbd4:	f9001401 	str	x1, [x0, #40]
    dbd8:	52800400 	mov	w0, #0x20                  	// #32
    dbdc:	39000040 	strb	w0, [x2]
    dbe0:	17ffff5f 	b	d95c <_obstack_memory_used@@Base+0xb1c>
    dbe4:	f9400320 	ldr	x0, [x25]
    dbe8:	f9401be1 	ldr	x1, [sp, #48]
    dbec:	a9428c02 	ldp	x2, x3, [x0, #40]
    dbf0:	39400021 	ldrb	w1, [x1]
    dbf4:	eb03005f 	cmp	x2, x3
    dbf8:	540001a2 	b.cs	dc2c <_obstack_memory_used@@Base+0xdec>  // b.hs, b.nlast
    dbfc:	91000443 	add	x3, x2, #0x1
    dc00:	f9001403 	str	x3, [x0, #40]
    dc04:	39000041 	strb	w1, [x2]
    dc08:	d1000a80 	sub	x0, x20, #0x2
    dc0c:	d280003c 	mov	x28, #0x1                   	// #1
    dc10:	f9000be0 	str	x0, [sp, #16]
    dc14:	17ffff6d 	b	d9c8 <_obstack_memory_used@@Base+0xb88>
    dc18:	97ffd7e6 	bl	3bb0 <__overflow@plt>
    dc1c:	17ffffac 	b	dacc <_obstack_memory_used@@Base+0xc8c>
    dc20:	52800401 	mov	w1, #0x20                  	// #32
    dc24:	97ffd7e3 	bl	3bb0 <__overflow@plt>
    dc28:	17ffff4d 	b	d95c <_obstack_memory_used@@Base+0xb1c>
    dc2c:	97ffd7e1 	bl	3bb0 <__overflow@plt>
    dc30:	17fffff6 	b	dc08 <_obstack_memory_used@@Base+0xdc8>
    dc34:	97ffd7b7 	bl	3b10 <__stack_chk_fail@plt>
    dc38:	d503201f 	nop
    dc3c:	d503201f 	nop
    dc40:	d503233f 	paciasp
    dc44:	a9bb7bfd 	stp	x29, x30, [sp, #-80]!
    dc48:	910003fd 	mov	x29, sp
    dc4c:	a90153f3 	stp	x19, x20, [sp, #16]
    dc50:	f0000114 	adrp	x20, 30000 <_obstack_memory_used@@Base+0x231c0>
    dc54:	910ac284 	add	x4, x20, #0x2b0
    dc58:	a9025bf5 	stp	x21, x22, [sp, #32]
    dc5c:	aa0203f5 	mov	x21, x2
    dc60:	aa0303f6 	mov	x22, x3
    dc64:	a90363f7 	stp	x23, x24, [sp, #48]
    dc68:	12001c37 	and	w23, w1, #0xff
    dc6c:	a9046bf9 	stp	x25, x26, [sp, #64]
    dc70:	aa0003f9 	mov	x25, x0
    dc74:	397f8480 	ldrb	w0, [x4, #4065]
    dc78:	360003c1 	tbz	w1, #0, dcf0 <_obstack_memory_used@@Base+0xeb0>
    dc7c:	f9400738 	ldr	x24, [x25, #8]
    dc80:	37000280 	tbnz	w0, #0, dcd0 <_obstack_memory_used@@Base+0xe90>
    dc84:	910ac294 	add	x20, x20, #0x2b0
    dc88:	b940b722 	ldr	w2, [x25, #180]
    dc8c:	f9400b26 	ldr	x6, [x25, #16]
    dc90:	aa1503e5 	mov	x5, x21
    dc94:	f9463a81 	ldr	x1, [x20, #3184]
    dc98:	520002e4 	eor	w4, w23, #0x1
    dc9c:	d2800003 	mov	x3, #0x0                   	// #0
    dca0:	aa1803e0 	mov	x0, x24
    dca4:	97ffff07 	bl	d8c0 <_obstack_memory_used@@Base+0xa80>
    dca8:	aa0003f3 	mov	x19, x0
    dcac:	97fff54d 	bl	b1e0 <setlocale@plt+0x7380>
    dcb0:	a9425bf5 	ldp	x21, x22, [sp, #32]
    dcb4:	aa1303e0 	mov	x0, x19
    dcb8:	a94153f3 	ldp	x19, x20, [sp, #16]
    dcbc:	a94363f7 	ldp	x23, x24, [sp, #48]
    dcc0:	a9446bf9 	ldp	x25, x26, [sp, #64]
    dcc4:	a8c57bfd 	ldp	x29, x30, [sp], #80
    dcc8:	d50323bf 	autiasp
    dccc:	d65f03c0 	ret
    dcd0:	3942a720 	ldrb	w0, [x25, #169]
    dcd4:	b9409f24 	ldr	w4, [x25, #156]
    dcd8:	37000900 	tbnz	w0, #0, ddf8 <_obstack_memory_used@@Base+0xfb8>
    dcdc:	52800180 	mov	w0, #0xc                   	// #12
    dce0:	97fff3f0 	bl	aca0 <setlocale@plt+0x6e40>
    dce4:	370012a0 	tbnz	w0, #0, df38 <_obstack_memory_used@@Base+0x10f8>
    dce8:	12800000 	mov	w0, #0xffffffff            	// #-1
    dcec:	14000007 	b	dd08 <_obstack_memory_used@@Base+0xec8>
    dcf0:	f9400338 	ldr	x24, [x25]
    dcf4:	3607fc80 	tbz	w0, #0, dc84 <_obstack_memory_used@@Base+0xe44>
    dcf8:	397f8881 	ldrb	w1, [x4, #4066]
    dcfc:	3942a720 	ldrb	w0, [x25, #169]
    dd00:	37000ac1 	tbnz	w1, #0, de58 <_obstack_memory_used@@Base+0x1018>
    dd04:	b9402b24 	ldr	w4, [x25, #40]
    dd08:	3942a321 	ldrb	w1, [x25, #168]
    dd0c:	370007c1 	tbnz	w1, #0, de04 <_obstack_memory_used@@Base+0xfc4>
    dd10:	b9409b22 	ldr	w2, [x25, #152]
    dd14:	f0000041 	adrp	x1, 18000 <_obstack_memory_used@@Base+0xb1c0>
    dd18:	910a0021 	add	x1, x1, #0x280
    dd1c:	91020021 	add	x1, x1, #0x80
    dd20:	b8627823 	ldr	w3, [x1, x2, lsl #2]
    dd24:	7100147f 	cmp	w3, #0x5
    dd28:	54000d60 	b.eq	ded4 <_obstack_memory_used@@Base+0x1094>  // b.none
    dd2c:	7100001f 	cmp	w0, #0x0
    dd30:	7a470860 	ccmp	w3, #0x7, #0x0, eq	// eq = none
    dd34:	d37c7c63 	ubfiz	x3, x3, #4, #32
    dd38:	54000141 	b.ne	dd60 <_obstack_memory_used@@Base+0xf20>  // b.any
    dd3c:	910ac280 	add	x0, x20, #0x2b0
    dd40:	d2801a03 	mov	x3, #0xd0                  	// #208
    dd44:	397f8800 	ldrb	w0, [x0, #4066]
    dd48:	370000c0 	tbnz	w0, #0, dd60 <_obstack_memory_used@@Base+0xf20>
    dd4c:	528001a0 	mov	w0, #0xd                   	// #13
    dd50:	97fff3d4 	bl	aca0 <setlocale@plt+0x6e40>
    dd54:	f240001f 	tst	x0, #0x1
    dd58:	d2800e01 	mov	x1, #0x70                  	// #112
    dd5c:	9a811063 	csel	x3, x3, x1, ne	// ne = any
    dd60:	f0000113 	adrp	x19, 30000 <_obstack_memory_used@@Base+0x231c0>
    dd64:	91038273 	add	x19, x19, #0xe0
    dd68:	91004273 	add	x19, x19, #0x10
    dd6c:	8b030263 	add	x3, x19, x3
    dd70:	f9400465 	ldr	x5, [x3, #8]
    dd74:	910ac280 	add	x0, x20, #0x2b0
    dd78:	f9400b26 	ldr	x6, [x25, #16]
    dd7c:	520002e4 	eor	w4, w23, #0x1
    dd80:	f9463807 	ldr	x7, [x0, #3184]
    dd84:	b940b728 	ldr	w8, [x25, #180]
    dd88:	b40006e5 	cbz	x5, de64 <_obstack_memory_used@@Base+0x1024>
    dd8c:	aa1503e5 	mov	x5, x21
    dd90:	2a0803e2 	mov	w2, w8
    dd94:	aa0703e1 	mov	x1, x7
    dd98:	aa1803e0 	mov	x0, x24
    dd9c:	97fffec9 	bl	d8c0 <_obstack_memory_used@@Base+0xa80>
    dda0:	aa0003f3 	mov	x19, x0
    dda4:	97fff50f 	bl	b1e0 <setlocale@plt+0x7380>
    dda8:	f0000117 	adrp	x23, 30000 <_obstack_memory_used@@Base+0x231c0>
    ddac:	910382f5 	add	x21, x23, #0xe0
    ddb0:	910042b8 	add	x24, x21, #0x10
    ddb4:	f9401700 	ldr	x0, [x24, #40]
    ddb8:	b4000800 	cbz	x0, deb8 <_obstack_memory_used@@Base+0x1078>
    ddbc:	9100c2a0 	add	x0, x21, #0x30
    ddc0:	97fff490 	bl	b000 <setlocale@plt+0x71a0>
    ddc4:	910ac294 	add	x20, x20, #0x2b0
    ddc8:	f946ba80 	ldr	x0, [x20, #3440]
    ddcc:	b4fff720 	cbz	x0, dcb0 <_obstack_memory_used@@Base+0xe70>
    ddd0:	d10006c1 	sub	x1, x22, #0x1
    ddd4:	9ac00ad6 	udiv	x22, x22, x0
    ddd8:	8b130021 	add	x1, x1, x19
    dddc:	9ac00820 	udiv	x0, x1, x0
    dde0:	eb0002df 	cmp	x22, x0
    dde4:	54fff660 	b.eq	dcb0 <_obstack_memory_used@@Base+0xe70>  // b.none
    dde8:	910382e0 	add	x0, x23, #0xe0
    ddec:	91060000 	add	x0, x0, #0x180
    ddf0:	97fff484 	bl	b000 <setlocale@plt+0x71a0>
    ddf4:	17ffffaf 	b	dcb0 <_obstack_memory_used@@Base+0xe70>
    ddf8:	3942a321 	ldrb	w1, [x25, #168]
    ddfc:	52800000 	mov	w0, #0x0                   	// #0
    de00:	3607f881 	tbz	w1, #0, dd10 <_obstack_memory_used@@Base+0xed0>
    de04:	12140c81 	and	w1, w4, #0xf000
    de08:	7140203f 	cmp	w1, #0x8, lsl #12
    de0c:	540009a0 	b.eq	df40 <_obstack_memory_used@@Base+0x1100>  // b.none
    de10:	7140103f 	cmp	w1, #0x4, lsl #12
    de14:	54000c00 	b.eq	df94 <_obstack_memory_used@@Base+0x1154>  // b.none
    de18:	7140283f 	cmp	w1, #0xa, lsl #12
    de1c:	54000e80 	b.eq	dfec <_obstack_memory_used@@Base+0x11ac>  // b.none
    de20:	d2801003 	mov	x3, #0x80                  	// #128
    de24:	7140043f 	cmp	w1, #0x1, lsl #12
    de28:	54fff9c0 	b.eq	dd60 <_obstack_memory_used@@Base+0xf20>  // b.none
    de2c:	d2801203 	mov	x3, #0x90                  	// #144
    de30:	7140303f 	cmp	w1, #0xc, lsl #12
    de34:	54fff960 	b.eq	dd60 <_obstack_memory_used@@Base+0xf20>  // b.none
    de38:	d2801403 	mov	x3, #0xa0                  	// #160
    de3c:	7140183f 	cmp	w1, #0x6, lsl #12
    de40:	54fff900 	b.eq	dd60 <_obstack_memory_used@@Base+0xf20>  // b.none
    de44:	7140083f 	cmp	w1, #0x2, lsl #12
    de48:	d2801603 	mov	x3, #0xb0                  	// #176
    de4c:	d2801a00 	mov	x0, #0xd0                  	// #208
    de50:	9a800063 	csel	x3, x3, x0, eq	// eq = none
    de54:	17ffffc3 	b	dd60 <_obstack_memory_used@@Base+0xf20>
    de58:	3607f560 	tbz	w0, #0, dd04 <_obstack_memory_used@@Base+0xec4>
    de5c:	b9409f24 	ldr	w4, [x25, #156]
    de60:	17ffffaa 	b	dd08 <_obstack_memory_used@@Base+0xec8>
    de64:	52800080 	mov	w0, #0x4                   	// #4
    de68:	97fff38e 	bl	aca0 <setlocale@plt+0x6e40>
    de6c:	aa1503e5 	mov	x5, x21
    de70:	2a0003e3 	mov	w3, w0
    de74:	2a0803e2 	mov	w2, w8
    de78:	aa0703e1 	mov	x1, x7
    de7c:	12001c75 	and	w21, w3, #0xff
    de80:	d2800003 	mov	x3, #0x0                   	// #0
    de84:	aa1803e0 	mov	x0, x24
    de88:	97fffe8e 	bl	d8c0 <_obstack_memory_used@@Base+0xa80>
    de8c:	aa0003f3 	mov	x19, x0
    de90:	97fff4d4 	bl	b1e0 <setlocale@plt+0x7380>
    de94:	3707f8b5 	tbnz	w21, #0, dda8 <_obstack_memory_used@@Base+0xf68>
    de98:	a9425bf5 	ldp	x21, x22, [sp, #32]
    de9c:	aa1303e0 	mov	x0, x19
    dea0:	a94153f3 	ldp	x19, x20, [sp, #16]
    dea4:	a94363f7 	ldp	x23, x24, [sp, #48]
    dea8:	a9446bf9 	ldp	x25, x26, [sp, #64]
    deac:	a8c57bfd 	ldp	x29, x30, [sp], #80
    deb0:	d50323bf 	autiasp
    deb4:	d65f03c0 	ret
    deb8:	aa1803e0 	mov	x0, x24
    debc:	97fff451 	bl	b000 <setlocale@plt+0x71a0>
    dec0:	910102a0 	add	x0, x21, #0x40
    dec4:	97fff44f 	bl	b000 <setlocale@plt+0x71a0>
    dec8:	91004300 	add	x0, x24, #0x10
    decc:	97fff44d 	bl	b000 <setlocale@plt+0x71a0>
    ded0:	17ffffbd 	b	ddc4 <_obstack_memory_used@@Base+0xf84>
    ded4:	aa1803e0 	mov	x0, x24
    ded8:	97ffd64a 	bl	3800 <strlen@plt>
    dedc:	910ac281 	add	x1, x20, #0x2b0
    dee0:	aa0003fa 	mov	x26, x0
    dee4:	f947f433 	ldr	x19, [x1, #4072]
    dee8:	b50000d3 	cbnz	x19, df00 <_obstack_memory_used@@Base+0x10c0>
    deec:	14000023 	b	df78 <_obstack_memory_used@@Base+0x1138>
    def0:	97ffd6dc 	bl	3a60 <strncmp@plt>
    def4:	340001e0 	cbz	w0, df30 <_obstack_memory_used@@Base+0x10f0>
    def8:	f9401673 	ldr	x19, [x19, #40]
    defc:	b40003f3 	cbz	x19, df78 <_obstack_memory_used@@Base+0x1138>
    df00:	f9400262 	ldr	x2, [x19]
    df04:	eb020340 	subs	x0, x26, x2
    df08:	54ffff83 	b.cc	def8 <_obstack_memory_used@@Base+0x10b8>  // b.lo, b.ul, b.last
    df0c:	39408263 	ldrb	w3, [x19, #32]
    df10:	8b000300 	add	x0, x24, x0
    df14:	f9400661 	ldr	x1, [x19, #8]
    df18:	3707fec3 	tbnz	w3, #0, def0 <_obstack_memory_used@@Base+0x10b0>
    df1c:	f100005f 	cmp	x2, #0x0
    df20:	fa411004 	ccmp	x0, x1, #0x4, ne	// ne = any
    df24:	54000060 	b.eq	df30 <_obstack_memory_used@@Base+0x10f0>  // b.none
    df28:	97ffe45a 	bl	7090 <setlocale@plt+0x3230>
    df2c:	35fffe60 	cbnz	w0, def8 <_obstack_memory_used@@Base+0x10b8>
    df30:	91004263 	add	x3, x19, #0x10
    df34:	17ffff8f 	b	dd70 <_obstack_memory_used@@Base+0xf30>
    df38:	d2801803 	mov	x3, #0xc0                  	// #192
    df3c:	17ffff89 	b	dd60 <_obstack_memory_used@@Base+0xf20>
    df40:	365800c4 	tbz	w4, #11, df58 <_obstack_memory_used@@Base+0x1118>
    df44:	52800200 	mov	w0, #0x10                  	// #16
    df48:	97fff356 	bl	aca0 <setlocale@plt+0x6e40>
    df4c:	36000060 	tbz	w0, #0, df58 <_obstack_memory_used@@Base+0x1118>
    df50:	d2802003 	mov	x3, #0x100                 	// #256
    df54:	17ffff83 	b	dd60 <_obstack_memory_used@@Base+0xf20>
    df58:	37500144 	tbnz	w4, #10, df80 <_obstack_memory_used@@Base+0x1140>
    df5c:	528002a0 	mov	w0, #0x15                  	// #21
    df60:	97fff350 	bl	aca0 <setlocale@plt+0x6e40>
    df64:	360004a0 	tbz	w0, #0, dff8 <_obstack_memory_used@@Base+0x11b8>
    df68:	3942c320 	ldrb	w0, [x25, #176]
    df6c:	36000460 	tbz	w0, #0, dff8 <_obstack_memory_used@@Base+0x11b8>
    df70:	d2802a03 	mov	x3, #0x150                 	// #336
    df74:	17ffff7b 	b	dd60 <_obstack_memory_used@@Base+0xf20>
    df78:	d2800a03 	mov	x3, #0x50                  	// #80
    df7c:	17ffff79 	b	dd60 <_obstack_memory_used@@Base+0xf20>
    df80:	52800220 	mov	w0, #0x11                  	// #17
    df84:	97fff347 	bl	aca0 <setlocale@plt+0x6e40>
    df88:	3607fea0 	tbz	w0, #0, df5c <_obstack_memory_used@@Base+0x111c>
    df8c:	d2802203 	mov	x3, #0x110                 	// #272
    df90:	17ffff74 	b	dd60 <_obstack_memory_used@@Base+0xf20>
    df94:	52804040 	mov	w0, #0x202                 	// #514
    df98:	0a000080 	and	w0, w4, w0
    df9c:	7108081f 	cmp	w0, #0x202
    dfa0:	540001c0 	b.eq	dfd8 <_obstack_memory_used@@Base+0x1198>  // b.none
    dfa4:	360800a4 	tbz	w4, #1, dfb8 <_obstack_memory_used@@Base+0x1178>
    dfa8:	52800260 	mov	w0, #0x13                  	// #19
    dfac:	d2802603 	mov	x3, #0x130                 	// #304
    dfb0:	97fff33c 	bl	aca0 <setlocale@plt+0x6e40>
    dfb4:	3707ed60 	tbnz	w0, #0, dd60 <_obstack_memory_used@@Base+0xf20>
    dfb8:	d2800c03 	mov	x3, #0x60                  	// #96
    dfbc:	364fed24 	tbz	w4, #9, dd60 <_obstack_memory_used@@Base+0xf20>
    dfc0:	52800240 	mov	w0, #0x12                  	// #18
    dfc4:	97fff337 	bl	aca0 <setlocale@plt+0x6e40>
    dfc8:	f240001f 	tst	x0, #0x1
    dfcc:	d2802401 	mov	x1, #0x120                 	// #288
    dfd0:	9a831023 	csel	x3, x1, x3, ne	// ne = any
    dfd4:	17ffff63 	b	dd60 <_obstack_memory_used@@Base+0xf20>
    dfd8:	52800280 	mov	w0, #0x14                  	// #20
    dfdc:	d2802803 	mov	x3, #0x140                 	// #320
    dfe0:	97fff330 	bl	aca0 <setlocale@plt+0x6e40>
    dfe4:	3707ebe0 	tbnz	w0, #0, dd60 <_obstack_memory_used@@Base+0xf20>
    dfe8:	17ffffef 	b	dfa4 <_obstack_memory_used@@Base+0x1164>
    dfec:	d2800e03 	mov	x3, #0x70                  	// #112
    dff0:	34ffea60 	cbz	w0, dd3c <_obstack_memory_used@@Base+0xefc>
    dff4:	17ffff5b 	b	dd60 <_obstack_memory_used@@Base+0xf20>
    dff8:	52800920 	mov	w0, #0x49                  	// #73
    dffc:	6a00009f 	tst	w4, w0
    e000:	540000c0 	b.eq	e018 <_obstack_memory_used@@Base+0x11d8>  // b.none
    e004:	528001c0 	mov	w0, #0xe                   	// #14
    e008:	97fff326 	bl	aca0 <setlocale@plt+0x6e40>
    e00c:	36000060 	tbz	w0, #0, e018 <_obstack_memory_used@@Base+0x11d8>
    e010:	d2801c03 	mov	x3, #0xe0                  	// #224
    e014:	17ffff53 	b	dd60 <_obstack_memory_used@@Base+0xf20>
    e018:	b9402f20 	ldr	w0, [x25, #44]
    e01c:	7100041f 	cmp	w0, #0x1
    e020:	54fff5a9 	b.ls	ded4 <_obstack_memory_used@@Base+0x1094>  // b.plast
    e024:	528002c0 	mov	w0, #0x16                  	// #22
    e028:	97fff31e 	bl	aca0 <setlocale@plt+0x6e40>
    e02c:	3607f540 	tbz	w0, #0, ded4 <_obstack_memory_used@@Base+0x1094>
    e030:	d2802c03 	mov	x3, #0x160                 	// #352
    e034:	17ffff4b 	b	dd60 <_obstack_memory_used@@Base+0xf20>
    e038:	d503201f 	nop
    e03c:	d503201f 	nop
    e040:	d503233f 	paciasp
    e044:	a9bb7bfd 	stp	x29, x30, [sp, #-80]!
    e048:	910003fd 	mov	x29, sp
    e04c:	a9046bf9 	stp	x25, x26, [sp, #64]
    e050:	d0000119 	adrp	x25, 30000 <_obstack_memory_used@@Base+0x231c0>
    e054:	910ac321 	add	x1, x25, #0x2b0
    e058:	a90153f3 	stp	x19, x20, [sp, #16]
    e05c:	12001c14 	and	w20, w0, #0xff
    e060:	f947f83a 	ldr	x26, [x1, #4080]
    e064:	a9025bf5 	stp	x21, x22, [sp, #32]
    e068:	a90363f7 	stp	x23, x24, [sp, #48]
    e06c:	f9461835 	ldr	x21, [x1, #3120]
    e070:	f947fc37 	ldr	x23, [x1, #4088]
    e074:	b40001fa 	cbz	x26, e0b0 <_obstack_memory_used@@Base+0x1270>
    e078:	eb15035f 	cmp	x26, x21
    e07c:	54000ee2 	b.cs	e258 <_obstack_memory_used@@Base+0x1418>  // b.hs, b.nlast
    e080:	eb17035f 	cmp	x26, x23
    e084:	54001309 	b.ls	e2e4 <_obstack_memory_used@@Base+0x14a4>  // b.plast
    e088:	aa1a03f5 	mov	x21, x26
    e08c:	f0000113 	adrp	x19, 31000 <obstack_alloc_failed_handler@@Base+0xd90>
    e090:	910ec260 	add	x0, x19, #0x3b0
    e094:	aa1a03e1 	mov	x1, x26
    e098:	d2800302 	mov	x2, #0x18                  	// #24
    e09c:	f8500000 	ldur	x0, [x0, #-256]
    e0a0:	97ffd604 	bl	38b0 <reallocarray@plt>
    e0a4:	aa0003f6 	mov	x22, x0
    e0a8:	b50001a0 	cbnz	x0, e0dc <_obstack_memory_used@@Base+0x129c>
    e0ac:	97fffcea 	bl	d454 <_obstack_memory_used@@Base+0x614>
    e0b0:	eb1502ff 	cmp	x23, x21
    e0b4:	54000d62 	b.cs	e260 <_obstack_memory_used@@Base+0x1420>  // b.hs, b.nlast
    e0b8:	f0000113 	adrp	x19, 31000 <obstack_alloc_failed_handler@@Base+0xd90>
    e0bc:	910ec260 	add	x0, x19, #0x3b0
    e0c0:	aa1503e1 	mov	x1, x21
    e0c4:	d2800602 	mov	x2, #0x30                  	// #48
    e0c8:	d37ffaba 	lsl	x26, x21, #1
    e0cc:	f8500000 	ldur	x0, [x0, #-256]
    e0d0:	97ffd5f8 	bl	38b0 <reallocarray@plt>
    e0d4:	aa0003f6 	mov	x22, x0
    e0d8:	b4fffea0 	cbz	x0, e0ac <_obstack_memory_used@@Base+0x126c>
    e0dc:	910ec261 	add	x1, x19, #0x3b0
    e0e0:	910006f8 	add	x24, x23, #0x1
    e0e4:	ab180342 	adds	x2, x26, x24
    e0e8:	cb170340 	sub	x0, x26, x23
    e0ec:	f8100036 	stur	x22, [x1, #-256]
    e0f0:	9b027c01 	mul	x1, x0, x2
    e0f4:	54fffdc2 	b.cs	e0ac <_obstack_memory_used@@Base+0x126c>  // b.hs, b.nlast
    e0f8:	9ac00820 	udiv	x0, x1, x0
    e0fc:	eb00005f 	cmp	x2, x0
    e100:	54fffd61 	b.ne	e0ac <_obstack_memory_used@@Base+0x126c>  // b.any
    e104:	d341fc21 	lsr	x1, x1, #1
    e108:	d2800102 	mov	x2, #0x8                   	// #8
    e10c:	d2800000 	mov	x0, #0x0                   	// #0
    e110:	97ffd5e8 	bl	38b0 <reallocarray@plt>
    e114:	b4fffcc0 	cbz	x0, e0ac <_obstack_memory_used@@Base+0x126c>
    e118:	eb17035f 	cmp	x26, x23
    e11c:	540001a9 	b.ls	e150 <_obstack_memory_used@@Base+0x1310>  // b.plast
    e120:	8b1706e2 	add	x2, x23, x23, lsl #1
    e124:	91000743 	add	x3, x26, #0x1
    e128:	d37df301 	lsl	x1, x24, #3
    e12c:	8b020ec2 	add	x2, x22, x2, lsl #3
    e130:	d37df063 	lsl	x3, x3, #3
    e134:	d503201f 	nop
    e138:	f9000840 	str	x0, [x2, #16]
    e13c:	8b010000 	add	x0, x0, x1
    e140:	91002021 	add	x1, x1, #0x8
    e144:	91006042 	add	x2, x2, #0x18
    e148:	eb01007f 	cmp	x3, x1
    e14c:	54ffff61 	b.ne	e138 <_obstack_memory_used@@Base+0x12f8>  // b.any
    e150:	910ac320 	add	x0, x25, #0x2b0
    e154:	f907fc1a 	str	x26, [x0, #4088]
    e158:	d2800067 	mov	x7, #0x3                   	// #3
    e15c:	aa1603e5 	mov	x5, x22
    e160:	aa0703e4 	mov	x4, x7
    e164:	d2800006 	mov	x6, #0x0                   	// #0
    e168:	52800028 	mov	w8, #0x1                   	// #1
    e16c:	d503201f 	nop
    e170:	f94008a3 	ldr	x3, [x5, #16]
    e174:	aa0603e2 	mov	x2, x6
    e178:	910004c6 	add	x6, x6, #0x1
    e17c:	d2800000 	mov	x0, #0x0                   	// #0
    e180:	390000a8 	strb	w8, [x5]
    e184:	f90004a7 	str	x7, [x5, #8]
    e188:	f8207864 	str	x4, [x3, x0, lsl #3]
    e18c:	eb00005f 	cmp	x2, x0
    e190:	91000400 	add	x0, x0, #0x1
    e194:	54ffffa1 	b.ne	e188 <_obstack_memory_used@@Base+0x1348>  // b.any
    e198:	910060a5 	add	x5, x5, #0x18
    e19c:	91000ce7 	add	x7, x7, #0x3
    e1a0:	eb1500df 	cmp	x6, x21
    e1a4:	54fffe61 	b.ne	e170 <_obstack_memory_used@@Base+0x1330>  // b.any
    e1a8:	910ac339 	add	x25, x25, #0x2b0
    e1ac:	f9461b20 	ldr	x0, [x25, #3120]
    e1b0:	b4000700 	cbz	x0, e290 <_obstack_memory_used@@Base+0x1450>
    e1b4:	12000298 	and	w24, w20, #0x1
    e1b8:	910ec274 	add	x20, x19, #0x3b0
    e1bc:	d2800016 	mov	x22, #0x0                   	// #0
    e1c0:	f9461f20 	ldr	x0, [x25, #3128]
    e1c4:	f8767800 	ldr	x0, [x0, x22, lsl #3]
    e1c8:	97fff95a 	bl	c730 <setlocale@plt+0x88d0>
    e1cc:	f8500282 	ldur	x2, [x20, #-256]
    e1d0:	d2800001 	mov	x1, #0x0                   	// #0
    e1d4:	f946bb28 	ldr	x8, [x25, #3440]
    e1d8:	14000018 	b	e238 <_obstack_memory_used@@Base+0x13f8>
    e1dc:	f9461b23 	ldr	x3, [x25, #3120]
    e1e0:	8b030083 	add	x3, x4, x3
    e1e4:	9ac10863 	udiv	x3, x3, x1
    e1e8:	9ac30ac3 	udiv	x3, x22, x3
    e1ec:	f9400846 	ldr	x6, [x2, #16]
    e1f0:	eb04007f 	cmp	x3, x4
    e1f4:	9a9f07e4 	cset	x4, ne	// ne = any
    e1f8:	f86378c5 	ldr	x5, [x6, x3, lsl #3]
    e1fc:	8b040404 	add	x4, x0, x4, lsl #1
    e200:	eb0400bf 	cmp	x5, x4
    e204:	54000142 	b.cs	e22c <_obstack_memory_used@@Base+0x13ec>  // b.hs, b.nlast
    e208:	f9400447 	ldr	x7, [x2, #8]
    e20c:	cb050085 	sub	x5, x4, x5
    e210:	8b0500e5 	add	x5, x7, x5
    e214:	f9000445 	str	x5, [x2, #8]
    e218:	f82378c4 	str	x4, [x6, x3, lsl #3]
    e21c:	f9400443 	ldr	x3, [x2, #8]
    e220:	eb08007f 	cmp	x3, x8
    e224:	1a9f27e3 	cset	w3, cc	// cc = lo, ul, last
    e228:	39000043 	strb	w3, [x2]
    e22c:	91006042 	add	x2, x2, #0x18
    e230:	eb0102bf 	cmp	x21, x1
    e234:	54000260 	b.eq	e280 <_obstack_memory_used@@Base+0x1440>  // b.none
    e238:	39400043 	ldrb	w3, [x2]
    e23c:	aa0103e4 	mov	x4, x1
    e240:	91000421 	add	x1, x1, #0x1
    e244:	3607ff43 	tbz	w3, #0, e22c <_obstack_memory_used@@Base+0x13ec>
    e248:	35fffcb8 	cbnz	w24, e1dc <_obstack_memory_used@@Base+0x139c>
    e24c:	9ac10ac3 	udiv	x3, x22, x1
    e250:	9b01d863 	msub	x3, x3, x1, x22
    e254:	17ffffe6 	b	e1ec <_obstack_memory_used@@Base+0x13ac>
    e258:	eb1502ff 	cmp	x23, x21
    e25c:	540000c3 	b.cc	e274 <_obstack_memory_used@@Base+0x1434>  // b.lo, b.ul, b.last
    e260:	b4000335 	cbz	x21, e2c4 <_obstack_memory_used@@Base+0x1484>
    e264:	f0000113 	adrp	x19, 31000 <obstack_alloc_failed_handler@@Base+0xd90>
    e268:	910ec260 	add	x0, x19, #0x3b0
    e26c:	f8500016 	ldur	x22, [x0, #-256]
    e270:	17ffffba 	b	e158 <_obstack_memory_used@@Base+0x1318>
    e274:	eb5a06bf 	cmp	x21, x26, lsr #1
    e278:	54fff203 	b.cc	e0b8 <_obstack_memory_used@@Base+0x1278>  // b.lo, b.ul, b.last
    e27c:	17ffff84 	b	e08c <_obstack_memory_used@@Base+0x124c>
    e280:	f9461b20 	ldr	x0, [x25, #3120]
    e284:	910006d6 	add	x22, x22, #0x1
    e288:	eb16001f 	cmp	x0, x22
    e28c:	54fff9a8 	b.hi	e1c0 <_obstack_memory_used@@Base+0x1380>  // b.pmore
    e290:	f10006bf 	cmp	x21, #0x1
    e294:	54000180 	b.eq	e2c4 <_obstack_memory_used@@Base+0x1484>  // b.none
    e298:	910ec273 	add	x19, x19, #0x3b0
    e29c:	8b1506a0 	add	x0, x21, x21, lsl #1
    e2a0:	f8500261 	ldur	x1, [x19, #-256]
    e2a4:	8b000c20 	add	x0, x1, x0, lsl #3
    e2a8:	14000005 	b	e2bc <_obstack_memory_used@@Base+0x147c>
    e2ac:	d10006b5 	sub	x21, x21, #0x1
    e2b0:	d1006000 	sub	x0, x0, #0x18
    e2b4:	f10006bf 	cmp	x21, #0x1
    e2b8:	54000060 	b.eq	e2c4 <_obstack_memory_used@@Base+0x1484>  // b.none
    e2bc:	385e8001 	ldurb	w1, [x0, #-24]
    e2c0:	3607ff61 	tbz	w1, #0, e2ac <_obstack_memory_used@@Base+0x146c>
    e2c4:	a94153f3 	ldp	x19, x20, [sp, #16]
    e2c8:	aa1503e0 	mov	x0, x21
    e2cc:	a9425bf5 	ldp	x21, x22, [sp, #32]
    e2d0:	a94363f7 	ldp	x23, x24, [sp, #48]
    e2d4:	a9446bf9 	ldp	x25, x26, [sp, #64]
    e2d8:	a8c57bfd 	ldp	x29, x30, [sp], #80
    e2dc:	d50323bf 	autiasp
    e2e0:	d65f03c0 	ret
    e2e4:	f0000113 	adrp	x19, 31000 <obstack_alloc_failed_handler@@Base+0xd90>
    e2e8:	910ec260 	add	x0, x19, #0x3b0
    e2ec:	aa1a03f5 	mov	x21, x26
    e2f0:	f8500016 	ldur	x22, [x0, #-256]
    e2f4:	17ffff99 	b	e158 <_obstack_memory_used@@Base+0x1318>
    e2f8:	d503201f 	nop
    e2fc:	d503201f 	nop
    e300:	d503233f 	paciasp
    e304:	a9bc7bfd 	stp	x29, x30, [sp, #-64]!
    e308:	910003fd 	mov	x29, sp
    e30c:	a9025bf5 	stp	x21, x22, [sp, #32]
    e310:	f0000115 	adrp	x21, 31000 <obstack_alloc_failed_handler@@Base+0xd90>
    e314:	910ec2a1 	add	x1, x21, #0x3b0
    e318:	a90153f3 	stp	x19, x20, [sp, #16]
    e31c:	2a0003f4 	mov	w20, w0
    e320:	f8508033 	ldur	x19, [x1, #-248]
    e324:	b5000093 	cbnz	x19, e334 <_obstack_memory_used@@Base+0x14f4>
    e328:	1400000e 	b	e360 <_obstack_memory_used@@Base+0x1520>
    e32c:	f9400673 	ldr	x19, [x19, #8]
    e330:	b4000193 	cbz	x19, e360 <_obstack_memory_used@@Base+0x1520>
    e334:	b9400261 	ldr	w1, [x19]
    e338:	6b14003f 	cmp	w1, w20
    e33c:	54ffff81 	b.ne	e32c <_obstack_memory_used@@Base+0x14ec>  // b.any
    e340:	38410e60 	ldrb	w0, [x19, #16]!
    e344:	a9425bf5 	ldp	x21, x22, [sp, #32]
    e348:	7100001f 	cmp	w0, #0x0
    e34c:	9a9f1260 	csel	x0, x19, xzr, ne	// ne = any
    e350:	a94153f3 	ldp	x19, x20, [sp, #16]
    e354:	a8c47bfd 	ldp	x29, x30, [sp], #64
    e358:	d50323bf 	autiasp
    e35c:	d65f03c0 	ret
    e360:	2a1403e0 	mov	w0, w20
    e364:	f9001bf7 	str	x23, [sp, #48]
    e368:	97ffd632 	bl	3c30 <getpwuid@plt>
    e36c:	b4000360 	cbz	x0, e3d8 <_obstack_memory_used@@Base+0x1598>
    e370:	f9400017 	ldr	x23, [x0]
    e374:	aa1703e0 	mov	x0, x23
    e378:	97ffd522 	bl	3800 <strlen@plt>
    e37c:	91006016 	add	x22, x0, #0x18
    e380:	927df2d6 	and	x22, x22, #0xfffffffffffffff8
    e384:	aa1603e0 	mov	x0, x22
    e388:	97ffd59a 	bl	39f0 <malloc@plt>
    e38c:	aa0003f3 	mov	x19, x0
    e390:	b40002c0 	cbz	x0, e3e8 <_obstack_memory_used@@Base+0x15a8>
    e394:	910ec2b5 	add	x21, x21, #0x3b0
    e398:	b8010414 	str	w20, [x0], #16
    e39c:	d10042c2 	sub	x2, x22, #0x10
    e3a0:	aa1703e1 	mov	x1, x23
    e3a4:	97ffd5a3 	bl	3a30 <__strcpy_chk@plt>
    e3a8:	f85082a0 	ldur	x0, [x21, #-248]
    e3ac:	f9401bf7 	ldr	x23, [sp, #48]
    e3b0:	f9000660 	str	x0, [x19, #8]
    e3b4:	f81082b3 	stur	x19, [x21, #-248]
    e3b8:	38410e60 	ldrb	w0, [x19, #16]!
    e3bc:	a9425bf5 	ldp	x21, x22, [sp, #32]
    e3c0:	7100001f 	cmp	w0, #0x0
    e3c4:	9a9f1260 	csel	x0, x19, xzr, ne	// ne = any
    e3c8:	a94153f3 	ldp	x19, x20, [sp, #16]
    e3cc:	a8c47bfd 	ldp	x29, x30, [sp], #64
    e3d0:	d50323bf 	autiasp
    e3d4:	d65f03c0 	ret
    e3d8:	f0000057 	adrp	x23, 19000 <_obstack_memory_used@@Base+0xc1c0>
    e3dc:	d2800316 	mov	x22, #0x18                  	// #24
    e3e0:	912a02f7 	add	x23, x23, #0xa80
    e3e4:	17ffffe8 	b	e384 <_obstack_memory_used@@Base+0x1544>
    e3e8:	97fffc1b 	bl	d454 <_obstack_memory_used@@Base+0x614>
    e3ec:	d503201f 	nop
    e3f0:	d503245f 	bti	c
    e3f4:	f0000101 	adrp	x1, 31000 <obstack_alloc_failed_handler@@Base+0xd90>
    e3f8:	d503233f 	paciasp
    e3fc:	a9be7bfd 	stp	x29, x30, [sp, #-32]!
    e400:	910003fd 	mov	x29, sp
    e404:	394b0021 	ldrb	w1, [x1, #704]
    e408:	a90153f3 	stp	x19, x20, [sp, #16]
    e40c:	2a0003f3 	mov	w19, w0
    e410:	36000181 	tbz	w1, #0, e440 <_obstack_memory_used@@Base+0x1600>
    e414:	2a1303e5 	mov	w5, w19
    e418:	b0000064 	adrp	x4, 1b000 <_obstack_memory_used@@Base+0xe1c0>
    e41c:	a94153f3 	ldp	x19, x20, [sp, #16]
    e420:	912c0084 	add	x4, x4, #0xb00
    e424:	a8c27bfd 	ldp	x29, x30, [sp], #32
    e428:	d50323bf 	autiasp
    e42c:	92800003 	mov	x3, #0xffffffffffffffff    	// #-1
    e430:	52800042 	mov	w2, #0x2                   	// #2
    e434:	d2800001 	mov	x1, #0x0                   	// #0
    e438:	d2800000 	mov	x0, #0x0                   	// #0
    e43c:	17ffd561 	b	39c0 <__snprintf_chk@plt>
    e440:	97ffffb0 	bl	e300 <_obstack_memory_used@@Base+0x14c0>
    e444:	aa0003f4 	mov	x20, x0
    e448:	b4fffe60 	cbz	x0, e414 <_obstack_memory_used@@Base+0x15d4>
    e44c:	97ffd4ed 	bl	3800 <strlen@plt>
    e450:	aa0003e1 	mov	x1, x0
    e454:	aa1403e0 	mov	x0, x20
    e458:	9400117e 	bl	12a50 <_obstack_memory_used@@Base+0x5c10>
    e45c:	7100001f 	cmp	w0, #0x0
    e460:	a94153f3 	ldp	x19, x20, [sp, #16]
    e464:	1a9fa000 	csel	w0, w0, wzr, ge	// ge = tcont
    e468:	a8c27bfd 	ldp	x29, x30, [sp], #32
    e46c:	d50323bf 	autiasp
    e470:	d65f03c0 	ret
    e474:	d503233f 	paciasp
    e478:	a9bc7bfd 	stp	x29, x30, [sp, #-64]!
    e47c:	910003fd 	mov	x29, sp
    e480:	a9025bf5 	stp	x21, x22, [sp, #32]
    e484:	f0000115 	adrp	x21, 31000 <obstack_alloc_failed_handler@@Base+0xd90>
    e488:	910ec2a1 	add	x1, x21, #0x3b0
    e48c:	a90153f3 	stp	x19, x20, [sp, #16]
    e490:	2a0003f4 	mov	w20, w0
    e494:	f8518033 	ldur	x19, [x1, #-232]
    e498:	b5000093 	cbnz	x19, e4a8 <_obstack_memory_used@@Base+0x1668>
    e49c:	1400000e 	b	e4d4 <_obstack_memory_used@@Base+0x1694>
    e4a0:	f9400673 	ldr	x19, [x19, #8]
    e4a4:	b4000193 	cbz	x19, e4d4 <_obstack_memory_used@@Base+0x1694>
    e4a8:	b9400261 	ldr	w1, [x19]
    e4ac:	6b14003f 	cmp	w1, w20
    e4b0:	54ffff81 	b.ne	e4a0 <_obstack_memory_used@@Base+0x1660>  // b.any
    e4b4:	38410e60 	ldrb	w0, [x19, #16]!
    e4b8:	a9425bf5 	ldp	x21, x22, [sp, #32]
    e4bc:	7100001f 	cmp	w0, #0x0
    e4c0:	9a9f1260 	csel	x0, x19, xzr, ne	// ne = any
    e4c4:	a94153f3 	ldp	x19, x20, [sp, #16]
    e4c8:	a8c47bfd 	ldp	x29, x30, [sp], #64
    e4cc:	d50323bf 	autiasp
    e4d0:	d65f03c0 	ret
    e4d4:	2a1403e0 	mov	w0, w20
    e4d8:	f9001bf7 	str	x23, [sp, #48]
    e4dc:	97ffd655 	bl	3e30 <getgrgid@plt>
    e4e0:	b4000360 	cbz	x0, e54c <_obstack_memory_used@@Base+0x170c>
    e4e4:	f9400017 	ldr	x23, [x0]
    e4e8:	aa1703e0 	mov	x0, x23
    e4ec:	97ffd4c5 	bl	3800 <strlen@plt>
    e4f0:	91006016 	add	x22, x0, #0x18
    e4f4:	927df2d6 	and	x22, x22, #0xfffffffffffffff8
    e4f8:	aa1603e0 	mov	x0, x22
    e4fc:	97ffd53d 	bl	39f0 <malloc@plt>
    e500:	aa0003f3 	mov	x19, x0
    e504:	b40002c0 	cbz	x0, e55c <_obstack_memory_used@@Base+0x171c>
    e508:	910ec2b5 	add	x21, x21, #0x3b0
    e50c:	b8010414 	str	w20, [x0], #16
    e510:	d10042c2 	sub	x2, x22, #0x10
    e514:	aa1703e1 	mov	x1, x23
    e518:	97ffd546 	bl	3a30 <__strcpy_chk@plt>
    e51c:	f85182a0 	ldur	x0, [x21, #-232]
    e520:	f9401bf7 	ldr	x23, [sp, #48]
    e524:	f9000660 	str	x0, [x19, #8]
    e528:	f81182b3 	stur	x19, [x21, #-232]
    e52c:	38410e60 	ldrb	w0, [x19, #16]!
    e530:	a9425bf5 	ldp	x21, x22, [sp, #32]
    e534:	7100001f 	cmp	w0, #0x0
    e538:	9a9f1260 	csel	x0, x19, xzr, ne	// ne = any
    e53c:	a94153f3 	ldp	x19, x20, [sp, #16]
    e540:	a8c47bfd 	ldp	x29, x30, [sp], #64
    e544:	d50323bf 	autiasp
    e548:	d65f03c0 	ret
    e54c:	f0000057 	adrp	x23, 19000 <_obstack_memory_used@@Base+0xc1c0>
    e550:	d2800316 	mov	x22, #0x18                  	// #24
    e554:	912a02f7 	add	x23, x23, #0xa80
    e558:	17ffffe8 	b	e4f8 <_obstack_memory_used@@Base+0x16b8>
    e55c:	97fffbbe 	bl	d454 <_obstack_memory_used@@Base+0x614>
    e560:	d503233f 	paciasp
    e564:	a9ba7bfd 	stp	x29, x30, [sp, #-96]!
    e568:	d282620d 	mov	x13, #0x1310                	// #4880
    e56c:	910003fd 	mov	x29, sp
    e570:	a90153f3 	stp	x19, x20, [sp, #16]
    e574:	a9025bf5 	stp	x21, x22, [sp, #32]
    e578:	a90363f7 	stp	x23, x24, [sp, #48]
    e57c:	a9046bf9 	stp	x25, x26, [sp, #64]
    e580:	a90573fb 	stp	x27, x28, [sp, #80]
    e584:	cb2d63ff 	sub	sp, sp, x13
    e588:	f90203ff 	str	xzr, [sp, #1024]
    e58c:	aa0003f4 	mov	x20, x0
    e590:	b0000100 	adrp	x0, 2f000 <_obstack_memory_used@@Base+0x221c0>
    e594:	f947e800 	ldr	x0, [x0, #4048]
    e598:	3942a281 	ldrb	w1, [x20, #168]
    e59c:	f9400002 	ldr	x2, [x0]
    e5a0:	f90987e2 	str	x2, [sp, #4872]
    e5a4:	d2800002 	mov	x2, #0x0                   	// #0
    e5a8:	12000022 	and	w2, w1, #0x1
    e5ac:	360016c1 	tbz	w1, #0, e884 <_obstack_memory_used@@Base+0x1a44>
    e5b0:	b9402a80 	ldr	w0, [x20, #40]
    e5b4:	528005a3 	mov	w3, #0x2d                  	// #45
    e5b8:	12140c01 	and	w1, w0, #0xf000
    e5bc:	7140203f 	cmp	w1, #0x8, lsl #12
    e5c0:	54000280 	b.eq	e610 <_obstack_memory_used@@Base+0x17d0>  // b.none
    e5c4:	52800c83 	mov	w3, #0x64                  	// #100
    e5c8:	7140103f 	cmp	w1, #0x4, lsl #12
    e5cc:	54000220 	b.eq	e610 <_obstack_memory_used@@Base+0x17d0>  // b.none
    e5d0:	52800c43 	mov	w3, #0x62                  	// #98
    e5d4:	7140183f 	cmp	w1, #0x6, lsl #12
    e5d8:	540001c0 	b.eq	e610 <_obstack_memory_used@@Base+0x17d0>  // b.none
    e5dc:	52800c63 	mov	w3, #0x63                  	// #99
    e5e0:	7140083f 	cmp	w1, #0x2, lsl #12
    e5e4:	54000160 	b.eq	e610 <_obstack_memory_used@@Base+0x17d0>  // b.none
    e5e8:	52800d83 	mov	w3, #0x6c                  	// #108
    e5ec:	7140283f 	cmp	w1, #0xa, lsl #12
    e5f0:	54000100 	b.eq	e610 <_obstack_memory_used@@Base+0x17d0>  // b.none
    e5f4:	52800e03 	mov	w3, #0x70                  	// #112
    e5f8:	7140043f 	cmp	w1, #0x1, lsl #12
    e5fc:	540000a0 	b.eq	e610 <_obstack_memory_used@@Base+0x17d0>  // b.none
    e600:	7140303f 	cmp	w1, #0xc, lsl #12
    e604:	52800e63 	mov	w3, #0x73                  	// #115
    e608:	528007e1 	mov	w1, #0x3f                  	// #63
    e60c:	1a810063 	csel	w3, w3, w1, eq	// eq = none
    e610:	f278001f 	tst	x0, #0x100
    e614:	528005a1 	mov	w1, #0x2d                  	// #45
    e618:	52800e45 	mov	w5, #0x72                  	// #114
    e61c:	1a850025 	csel	w5, w1, w5, eq	// eq = none
    e620:	f279001f 	tst	x0, #0x80
    e624:	52800ee4 	mov	w4, #0x77                  	// #119
    e628:	1a840024 	csel	w4, w1, w4, eq	// eq = none
    e62c:	3902c3e3 	strb	w3, [sp, #176]
    e630:	3902c7e5 	strb	w5, [sp, #177]
    e634:	121a0003 	and	w3, w0, #0x40
    e638:	3902cbe4 	strb	w4, [sp, #178]
    e63c:	37583000 	tbnz	w0, #11, ec3c <_obstack_memory_used@@Base+0x1dfc>
    e640:	7100007f 	cmp	w3, #0x0
    e644:	52800f03 	mov	w3, #0x78                  	// #120
    e648:	1a830023 	csel	w3, w1, w3, eq	// eq = none
    e64c:	f27b001f 	tst	x0, #0x20
    e650:	528005a1 	mov	w1, #0x2d                  	// #45
    e654:	52800e45 	mov	w5, #0x72                  	// #114
    e658:	1a850025 	csel	w5, w1, w5, eq	// eq = none
    e65c:	f27c001f 	tst	x0, #0x10
    e660:	52800ee4 	mov	w4, #0x77                  	// #119
    e664:	1a840024 	csel	w4, w1, w4, eq	// eq = none
    e668:	3902cfe3 	strb	w3, [sp, #179]
    e66c:	3902d3e5 	strb	w5, [sp, #180]
    e670:	121d0003 	and	w3, w0, #0x8
    e674:	3902d7e4 	strb	w4, [sp, #181]
    e678:	36503fa0 	tbz	w0, #10, ee6c <_obstack_memory_used@@Base+0x202c>
    e67c:	7100007f 	cmp	w3, #0x0
    e680:	52800a61 	mov	w1, #0x53                  	// #83
    e684:	52800e63 	mov	w3, #0x73                  	// #115
    e688:	1a830023 	csel	w3, w1, w3, eq	// eq = none
    e68c:	f27e001f 	tst	x0, #0x4
    e690:	528005a1 	mov	w1, #0x2d                  	// #45
    e694:	52800e45 	mov	w5, #0x72                  	// #114
    e698:	1a850025 	csel	w5, w1, w5, eq	// eq = none
    e69c:	f27f001f 	tst	x0, #0x2
    e6a0:	52800ee4 	mov	w4, #0x77                  	// #119
    e6a4:	1a840024 	csel	w4, w1, w4, eq	// eq = none
    e6a8:	3902dbe3 	strb	w3, [sp, #182]
    e6ac:	3902dfe5 	strb	w5, [sp, #183]
    e6b0:	12000003 	and	w3, w0, #0x1
    e6b4:	3902e3e4 	strb	w4, [sp, #184]
    e6b8:	36483d20 	tbz	w0, #9, ee5c <_obstack_memory_used@@Base+0x201c>
    e6bc:	7100007f 	cmp	w3, #0x0
    e6c0:	52800a81 	mov	w1, #0x54                  	// #84
    e6c4:	52800e80 	mov	w0, #0x74                  	// #116
    e6c8:	1a800021 	csel	w1, w1, w0, eq	// eq = none
    e6cc:	52800400 	mov	w0, #0x20                  	// #32
    e6d0:	d0000115 	adrp	x21, 30000 <_obstack_memory_used@@Base+0x231c0>
    e6d4:	790177e0 	strh	w0, [sp, #186]
    e6d8:	910ac2a0 	add	x0, x21, #0x2b0
    e6dc:	3902e7e1 	strb	w1, [sp, #185]
    e6e0:	9102c3f7 	add	x23, sp, #0xb0
    e6e4:	39710400 	ldrb	w0, [x0, #3137]
    e6e8:	36000ec0 	tbz	w0, #0, e8c0 <_obstack_memory_used@@Base+0x1a80>
    e6ec:	b940ae80 	ldr	w0, [x20, #172]
    e6f0:	7100041f 	cmp	w0, #0x1
    e6f4:	54003d40 	b.eq	ee9c <_obstack_memory_used@@Base+0x205c>  // b.none
    e6f8:	7100081f 	cmp	w0, #0x2
    e6fc:	54000e41 	b.ne	e8c4 <_obstack_memory_used@@Base+0x1a84>  // b.any
    e700:	52800560 	mov	w0, #0x2b                  	// #43
    e704:	3902ebe0 	strb	w0, [sp, #186]
    e708:	910ac2a0 	add	x0, x21, #0x2b0
    e70c:	b94c8400 	ldr	w0, [x0, #3204]
    e710:	7100081f 	cmp	w0, #0x2
    e714:	54000e01 	b.ne	e8d4 <_obstack_memory_used@@Base+0x1a94>  // b.any
    e718:	3dc01a80 	ldr	q0, [x20, #96]
    e71c:	52800038 	mov	w24, #0x1                   	// #1
    e720:	3d800fe0 	str	q0, [sp, #48]
    e724:	910ac2a0 	add	x0, x21, #0x2b0
    e728:	39720001 	ldrb	w1, [x0, #3200]
    e72c:	36000e61 	tbz	w1, #0, e8f8 <_obstack_memory_used@@Base+0x1ab8>
    e730:	b94c4404 	ldr	w4, [x0, #3140]
    e734:	350025e2 	cbnz	w2, ebf0 <_obstack_memory_used@@Base+0x1db0>
    e738:	b0000065 	adrp	x5, 1b000 <_obstack_memory_used@@Base+0xe1c0>
    e73c:	912c20a5 	add	x5, x5, #0xb08
    e740:	911323f6 	add	x22, sp, #0x4c8
    e744:	d281c762 	mov	x2, #0xe3b                 	// #3643
    e748:	52800041 	mov	w1, #0x2                   	// #2
    e74c:	aa1603e0 	mov	x0, x22
    e750:	b0000063 	adrp	x3, 1b000 <_obstack_memory_used@@Base+0xe1c0>
    e754:	912c4063 	add	x3, x3, #0xb10
    e758:	97ffd42e 	bl	3810 <__sprintf_chk@plt>
    e75c:	93407c00 	sxtw	x0, w0
    e760:	910ac2a5 	add	x5, x21, #0x2b0
    e764:	d281c77a 	mov	x26, #0xe3b                 	// #3643
    e768:	eb1a001f 	cmp	x0, x26
    e76c:	8b0002db 	add	x27, x22, x0
    e770:	9a9a2013 	csel	x19, x0, x26, cs	// cs = hs, nlast
    e774:	3942a281 	ldrb	w1, [x20, #168]
    e778:	cb000273 	sub	x19, x19, x0
    e77c:	3971e0a0 	ldrb	w0, [x5, #3192]
    e780:	eb1a027f 	cmp	x19, x26
    e784:	12000022 	and	w2, w1, #0x1
    e788:	9a9a227a 	csel	x26, x19, x26, cs	// cs = hs, nlast
    e78c:	37000c40 	tbnz	w0, #0, e914 <_obstack_memory_used@@Base+0x1ad4>
    e790:	910ac2a0 	add	x0, x21, #0x2b0
    e794:	b0000066 	adrp	x6, 1b000 <_obstack_memory_used@@Base+0xe1c0>
    e798:	912c20c6 	add	x6, x6, #0xb08
    e79c:	b94c4c05 	ldr	w5, [x0, #3148]
    e7a0:	35001222 	cbnz	w2, e9e4 <_obstack_memory_used@@Base+0x1ba4>
    e7a4:	aa1b03e0 	mov	x0, x27
    e7a8:	52800041 	mov	w1, #0x2                   	// #2
    e7ac:	aa1703e4 	mov	x4, x23
    e7b0:	aa1303e2 	mov	x2, x19
    e7b4:	b0000063 	adrp	x3, 1b000 <_obstack_memory_used@@Base+0xe1c0>
    e7b8:	912c6063 	add	x3, x3, #0xb18
    e7bc:	97ffd415 	bl	3810 <__sprintf_chk@plt>
    e7c0:	93407c19 	sxtw	x25, w0
    e7c4:	910ac2a1 	add	x1, x21, #0x2b0
    e7c8:	8b19037b 	add	x27, x27, x25
    e7cc:	397f8020 	ldrb	w0, [x1, #4064]
    e7d0:	37002400 	tbnz	w0, #0, ec50 <_obstack_memory_used@@Base+0x1e10>
    e7d4:	d0000117 	adrp	x23, 30000 <_obstack_memory_used@@Base+0x231c0>
    e7d8:	910042e0 	add	x0, x23, #0x10
    e7dc:	3942e801 	ldrb	w1, [x0, #186]
    e7e0:	37000061 	tbnz	w1, #0, e7ec <_obstack_memory_used@@Base+0x19ac>
    e7e4:	3942ec00 	ldrb	w0, [x0, #187]
    e7e8:	36001e40 	tbz	w0, #0, ebb0 <_obstack_memory_used@@Base+0x1d70>
    e7ec:	aa1603e0 	mov	x0, x22
    e7f0:	cb160361 	sub	x1, x27, x22
    e7f4:	97ffe30f 	bl	7430 <setlocale@plt+0x35d0>
    e7f8:	f0000119 	adrp	x25, 31000 <obstack_alloc_failed_handler@@Base+0xd90>
    e7fc:	910042e0 	add	x0, x23, #0x10
    e800:	3942e800 	ldrb	w0, [x0, #186]
    e804:	370026c0 	tbnz	w0, #0, ecdc <_obstack_memory_used@@Base+0x1e9c>
    e808:	910042e0 	add	x0, x23, #0x10
    e80c:	3942ec00 	ldrb	w0, [x0, #187]
    e810:	370024e0 	tbnz	w0, #0, ecac <_obstack_memory_used@@Base+0x1e6c>
    e814:	910ac2a0 	add	x0, x21, #0x2b0
    e818:	39722001 	ldrb	w1, [x0, #3208]
    e81c:	37002241 	tbnz	w1, #0, ec64 <_obstack_memory_used@@Base+0x1e24>
    e820:	910ac2a2 	add	x2, x21, #0x2b0
    e824:	3975b040 	ldrb	w0, [x2, #3436]
    e828:	37002380 	tbnz	w0, #0, ec98 <_obstack_memory_used@@Base+0x1e58>
    e82c:	d281c77c 	mov	x28, #0xe3b                 	// #3643
    e830:	aa1603fb 	mov	x27, x22
    e834:	aa1c03f3 	mov	x19, x28
    e838:	3942a280 	ldrb	w0, [x20, #168]
    e83c:	36000f40 	tbz	w0, #0, ea24 <_obstack_memory_used@@Base+0x1be4>
    e840:	b9402a80 	ldr	w0, [x20, #40]
    e844:	52960001 	mov	w1, #0xb000                	// #45056
    e848:	0a010000 	and	w0, w0, w1
    e84c:	7140081f 	cmp	w0, #0x2, lsl #12
    e850:	540032c0 	b.eq	eea8 <_obstack_memory_used@@Base+0x2068>  // b.none
    e854:	910ec321 	add	x1, x25, #0x3b0
    e858:	910042e4 	add	x4, x23, #0x10
    e85c:	f9402680 	ldr	x0, [x20, #72]
    e860:	d2800023 	mov	x3, #0x1                   	// #1
    e864:	f9406084 	ldr	x4, [x4, #192]
    e868:	b8520022 	ldur	w2, [x1, #-224]
    e86c:	910363e1 	add	x1, sp, #0xd8
    e870:	97fff590 	bl	beb0 <setlocale@plt+0x8050>
    e874:	aa0003fc 	mov	x28, x0
    e878:	97ffd3e2 	bl	3800 <strlen@plt>
    e87c:	aa0003e1 	mov	x1, x0
    e880:	1400006c 	b	ea30 <_obstack_memory_used@@Base+0x1bf0>
    e884:	b9409a81 	ldr	w1, [x20, #152]
    e888:	d0000040 	adrp	x0, 18000 <_obstack_memory_used@@Base+0xb1c0>
    e88c:	910a0000 	add	x0, x0, #0x280
    e890:	d0000115 	adrp	x21, 30000 <_obstack_memory_used@@Base+0x231c0>
    e894:	9102a000 	add	x0, x0, #0xa8
    e898:	9102c3f7 	add	x23, sp, #0xb0
    e89c:	4f01e7e0 	movi	v0.16b, #0x3f
    e8a0:	38616800 	ldrb	w0, [x0, x1]
    e8a4:	3902c3e0 	strb	w0, [sp, #176]
    e8a8:	910ac2a0 	add	x0, x21, #0x2b0
    e8ac:	fc0b13e0 	stur	d0, [sp, #177]
    e8b0:	7c0092e0 	stur	h0, [x23, #9]
    e8b4:	39710400 	ldrb	w0, [x0, #3137]
    e8b8:	3902efff 	strb	wzr, [sp, #187]
    e8bc:	3707f180 	tbnz	w0, #0, e6ec <_obstack_memory_used@@Base+0x18ac>
    e8c0:	3902ebff 	strb	wzr, [sp, #186]
    e8c4:	910ac2a0 	add	x0, x21, #0x2b0
    e8c8:	b94c8400 	ldr	w0, [x0, #3204]
    e8cc:	7100081f 	cmp	w0, #0x2
    e8d0:	54fff240 	b.eq	e718 <_obstack_memory_used@@Base+0x18d8>  // b.none
    e8d4:	54002b88 	b.hi	ee44 <_obstack_memory_used@@Base+0x2004>  // b.pmore
    e8d8:	7100001f 	cmp	w0, #0x0
    e8dc:	91020281 	add	x1, x20, #0x80
    e8e0:	9101c280 	add	x0, x20, #0x70
    e8e4:	52800038 	mov	w24, #0x1                   	// #1
    e8e8:	9a810000 	csel	x0, x0, x1, eq	// eq = none
    e8ec:	3dc00000 	ldr	q0, [x0]
    e8f0:	3d800fe0 	str	q0, [sp, #48]
    e8f4:	17ffff8c 	b	e724 <_obstack_memory_used@@Base+0x18e4>
    e8f8:	910ac2a5 	add	x5, x21, #0x2b0
    e8fc:	911323f6 	add	x22, sp, #0x4c8
    e900:	d281c77a 	mov	x26, #0xe3b                 	// #3643
    e904:	aa1603fb 	mov	x27, x22
    e908:	aa1a03f3 	mov	x19, x26
    e90c:	3971e0a0 	ldrb	w0, [x5, #3192]
    e910:	3607f400 	tbz	w0, #0, e790 <_obstack_memory_used@@Base+0x1950>
    e914:	35003ce2 	cbnz	w2, f0b0 <_obstack_memory_used@@Base+0x2270>
    e918:	b000007c 	adrp	x28, 1b000 <_obstack_memory_used@@Base+0xe1c0>
    e91c:	912c239c 	add	x28, x28, #0xb08
    e920:	d2800021 	mov	x1, #0x1                   	// #1
    e924:	910ac2a2 	add	x2, x21, #0x2b0
    e928:	aa1c03e0 	mov	x0, x28
    e92c:	b94c4859 	ldr	w25, [x2, #3144]
    e930:	94001048 	bl	12a50 <_obstack_memory_used@@Base+0x5c10>
    e934:	4b000323 	sub	w3, w25, w0
    e938:	7100007f 	cmp	w3, #0x0
    e93c:	54003f8d 	b.le	f12c <_obstack_memory_used@@Base+0x22ec>
    e940:	8b234363 	add	x3, x27, w3, uxtw
    e944:	d281c765 	mov	x5, #0xe3b                 	// #3643
    e948:	52800404 	mov	w4, #0x20                  	// #32
    e94c:	d503201f 	nop
    e950:	f138ee7f 	cmp	x19, #0xe3b
    e954:	d1000662 	sub	x2, x19, #0x1
    e958:	9a852261 	csel	x1, x19, x5, cs	// cs = hs, nlast
    e95c:	38001764 	strb	w4, [x27], #1
    e960:	cb130033 	sub	x19, x1, x19
    e964:	91000673 	add	x19, x19, #0x1
    e968:	eb01027f 	cmp	x19, x1
    e96c:	9a812273 	csel	x19, x19, x1, cs	// cs = hs, nlast
    e970:	cb010273 	sub	x19, x19, x1
    e974:	8b020273 	add	x19, x19, x2
    e978:	eb03037f 	cmp	x27, x3
    e97c:	54fffea1 	b.ne	e950 <_obstack_memory_used@@Base+0x1b10>  // b.any
    e980:	d281c77a 	mov	x26, #0xe3b                 	// #3643
    e984:	f138ee7f 	cmp	x19, #0xe3b
    e988:	aa0303fb 	mov	x27, x3
    e98c:	9a9a2262 	csel	x2, x19, x26, cs	// cs = hs, nlast
    e990:	38401780 	ldrb	w0, [x28], #1
    e994:	cb130041 	sub	x1, x2, x19
    e998:	d1000673 	sub	x19, x19, #0x1
    e99c:	91000421 	add	x1, x1, #0x1
    e9a0:	38001760 	strb	w0, [x27], #1
    e9a4:	eb02003f 	cmp	x1, x2
    e9a8:	9a822021 	csel	x1, x1, x2, cs	// cs = hs, nlast
    e9ac:	cb020021 	sub	x1, x1, x2
    e9b0:	8b130033 	add	x19, x1, x19
    e9b4:	35002640 	cbnz	w0, ee7c <_obstack_memory_used@@Base+0x203c>
    e9b8:	52800400 	mov	w0, #0x20                  	// #32
    e9bc:	381ff360 	sturb	w0, [x27, #-1]
    e9c0:	910ac2a0 	add	x0, x21, #0x2b0
    e9c4:	f138ee7f 	cmp	x19, #0xe3b
    e9c8:	3942a281 	ldrb	w1, [x20, #168]
    e9cc:	b0000066 	adrp	x6, 1b000 <_obstack_memory_used@@Base+0xe1c0>
    e9d0:	9a9a227a 	csel	x26, x19, x26, cs	// cs = hs, nlast
    e9d4:	912c20c6 	add	x6, x6, #0xb08
    e9d8:	b94c4c05 	ldr	w5, [x0, #3148]
    e9dc:	12000022 	and	w2, w1, #0x1
    e9e0:	34ffee22 	cbz	w2, e7a4 <_obstack_memory_used@@Base+0x1964>
    e9e4:	b9402e82 	ldr	w2, [x20, #44]
    e9e8:	b202e7e4 	mov	x4, #0xcccccccccccccccc    	// #-3689348814741910324
    e9ec:	9103b3e6 	add	x6, sp, #0xec
    e9f0:	f29999a4 	movk	x4, #0xcccd
    e9f4:	3903b3ff 	strb	wzr, [sp, #236]
    e9f8:	9bc47c41 	umulh	x1, x2, x4
    e9fc:	aa0203e3 	mov	x3, x2
    ea00:	d343fc21 	lsr	x1, x1, #3
    ea04:	8b010820 	add	x0, x1, x1, lsl #2
    ea08:	cb000440 	sub	x0, x2, x0, lsl #1
    ea0c:	aa0103e2 	mov	x2, x1
    ea10:	1100c000 	add	w0, w0, #0x30
    ea14:	381ffcc0 	strb	w0, [x6, #-1]!
    ea18:	f100247f 	cmp	x3, #0x9
    ea1c:	54fffee8 	b.hi	e9f8 <_obstack_memory_used@@Base+0x1bb8>  // b.pmore
    ea20:	17ffff61 	b	e7a4 <_obstack_memory_used@@Base+0x1964>
    ea24:	b000007c 	adrp	x28, 1b000 <_obstack_memory_used@@Base+0xe1c0>
    ea28:	912c239c 	add	x28, x28, #0xb08
    ea2c:	d2800021 	mov	x1, #0x1                   	// #1
    ea30:	910ac2a2 	add	x2, x21, #0x2b0
    ea34:	aa1c03e0 	mov	x0, x28
    ea38:	b94c685a 	ldr	w26, [x2, #3176]
    ea3c:	94001005 	bl	12a50 <_obstack_memory_used@@Base+0x5c10>
    ea40:	4b00035a 	sub	w26, w26, w0
    ea44:	7100035f 	cmp	w26, #0x0
    ea48:	5400366d 	b.le	f114 <_obstack_memory_used@@Base+0x22d4>
    ea4c:	8b3a437a 	add	x26, x27, w26, uxtw
    ea50:	d281c764 	mov	x4, #0xe3b                 	// #3643
    ea54:	52800403 	mov	w3, #0x20                  	// #32
    ea58:	f138ee7f 	cmp	x19, #0xe3b
    ea5c:	d1000662 	sub	x2, x19, #0x1
    ea60:	9a842261 	csel	x1, x19, x4, cs	// cs = hs, nlast
    ea64:	38001763 	strb	w3, [x27], #1
    ea68:	cb130033 	sub	x19, x1, x19
    ea6c:	91000673 	add	x19, x19, #0x1
    ea70:	eb01027f 	cmp	x19, x1
    ea74:	9a812273 	csel	x19, x19, x1, cs	// cs = hs, nlast
    ea78:	cb010273 	sub	x19, x19, x1
    ea7c:	8b020273 	add	x19, x19, x2
    ea80:	eb1a037f 	cmp	x27, x26
    ea84:	54fffea1 	b.ne	ea58 <_obstack_memory_used@@Base+0x1c18>  // b.any
    ea88:	d281c763 	mov	x3, #0xe3b                 	// #3643
    ea8c:	f138ee7f 	cmp	x19, #0xe3b
    ea90:	38401780 	ldrb	w0, [x28], #1
    ea94:	9a832262 	csel	x2, x19, x3, cs	// cs = hs, nlast
    ea98:	38001740 	strb	w0, [x26], #1
    ea9c:	cb130041 	sub	x1, x2, x19
    eaa0:	d1000673 	sub	x19, x19, #0x1
    eaa4:	91000421 	add	x1, x1, #0x1
    eaa8:	eb02003f 	cmp	x1, x2
    eaac:	9a822021 	csel	x1, x1, x2, cs	// cs = hs, nlast
    eab0:	cb020021 	sub	x1, x1, x2
    eab4:	8b130033 	add	x19, x1, x19
    eab8:	35fffea0 	cbnz	w0, ea8c <_obstack_memory_used@@Base+0x1c4c>
    eabc:	52800400 	mov	w0, #0x20                  	// #32
    eac0:	381ff340 	sturb	w0, [x26, #-1]
    eac4:	52800020 	mov	w0, #0x1                   	// #1
    eac8:	39000340 	strb	w0, [x26]
    eacc:	3942a280 	ldrb	w0, [x20, #168]
    ead0:	6a00031f 	tst	w24, w0
    ead4:	540026e1 	b.ne	efb0 <_obstack_memory_used@@Base+0x2170>  // b.any
    ead8:	910042e0 	add	x0, x23, #0x10
    eadc:	b940c804 	ldr	w4, [x0, #200]
    eae0:	36f81164 	tbz	w4, #31, ed0c <_obstack_memory_used@@Base+0x1ecc>
    eae4:	910ec320 	add	x0, x25, #0x3b0
    eae8:	9101e3fb 	add	x27, sp, #0x78
    eaec:	aa1b03e2 	mov	x2, x27
    eaf0:	9100a3e1 	add	x1, sp, #0x28
    eaf4:	f90017ff 	str	xzr, [sp, #40]
    eaf8:	f852801c 	ldur	x28, [x0, #-216]
    eafc:	aa1c03e0 	mov	x0, x28
    eb00:	97fffa25 	bl	d394 <_obstack_memory_used@@Base+0x554>
    eb04:	b40002a0 	cbz	x0, eb58 <_obstack_memory_used@@Base+0x1d18>
    eb08:	910ac2a0 	add	x0, x21, #0x2b0
    eb0c:	39708001 	ldrb	w1, [x0, #3104]
    eb10:	36003561 	tbz	w1, #0, f1bc <_obstack_memory_used@@Base+0x237c>
    eb14:	b9808be2 	ldrsw	x2, [sp, #136]
    eb18:	91008000 	add	x0, x0, #0x20
    eb1c:	8b021c02 	add	x2, x0, x2, lsl #7
    eb20:	910363e8 	add	x8, sp, #0xd8
    eb24:	b90003ff 	str	wzr, [sp]
    eb28:	aa0803e0 	mov	x0, x8
    eb2c:	d2807d21 	mov	x1, #0x3e9                 	// #1001
    eb30:	aa1c03e7 	mov	x7, x28
    eb34:	aa1b03e3 	mov	x3, x27
    eb38:	12800006 	mov	w6, #0xffffffff            	// #-1
    eb3c:	52800005 	mov	w5, #0x0                   	// #0
    eb40:	52800004 	mov	w4, #0x0                   	// #0
    eb44:	f9000fe8 	str	x8, [sp, #24]
    eb48:	94001172 	bl	13110 <_obstack_memory_used@@Base+0x62d0>
    eb4c:	aa0003e1 	mov	x1, x0
    eb50:	f9400fe8 	ldr	x8, [sp, #24]
    eb54:	b50030e0 	cbnz	x0, f170 <_obstack_memory_used@@Base+0x2330>
    eb58:	910042f7 	add	x23, x23, #0x10
    eb5c:	52800004 	mov	w4, #0x0                   	// #0
    eb60:	b900caff 	str	wzr, [x23, #200]
    eb64:	3942a280 	ldrb	w0, [x20, #168]
    eb68:	6a00031f 	tst	w24, w0
    eb6c:	54000d00 	b.eq	ed0c <_obstack_memory_used@@Base+0x1ecc>  // b.none
    eb70:	f9401be1 	ldr	x1, [sp, #48]
    eb74:	3903b3ff 	strb	wzr, [sp, #236]
    eb78:	b7f83281 	tbnz	x1, #63, f1c8 <_obstack_memory_used@@Base+0x2388>
    eb7c:	b203e7e3 	mov	x3, #0x6666666666666666    	// #7378697629483820646
    eb80:	9103b3e5 	add	x5, sp, #0xec
    eb84:	f28ccce3 	movk	x3, #0x6667
    eb88:	9b437c20 	smulh	x0, x1, x3
    eb8c:	9342fc00 	asr	x0, x0, #2
    eb90:	cb81fc00 	sub	x0, x0, x1, asr #63
    eb94:	8b000802 	add	x2, x0, x0, lsl #2
    eb98:	cb020422 	sub	x2, x1, x2, lsl #1
    eb9c:	aa0003e1 	mov	x1, x0
    eba0:	1100c040 	add	w0, w2, #0x30
    eba4:	381ffca0 	strb	w0, [x5, #-1]!
    eba8:	b5ffff01 	cbnz	x1, eb88 <_obstack_memory_used@@Base+0x1d48>
    ebac:	1400005a 	b	ed14 <_obstack_memory_used@@Base+0x1ed4>
    ebb0:	910ac2a0 	add	x0, x21, #0x2b0
    ebb4:	39722001 	ldrb	w1, [x0, #3208]
    ebb8:	3707e1a1 	tbnz	w1, #0, e7ec <_obstack_memory_used@@Base+0x19ac>
    ebbc:	3975b000 	ldrb	w0, [x0, #3436]
    ebc0:	3707e160 	tbnz	w0, #0, e7ec <_obstack_memory_used@@Base+0x19ac>
    ebc4:	8b1a0339 	add	x25, x25, x26
    ebc8:	d281c77c 	mov	x28, #0xe3b                 	// #3643
    ebcc:	cb130321 	sub	x1, x25, x19
    ebd0:	cb190260 	sub	x0, x19, x25
    ebd4:	eb1a003f 	cmp	x1, x26
    ebd8:	f0000119 	adrp	x25, 31000 <obstack_alloc_failed_handler@@Base+0xd90>
    ebdc:	9a9a2021 	csel	x1, x1, x26, cs	// cs = hs, nlast
    ebe0:	8b000033 	add	x19, x1, x0
    ebe4:	eb1c027f 	cmp	x19, x28
    ebe8:	9a9c227c 	csel	x28, x19, x28, cs	// cs = hs, nlast
    ebec:	17ffff13 	b	e838 <_obstack_memory_used@@Base+0x19f8>
    ebf0:	f9401282 	ldr	x2, [x20, #32]
    ebf4:	b0000065 	adrp	x5, 1b000 <_obstack_memory_used@@Base+0xe1c0>
    ebf8:	912c20a5 	add	x5, x5, #0xb08
    ebfc:	b4ffda22 	cbz	x2, e740 <_obstack_memory_used@@Base+0x1900>
    ec00:	b202e7e6 	mov	x6, #0xcccccccccccccccc    	// #-3689348814741910324
    ec04:	9103b3e5 	add	x5, sp, #0xec
    ec08:	f29999a6 	movk	x6, #0xcccd
    ec0c:	3903b3ff 	strb	wzr, [sp, #236]
    ec10:	9bc67c41 	umulh	x1, x2, x6
    ec14:	aa0203e3 	mov	x3, x2
    ec18:	d343fc21 	lsr	x1, x1, #3
    ec1c:	8b010820 	add	x0, x1, x1, lsl #2
    ec20:	cb000440 	sub	x0, x2, x0, lsl #1
    ec24:	aa0103e2 	mov	x2, x1
    ec28:	1100c000 	add	w0, w0, #0x30
    ec2c:	381ffca0 	strb	w0, [x5, #-1]!
    ec30:	f100247f 	cmp	x3, #0x9
    ec34:	54fffee8 	b.hi	ec10 <_obstack_memory_used@@Base+0x1dd0>  // b.pmore
    ec38:	17fffec2 	b	e740 <_obstack_memory_used@@Base+0x1900>
    ec3c:	7100007f 	cmp	w3, #0x0
    ec40:	52800a61 	mov	w1, #0x53                  	// #83
    ec44:	52800e63 	mov	w3, #0x73                  	// #115
    ec48:	1a830023 	csel	w3, w1, w3, eq	// eq = none
    ec4c:	17fffe80 	b	e64c <_obstack_memory_used@@Base+0x180c>
    ec50:	b0000060 	adrp	x0, 1b000 <_obstack_memory_used@@Base+0xe1c0>
    ec54:	d2800041 	mov	x1, #0x2                   	// #2
    ec58:	912c8000 	add	x0, x0, #0xb20
    ec5c:	97ffe1f5 	bl	7430 <setlocale@plt+0x35d0>
    ec60:	17fffedd 	b	e7d4 <_obstack_memory_used@@Base+0x1994>
    ec64:	3942a281 	ldrb	w1, [x20, #168]
    ec68:	b94c5802 	ldr	w2, [x0, #3160]
    ec6c:	b9403293 	ldr	w19, [x20, #48]
    ec70:	36002401 	tbz	w1, #0, f0f0 <_obstack_memory_used@@Base+0x22b0>
    ec74:	910ec321 	add	x1, x25, #0x3b0
    ec78:	d2800000 	mov	x0, #0x0                   	// #0
    ec7c:	38510021 	ldurb	w1, [x1, #-240]
    ec80:	360025a1 	tbz	w1, #0, f134 <_obstack_memory_used@@Base+0x22f4>
    ec84:	2a1303e1 	mov	w1, w19
    ec88:	97ffecee 	bl	a040 <setlocale@plt+0x61e0>
    ec8c:	910ac2a2 	add	x2, x21, #0x2b0
    ec90:	3975b040 	ldrb	w0, [x2, #3436]
    ec94:	3607dcc0 	tbz	w0, #0, e82c <_obstack_memory_used@@Base+0x19ec>
    ec98:	f9405280 	ldr	x0, [x20, #160]
    ec9c:	d2800001 	mov	x1, #0x0                   	// #0
    eca0:	b94c5c42 	ldr	w2, [x2, #3164]
    eca4:	97ffece7 	bl	a040 <setlocale@plt+0x61e0>
    eca8:	17fffee1 	b	e82c <_obstack_memory_used@@Base+0x19ec>
    ecac:	3942a281 	ldrb	w1, [x20, #168]
    ecb0:	910ac2a0 	add	x0, x21, #0x2b0
    ecb4:	b9403693 	ldr	w19, [x20, #52]
    ecb8:	b94c5402 	ldr	w2, [x0, #3156]
    ecbc:	36002141 	tbz	w1, #0, f0e4 <_obstack_memory_used@@Base+0x22a4>
    ecc0:	910ec321 	add	x1, x25, #0x3b0
    ecc4:	d2800000 	mov	x0, #0x0                   	// #0
    ecc8:	38510021 	ldurb	w1, [x1, #-240]
    eccc:	360023e1 	tbz	w1, #0, f148 <_obstack_memory_used@@Base+0x2308>
    ecd0:	2a1303e1 	mov	w1, w19
    ecd4:	97ffecdb 	bl	a040 <setlocale@plt+0x61e0>
    ecd8:	17fffecf 	b	e814 <_obstack_memory_used@@Base+0x19d4>
    ecdc:	3942a281 	ldrb	w1, [x20, #168]
    ece0:	910ac2a0 	add	x0, x21, #0x2b0
    ece4:	b9403293 	ldr	w19, [x20, #48]
    ece8:	b94c5002 	ldr	w2, [x0, #3152]
    ecec:	36001f61 	tbz	w1, #0, f0d8 <_obstack_memory_used@@Base+0x2298>
    ecf0:	910ec321 	add	x1, x25, #0x3b0
    ecf4:	d2800000 	mov	x0, #0x0                   	// #0
    ecf8:	38510021 	ldurb	w1, [x1, #-240]
    ecfc:	36002301 	tbz	w1, #0, f15c <_obstack_memory_used@@Base+0x231c>
    ed00:	2a1303e1 	mov	w1, w19
    ed04:	97ffeccf 	bl	a040 <setlocale@plt+0x61e0>
    ed08:	17fffec0 	b	e808 <_obstack_memory_used@@Base+0x19c8>
    ed0c:	b0000065 	adrp	x5, 1b000 <_obstack_memory_used@@Base+0xe1c0>
    ed10:	912c20a5 	add	x5, x5, #0xb08
    ed14:	aa1303e2 	mov	x2, x19
    ed18:	aa1a03e0 	mov	x0, x26
    ed1c:	b0000063 	adrp	x3, 1b000 <_obstack_memory_used@@Base+0xe1c0>
    ed20:	52800041 	mov	w1, #0x2                   	// #2
    ed24:	912c4063 	add	x3, x3, #0xb10
    ed28:	97ffd2ba 	bl	3810 <__sprintf_chk@plt>
    ed2c:	8b20c340 	add	x0, x26, w0, sxtw
    ed30:	cb160013 	sub	x19, x0, x22
    ed34:	aa1603e0 	mov	x0, x22
    ed38:	aa1303e1 	mov	x1, x19
    ed3c:	97ffe1bd 	bl	7430 <setlocale@plt+0x35d0>
    ed40:	910ec322 	add	x2, x25, #0x3b0
    ed44:	aa1303e3 	mov	x3, x19
    ed48:	d1030042 	sub	x2, x2, #0xc0
    ed4c:	aa1403e0 	mov	x0, x20
    ed50:	52800001 	mov	w1, #0x0                   	// #0
    ed54:	97fffbbb 	bl	dc40 <_obstack_memory_used@@Base+0xe00>
    ed58:	b9409a82 	ldr	w2, [x20, #152]
    ed5c:	aa0003f6 	mov	x22, x0
    ed60:	7100185f 	cmp	w2, #0x6
    ed64:	540002a0 	b.eq	edb8 <_obstack_memory_used@@Base+0x1f78>  // b.none
    ed68:	910ac2b5 	add	x21, x21, #0x2b0
    ed6c:	b94cd2a0 	ldr	w0, [x21, #3280]
    ed70:	350008a0 	cbnz	w0, ee84 <_obstack_memory_used@@Base+0x2044>
    ed74:	b0000100 	adrp	x0, 2f000 <_obstack_memory_used@@Base+0x221c0>
    ed78:	f947e800 	ldr	x0, [x0, #4048]
    ed7c:	f94987e2 	ldr	x2, [sp, #4872]
    ed80:	f9400001 	ldr	x1, [x0]
    ed84:	eb010042 	subs	x2, x2, x1
    ed88:	d2800001 	mov	x1, #0x0                   	// #0
    ed8c:	54002481 	b.ne	f21c <_obstack_memory_used@@Base+0x23dc>  // b.any
    ed90:	d282620d 	mov	x13, #0x1310                	// #4880
    ed94:	8b2d63ff 	add	sp, sp, x13
    ed98:	a94153f3 	ldp	x19, x20, [sp, #16]
    ed9c:	a9425bf5 	ldp	x21, x22, [sp, #32]
    eda0:	a94363f7 	ldp	x23, x24, [sp, #48]
    eda4:	a9446bf9 	ldp	x25, x26, [sp, #64]
    eda8:	a94573fb 	ldp	x27, x28, [sp, #80]
    edac:	a8c67bfd 	ldp	x29, x30, [sp], #96
    edb0:	d50323bf 	autiasp
    edb4:	d65f03c0 	ret
    edb8:	f9400680 	ldr	x0, [x20, #8]
    edbc:	b4fffdc0 	cbz	x0, ed74 <_obstack_memory_used@@Base+0x1f34>
    edc0:	d2800081 	mov	x1, #0x4                   	// #4
    edc4:	910ac2b5 	add	x21, x21, #0x2b0
    edc8:	b0000060 	adrp	x0, 1b000 <_obstack_memory_used@@Base+0xe1c0>
    edcc:	912ce000 	add	x0, x0, #0xb38
    edd0:	97ffe198 	bl	7430 <setlocale@plt+0x35d0>
    edd4:	910012c3 	add	x3, x22, #0x4
    edd8:	aa1403e0 	mov	x0, x20
    eddc:	8b130063 	add	x3, x3, x19
    ede0:	d2800002 	mov	x2, #0x0                   	// #0
    ede4:	52800021 	mov	w1, #0x1                   	// #1
    ede8:	97fffb96 	bl	dc40 <_obstack_memory_used@@Base+0xe00>
    edec:	b94cd2a0 	ldr	w0, [x21, #3280]
    edf0:	34fffc20 	cbz	w0, ed74 <_obstack_memory_used@@Base+0x1f34>
    edf4:	b9409e81 	ldr	w1, [x20, #156]
    edf8:	52800002 	mov	w2, #0x0                   	// #0
    edfc:	52800020 	mov	w0, #0x1                   	// #1
    ee00:	97fff044 	bl	af10 <setlocale@plt+0x70b0>
    ee04:	72001c01 	ands	w1, w0, #0xff
    ee08:	54fffb60 	b.eq	ed74 <_obstack_memory_used@@Base+0x1f34>  // b.none
    ee0c:	b0000102 	adrp	x2, 2f000 <_obstack_memory_used@@Base+0x221c0>
    ee10:	f947e042 	ldr	x2, [x2, #4032]
    ee14:	f9400aa3 	ldr	x3, [x21, #16]
    ee18:	f9400042 	ldr	x2, [x2]
    ee1c:	91000463 	add	x3, x3, #0x1
    ee20:	f9401844 	ldr	x4, [x2, #48]
    ee24:	f9000aa3 	str	x3, [x21, #16]
    ee28:	f9401443 	ldr	x3, [x2, #40]
    ee2c:	eb04007f 	cmp	x3, x4
    ee30:	54001f02 	b.cs	f210 <_obstack_memory_used@@Base+0x23d0>  // b.hs, b.nlast
    ee34:	91000461 	add	x1, x3, #0x1
    ee38:	f9001441 	str	x1, [x2, #40]
    ee3c:	39000060 	strb	w0, [x3]
    ee40:	17ffffcd 	b	ed74 <_obstack_memory_used@@Base+0x1f34>
    ee44:	a9470680 	ldp	x0, x1, [x20, #112]
    ee48:	a90307e0 	stp	x0, x1, [sp, #48]
    ee4c:	8a010000 	and	x0, x0, x1
    ee50:	b100041f 	cmn	x0, #0x1
    ee54:	1a9f07f8 	cset	w24, ne	// ne = any
    ee58:	17fffe33 	b	e724 <_obstack_memory_used@@Base+0x18e4>
    ee5c:	7100007f 	cmp	w3, #0x0
    ee60:	52800f00 	mov	w0, #0x78                  	// #120
    ee64:	1a800021 	csel	w1, w1, w0, eq	// eq = none
    ee68:	17fffe19 	b	e6cc <_obstack_memory_used@@Base+0x188c>
    ee6c:	7100007f 	cmp	w3, #0x0
    ee70:	52800f03 	mov	w3, #0x78                  	// #120
    ee74:	1a830023 	csel	w3, w1, w3, eq	// eq = none
    ee78:	17fffe05 	b	e68c <_obstack_memory_used@@Base+0x184c>
    ee7c:	aa1b03e3 	mov	x3, x27
    ee80:	17fffec1 	b	e984 <_obstack_memory_used@@Base+0x1b44>
    ee84:	b9402a81 	ldr	w1, [x20, #40]
    ee88:	3942a280 	ldrb	w0, [x20, #168]
    ee8c:	97fff021 	bl	af10 <setlocale@plt+0x70b0>
    ee90:	72001c01 	ands	w1, w0, #0xff
    ee94:	54fff700 	b.eq	ed74 <_obstack_memory_used@@Base+0x1f34>  // b.none
    ee98:	17ffffdd 	b	ee0c <_obstack_memory_used@@Base+0x1fcc>
    ee9c:	528005c0 	mov	w0, #0x2e                  	// #46
    eea0:	3902ebe0 	strb	w0, [sp, #186]
    eea4:	17fffe88 	b	e8c4 <_obstack_memory_used@@Base+0x1a84>
    eea8:	910ac2a0 	add	x0, x21, #0x2b0
    eeac:	b202e7e6 	mov	x6, #0xcccccccccccccccc    	// #-3689348814741910324
    eeb0:	f9401e89 	ldr	x9, [x20, #56]
    eeb4:	9103b3e5 	add	x5, sp, #0xec
    eeb8:	b94c6001 	ldr	w1, [x0, #3168]
    eebc:	f29999a6 	movk	x6, #0xcccd
    eec0:	b94c6402 	ldr	w2, [x0, #3172]
    eec4:	b94c6804 	ldr	w4, [x0, #3176]
    eec8:	11000820 	add	w0, w1, #0x2
    eecc:	0b020000 	add	w0, w0, w2
    eed0:	d360fd22 	lsr	x2, x9, #32
    eed4:	6b000084 	subs	w4, w4, w0
    eed8:	3903b3ff 	strb	wzr, [sp, #236]
    eedc:	1a9f5084 	csel	w4, w4, wzr, pl	// pl = nfrst
    eee0:	33084d22 	bfxil	w2, w9, #8, #12
    eee4:	0b010084 	add	w4, w4, w1
    eee8:	2a0203e2 	mov	w2, w2
    eeec:	d503201f 	nop
    eef0:	9bc67c41 	umulh	x1, x2, x6
    eef4:	aa0203e3 	mov	x3, x2
    eef8:	d343fc21 	lsr	x1, x1, #3
    eefc:	8b010820 	add	x0, x1, x1, lsl #2
    ef00:	cb000440 	sub	x0, x2, x0, lsl #1
    ef04:	aa0103e2 	mov	x2, x1
    ef08:	1100c000 	add	w0, w0, #0x30
    ef0c:	381ffca0 	strb	w0, [x5, #-1]!
    ef10:	f100247f 	cmp	x3, #0x9
    ef14:	54fffee8 	b.hi	eef0 <_obstack_memory_used@@Base+0x20b0>  // b.pmore
    ef18:	910ac2a0 	add	x0, x21, #0x2b0
    ef1c:	d34cfd22 	lsr	x2, x9, #12
    ef20:	b202e7e8 	mov	x8, #0xcccccccccccccccc    	// #-3689348814741910324
    ef24:	910353e7 	add	x7, sp, #0xd4
    ef28:	33001d22 	bfxil	w2, w9, #0, #8
    ef2c:	f29999a8 	movk	x8, #0xcccd
    ef30:	b94c6406 	ldr	w6, [x0, #3172]
    ef34:	390353ff 	strb	wzr, [sp, #212]
    ef38:	9bc87c41 	umulh	x1, x2, x8
    ef3c:	aa0203e3 	mov	x3, x2
    ef40:	d343fc21 	lsr	x1, x1, #3
    ef44:	8b010820 	add	x0, x1, x1, lsl #2
    ef48:	cb000440 	sub	x0, x2, x0, lsl #1
    ef4c:	aa0103e2 	mov	x2, x1
    ef50:	1100c000 	add	w0, w0, #0x30
    ef54:	381ffce0 	strb	w0, [x7, #-1]!
    ef58:	f100247f 	cmp	x3, #0x9
    ef5c:	54fffee8 	b.hi	ef38 <_obstack_memory_used@@Base+0x20f8>  // b.pmore
    ef60:	aa1303e2 	mov	x2, x19
    ef64:	52800041 	mov	w1, #0x2                   	// #2
    ef68:	aa1b03e0 	mov	x0, x27
    ef6c:	b0000063 	adrp	x3, 1b000 <_obstack_memory_used@@Base+0xe1c0>
    ef70:	912ca063 	add	x3, x3, #0xb28
    ef74:	97ffd227 	bl	3810 <__sprintf_chk@plt>
    ef78:	93407c1a 	sxtw	x26, w0
    ef7c:	8b1c0340 	add	x0, x26, x28
    ef80:	8b1a037a 	add	x26, x27, x26
    ef84:	cb130001 	sub	x1, x0, x19
    ef88:	cb000260 	sub	x0, x19, x0
    ef8c:	eb1c003f 	cmp	x1, x28
    ef90:	9a9c2021 	csel	x1, x1, x28, cs	// cs = hs, nlast
    ef94:	8b000033 	add	x19, x1, x0
    ef98:	52800020 	mov	w0, #0x1                   	// #1
    ef9c:	39000340 	strb	w0, [x26]
    efa0:	3942a280 	ldrb	w0, [x20, #168]
    efa4:	6a00031f 	tst	w24, w0
    efa8:	54ffd980 	b.eq	ead8 <_obstack_memory_used@@Base+0x1c98>  // b.none
    efac:	d503201f 	nop
    efb0:	910ec324 	add	x4, x25, #0x3b0
    efb4:	910103fb 	add	x27, sp, #0x40
    efb8:	aa1b03e2 	mov	x2, x27
    efbc:	9100c3e1 	add	x1, sp, #0x30
    efc0:	f9000fe4 	str	x4, [sp, #24]
    efc4:	f852809c 	ldur	x28, [x4, #-216]
    efc8:	aa1c03e0 	mov	x0, x28
    efcc:	97fff8f2 	bl	d394 <_obstack_memory_used@@Base+0x554>
    efd0:	b4000960 	cbz	x0, f0fc <_obstack_memory_used@@Base+0x22bc>
    efd4:	f9400fe4 	ldr	x4, [sp, #24]
    efd8:	a9430be5 	ldp	x5, x2, [sp, #48]
    efdc:	f8538080 	ldur	x0, [x4, #-200]
    efe0:	eb02001f 	cmp	x0, x2
    efe4:	f8530080 	ldur	x0, [x4, #-208]
    efe8:	1a9fd7e6 	cset	w6, gt
    efec:	1a9fa7e3 	cset	w3, lt	// lt = tstop
    eff0:	eb05001f 	cmp	x0, x5
    eff4:	4b0300c7 	sub	w7, w6, w3
    eff8:	1a9fd7e1 	cset	w1, gt
    effc:	1a9fa7e8 	cset	w8, lt	// lt = tstop
    f000:	4b080021 	sub	w1, w1, w8
    f004:	0b0104e1 	add	w1, w7, w1, lsl #1
    f008:	37f80c21 	tbnz	w1, #31, f18c <_obstack_memory_used@@Base+0x234c>
    f00c:	d17c3001 	sub	x1, x0, #0xf0c, lsl #12
    f010:	eb05001f 	cmp	x0, x5
    f014:	d10ab021 	sub	x1, x1, #0x2ac
    f018:	1a9fa7e0 	cset	w0, lt	// lt = tstop
    f01c:	1a9fd7e8 	cset	w8, gt
    f020:	910ac2a4 	add	x4, x21, #0x2b0
    f024:	eb05003f 	cmp	x1, x5
    f028:	4b080000 	sub	w0, w0, w8
    f02c:	1a9fa7e5 	cset	w5, lt	// lt = tstop
    f030:	1a9fd7e1 	cset	w1, gt
    f034:	4b050021 	sub	w1, w1, w5
    f038:	4b060063 	sub	w3, w3, w6
    f03c:	39708085 	ldrb	w5, [x4, #3104]
    f040:	0b000460 	add	w0, w3, w0, lsl #1
    f044:	0b0104e1 	add	w1, w7, w1, lsl #1
    f048:	0a010000 	and	w0, w0, w1
    f04c:	2a0203e1 	mov	w1, w2
    f050:	531f7c00 	lsr	w0, w0, #31
    f054:	36000645 	tbz	w5, #0, f11c <_obstack_memory_used@@Base+0x22dc>
    f058:	7100001f 	cmp	w0, #0x0
    f05c:	b98053e0 	ldrsw	x0, [sp, #80]
    f060:	d2800182 	mov	x2, #0xc                   	// #12
    f064:	9a9f1042 	csel	x2, x2, xzr, ne	// ne = any
    f068:	8b000042 	add	x2, x2, x0
    f06c:	91008084 	add	x4, x4, #0x20
    f070:	8b021c82 	add	x2, x4, x2, lsl #7
    f074:	b90003e1 	str	w1, [sp]
    f078:	aa1c03e7 	mov	x7, x28
    f07c:	aa1b03e3 	mov	x3, x27
    f080:	aa1a03e0 	mov	x0, x26
    f084:	12800006 	mov	w6, #0xffffffff            	// #-1
    f088:	52800005 	mov	w5, #0x0                   	// #0
    f08c:	52800004 	mov	w4, #0x0                   	// #0
    f090:	d2807d21 	mov	x1, #0x3e9                 	// #1001
    f094:	9400101f 	bl	13110 <_obstack_memory_used@@Base+0x62d0>
    f098:	b4000320 	cbz	x0, f0fc <_obstack_memory_used@@Base+0x22bc>
    f09c:	8b00035a 	add	x26, x26, x0
    f0a0:	aa1a03e0 	mov	x0, x26
    f0a4:	52800401 	mov	w1, #0x20                  	// #32
    f0a8:	38001401 	strb	w1, [x0], #1
    f0ac:	17ffff21 	b	ed30 <_obstack_memory_used@@Base+0x1ef0>
    f0b0:	f9402e80 	ldr	x0, [x20, #88]
    f0b4:	910363e1 	add	x1, sp, #0xd8
    f0b8:	f946b0a4 	ldr	x4, [x5, #3424]
    f0bc:	d2804003 	mov	x3, #0x200                 	// #512
    f0c0:	b94d68a2 	ldr	w2, [x5, #3432]
    f0c4:	97fff37b 	bl	beb0 <setlocale@plt+0x8050>
    f0c8:	aa0003fc 	mov	x28, x0
    f0cc:	97ffd1cd 	bl	3800 <strlen@plt>
    f0d0:	aa0003e1 	mov	x1, x0
    f0d4:	17fffe14 	b	e924 <_obstack_memory_used@@Base+0x1ae4>
    f0d8:	90000060 	adrp	x0, 1b000 <_obstack_memory_used@@Base+0xe1c0>
    f0dc:	912c2000 	add	x0, x0, #0xb08
    f0e0:	17ffff08 	b	ed00 <_obstack_memory_used@@Base+0x1ec0>
    f0e4:	90000060 	adrp	x0, 1b000 <_obstack_memory_used@@Base+0xe1c0>
    f0e8:	912c2000 	add	x0, x0, #0xb08
    f0ec:	17fffef9 	b	ecd0 <_obstack_memory_used@@Base+0x1e90>
    f0f0:	90000060 	adrp	x0, 1b000 <_obstack_memory_used@@Base+0xe1c0>
    f0f4:	912c2000 	add	x0, x0, #0xb08
    f0f8:	17fffee3 	b	ec84 <_obstack_memory_used@@Base+0x1e44>
    f0fc:	39400340 	ldrb	w0, [x26]
    f100:	34fffd00 	cbz	w0, f0a0 <_obstack_memory_used@@Base+0x2260>
    f104:	910042e0 	add	x0, x23, #0x10
    f108:	b940c804 	ldr	w4, [x0, #200]
    f10c:	36ffd2c4 	tbz	w4, #31, eb64 <_obstack_memory_used@@Base+0x1d24>
    f110:	17fffe75 	b	eae4 <_obstack_memory_used@@Base+0x1ca4>
    f114:	aa1b03fa 	mov	x26, x27
    f118:	17fffe5c 	b	ea88 <_obstack_memory_used@@Base+0x1c48>
    f11c:	b0000102 	adrp	x2, 30000 <_obstack_memory_used@@Base+0x231c0>
    f120:	91038042 	add	x2, x2, #0xe0
    f124:	f8607842 	ldr	x2, [x2, x0, lsl #3]
    f128:	17ffffd3 	b	f074 <_obstack_memory_used@@Base+0x2234>
    f12c:	aa1b03e3 	mov	x3, x27
    f130:	17fffe14 	b	e980 <_obstack_memory_used@@Base+0x1b40>
    f134:	2a1303e0 	mov	w0, w19
    f138:	b9001be2 	str	w2, [sp, #24]
    f13c:	97fffc71 	bl	e300 <_obstack_memory_used@@Base+0x14c0>
    f140:	b9401be2 	ldr	w2, [sp, #24]
    f144:	17fffed0 	b	ec84 <_obstack_memory_used@@Base+0x1e44>
    f148:	2a1303e0 	mov	w0, w19
    f14c:	b9001be2 	str	w2, [sp, #24]
    f150:	97fffcc9 	bl	e474 <_obstack_memory_used@@Base+0x1634>
    f154:	b9401be2 	ldr	w2, [sp, #24]
    f158:	17fffede 	b	ecd0 <_obstack_memory_used@@Base+0x1e90>
    f15c:	2a1303e0 	mov	w0, w19
    f160:	b9001be2 	str	w2, [sp, #24]
    f164:	97fffc67 	bl	e300 <_obstack_memory_used@@Base+0x14c0>
    f168:	b9401be2 	ldr	w2, [sp, #24]
    f16c:	17fffee5 	b	ed00 <_obstack_memory_used@@Base+0x1ec0>
    f170:	aa0803e0 	mov	x0, x8
    f174:	94000e37 	bl	12a50 <_obstack_memory_used@@Base+0x5c10>
    f178:	910042e1 	add	x1, x23, #0x10
    f17c:	2a0003e4 	mov	w4, w0
    f180:	b900c820 	str	w0, [x1, #200]
    f184:	36ffcf00 	tbz	w0, #31, eb64 <_obstack_memory_used@@Base+0x1d24>
    f188:	17fffe74 	b	eb58 <_obstack_memory_used@@Base+0x1d18>
    f18c:	d1034081 	sub	x1, x4, #0xd0
    f190:	52800000 	mov	w0, #0x0                   	// #0
    f194:	97ffd1e3 	bl	3920 <clock_gettime@plt>
    f198:	f9400fe4 	ldr	x4, [sp, #24]
    f19c:	a9430be5 	ldp	x5, x2, [sp, #48]
    f1a0:	f8538080 	ldur	x0, [x4, #-200]
    f1a4:	eb02001f 	cmp	x0, x2
    f1a8:	1a9fd7e6 	cset	w6, gt
    f1ac:	1a9fa7e3 	cset	w3, lt	// lt = tstop
    f1b0:	f8530080 	ldur	x0, [x4, #-208]
    f1b4:	4b0300c7 	sub	w7, w6, w3
    f1b8:	17ffff95 	b	f00c <_obstack_memory_used@@Base+0x21cc>
    f1bc:	b0000100 	adrp	x0, 30000 <_obstack_memory_used@@Base+0x231c0>
    f1c0:	f9407002 	ldr	x2, [x0, #224]
    f1c4:	17fffe57 	b	eb20 <_obstack_memory_used@@Base+0x1ce0>
    f1c8:	b203e7e7 	mov	x7, #0x6666666666666666    	// #7378697629483820646
    f1cc:	9103b3e3 	add	x3, sp, #0xec
    f1d0:	f28ccce7 	movk	x7, #0x6667
    f1d4:	52800606 	mov	w6, #0x30                  	// #48
    f1d8:	9b477c20 	smulh	x0, x1, x7
    f1dc:	aa0303e5 	mov	x5, x3
    f1e0:	9342fc00 	asr	x0, x0, #2
    f1e4:	cb81fc00 	sub	x0, x0, x1, asr #63
    f1e8:	8b000802 	add	x2, x0, x0, lsl #2
    f1ec:	cb020422 	sub	x2, x1, x2, lsl #1
    f1f0:	aa0003e1 	mov	x1, x0
    f1f4:	4b0200c0 	sub	w0, w6, w2
    f1f8:	381ffc60 	strb	w0, [x3, #-1]!
    f1fc:	b5fffee1 	cbnz	x1, f1d8 <_obstack_memory_used@@Base+0x2398>
    f200:	528005a0 	mov	w0, #0x2d                  	// #45
    f204:	d10008a5 	sub	x5, x5, #0x2
    f208:	381ff060 	sturb	w0, [x3, #-1]
    f20c:	17fffec2 	b	ed14 <_obstack_memory_used@@Base+0x1ed4>
    f210:	aa0203e0 	mov	x0, x2
    f214:	97ffd267 	bl	3bb0 <__overflow@plt>
    f218:	17fffed7 	b	ed74 <_obstack_memory_used@@Base+0x1f34>
    f21c:	97ffd23d 	bl	3b10 <__stack_chk_fail@plt>
    f220:	d503233f 	paciasp
    f224:	a9b97bfd 	stp	x29, x30, [sp, #-112]!
    f228:	910003fd 	mov	x29, sp
    f22c:	a90573fb 	stp	x27, x28, [sp, #80]
    f230:	b000011b 	adrp	x27, 30000 <_obstack_memory_used@@Base+0x231c0>
    f234:	910ac37b 	add	x27, x27, #0x2b0
    f238:	b94c7f60 	ldr	w0, [x27, #3196]
    f23c:	7100081f 	cmp	w0, #0x2
    f240:	54000b60 	b.eq	f3ac <_obstack_memory_used@@Base+0x256c>  // b.none
    f244:	54000149 	b.ls	f26c <_obstack_memory_used@@Base+0x242c>  // b.plast
    f248:	71000c1f 	cmp	w0, #0x3
    f24c:	540013c0 	b.eq	f4c4 <_obstack_memory_used@@Base+0x2684>  // b.none
    f250:	7100101f 	cmp	w0, #0x4
    f254:	54000481 	b.ne	f2e4 <_obstack_memory_used@@Base+0x24a4>  // b.any
    f258:	a94573fb 	ldp	x27, x28, [sp, #80]
    f25c:	52800580 	mov	w0, #0x2c                  	// #44
    f260:	a8c77bfd 	ldp	x29, x30, [sp], #112
    f264:	d50323bf 	autiasp
    f268:	17fff5ae 	b	c920 <setlocale@plt+0x8ac0>
    f26c:	34000440 	cbz	w0, f2f4 <_obstack_memory_used@@Base+0x24b4>
    f270:	f9461b60 	ldr	x0, [x27, #3120]
    f274:	b4000380 	cbz	x0, f2e4 <_obstack_memory_used@@Base+0x24a4>
    f278:	a9046bf9 	stp	x25, x26, [sp, #64]
    f27c:	90000119 	adrp	x25, 2f000 <_obstack_memory_used@@Base+0x221c0>
    f280:	f947e339 	ldr	x25, [x25, #4032]
    f284:	a90363f7 	stp	x23, x24, [sp, #48]
    f288:	b0000118 	adrp	x24, 30000 <_obstack_memory_used@@Base+0x231c0>
    f28c:	91004318 	add	x24, x24, #0x10
    f290:	a90153f3 	stp	x19, x20, [sp, #16]
    f294:	d2800013 	mov	x19, #0x0                   	// #0
    f298:	f9461f60 	ldr	x0, [x27, #3128]
    f29c:	d2800001 	mov	x1, #0x0                   	// #0
    f2a0:	f8737800 	ldr	x0, [x0, x19, lsl #3]
    f2a4:	94001d38 	bl	16784 <_obstack_memory_used@@Base+0x9944>
    f2a8:	f9400320 	ldr	x0, [x25]
    f2ac:	3942f301 	ldrb	w1, [x24, #188]
    f2b0:	a9428c02 	ldp	x2, x3, [x0, #40]
    f2b4:	91000444 	add	x4, x2, #0x1
    f2b8:	eb03005f 	cmp	x2, x3
    f2bc:	54001b22 	b.cs	f620 <_obstack_memory_used@@Base+0x27e0>  // b.hs, b.nlast
    f2c0:	f9001404 	str	x4, [x0, #40]
    f2c4:	39000041 	strb	w1, [x2]
    f2c8:	f9461b60 	ldr	x0, [x27, #3120]
    f2cc:	91000673 	add	x19, x19, #0x1
    f2d0:	eb13001f 	cmp	x0, x19
    f2d4:	54fffe28 	b.hi	f298 <_obstack_memory_used@@Base+0x2458>  // b.pmore
    f2d8:	a94153f3 	ldp	x19, x20, [sp, #16]
    f2dc:	a94363f7 	ldp	x23, x24, [sp, #48]
    f2e0:	a9446bf9 	ldp	x25, x26, [sp, #64]
    f2e4:	a94573fb 	ldp	x27, x28, [sp, #80]
    f2e8:	a8c77bfd 	ldp	x29, x30, [sp], #112
    f2ec:	d50323bf 	autiasp
    f2f0:	d65f03c0 	ret
    f2f4:	f9461b60 	ldr	x0, [x27, #3120]
    f2f8:	b4ffff60 	cbz	x0, f2e4 <_obstack_memory_used@@Base+0x24a4>
    f2fc:	a90153f3 	stp	x19, x20, [sp, #16]
    f300:	b0000114 	adrp	x20, 30000 <_obstack_memory_used@@Base+0x231c0>
    f304:	91038294 	add	x20, x20, #0xe0
    f308:	d2800013 	mov	x19, #0x0                   	// #0
    f30c:	a9025bf5 	stp	x21, x22, [sp, #32]
    f310:	91004296 	add	x22, x20, #0x10
    f314:	91008295 	add	x21, x20, #0x20
    f318:	a90363f7 	stp	x23, x24, [sp, #48]
    f31c:	b0000118 	adrp	x24, 30000 <_obstack_memory_used@@Base+0x231c0>
    f320:	a9046bf9 	stp	x25, x26, [sp, #64]
    f324:	90000119 	adrp	x25, 2f000 <_obstack_memory_used@@Base+0x221c0>
    f328:	f947e339 	ldr	x25, [x25, #4032]
    f32c:	14000014 	b	f37c <_obstack_memory_used@@Base+0x253c>
    f330:	f9461f60 	ldr	x0, [x27, #3128]
    f334:	f8737800 	ldr	x0, [x0, x19, lsl #3]
    f338:	97fffc8a 	bl	e560 <_obstack_memory_used@@Base+0x1720>
    f33c:	f9400320 	ldr	x0, [x25]
    f340:	91004301 	add	x1, x24, #0x10
    f344:	f9400b62 	ldr	x2, [x27, #16]
    f348:	a9429003 	ldp	x3, x4, [x0, #40]
    f34c:	91000442 	add	x2, x2, #0x1
    f350:	f9000b62 	str	x2, [x27, #16]
    f354:	3942f021 	ldrb	w1, [x1, #188]
    f358:	91000465 	add	x5, x3, #0x1
    f35c:	eb04007f 	cmp	x3, x4
    f360:	54001642 	b.cs	f628 <_obstack_memory_used@@Base+0x27e8>  // b.hs, b.nlast
    f364:	f9001405 	str	x5, [x0, #40]
    f368:	39000061 	strb	w1, [x3]
    f36c:	f9461b60 	ldr	x0, [x27, #3120]
    f370:	91000673 	add	x19, x19, #0x1
    f374:	eb13001f 	cmp	x0, x19
    f378:	54000969 	b.ls	f4a4 <_obstack_memory_used@@Base+0x2664>  // b.plast
    f37c:	397f8761 	ldrb	w1, [x27, #4065]
    f380:	52800080 	mov	w0, #0x4                   	// #4
    f384:	3607fd61 	tbz	w1, #0, f330 <_obstack_memory_used@@Base+0x24f0>
    f388:	97ffee46 	bl	aca0 <setlocale@plt+0x6e40>
    f38c:	3607fd20 	tbz	w0, #0, f330 <_obstack_memory_used@@Base+0x24f0>
    f390:	aa1603e0 	mov	x0, x22
    f394:	97ffef1b 	bl	b000 <setlocale@plt+0x71a0>
    f398:	91014280 	add	x0, x20, #0x50
    f39c:	97ffef19 	bl	b000 <setlocale@plt+0x71a0>
    f3a0:	aa1503e0 	mov	x0, x21
    f3a4:	97ffef17 	bl	b000 <setlocale@plt+0x71a0>
    f3a8:	17ffffe2 	b	f330 <_obstack_memory_used@@Base+0x24f0>
    f3ac:	f946bb60 	ldr	x0, [x27, #3440]
    f3b0:	b40012e0 	cbz	x0, f60c <_obstack_memory_used@@Base+0x27cc>
    f3b4:	52800020 	mov	w0, #0x1                   	// #1
    f3b8:	a9025bf5 	stp	x21, x22, [sp, #32]
    f3bc:	a90363f7 	stp	x23, x24, [sp, #48]
    f3c0:	97fffb20 	bl	e040 <_obstack_memory_used@@Base+0x1200>
    f3c4:	d0000101 	adrp	x1, 31000 <obstack_alloc_failed_handler@@Base+0xd90>
    f3c8:	f9461b62 	ldr	x2, [x27, #3120]
    f3cc:	f9415837 	ldr	x23, [x1, #688]
    f3d0:	8b000401 	add	x1, x0, x0, lsl #1
    f3d4:	9ac00856 	udiv	x22, x2, x0
    f3d8:	d37df021 	lsl	x1, x1, #3
    f3dc:	d1006021 	sub	x1, x1, #0x18
    f3e0:	8b0102f7 	add	x23, x23, x1
    f3e4:	9b008ac0 	msub	x0, x22, x0, x2
    f3e8:	f100001f 	cmp	x0, #0x0
    f3ec:	9a9606d6 	cinc	x22, x22, ne	// ne = any
    f3f0:	b4001316 	cbz	x22, f650 <_obstack_memory_used@@Base+0x2810>
    f3f4:	a9046bf9 	stp	x25, x26, [sp, #64]
    f3f8:	b0000118 	adrp	x24, 30000 <_obstack_memory_used@@Base+0x231c0>
    f3fc:	d280001a 	mov	x26, #0x0                   	// #0
    f400:	90000119 	adrp	x25, 2f000 <_obstack_memory_used@@Base+0x221c0>
    f404:	f947e339 	ldr	x25, [x25, #4032]
    f408:	91004300 	add	x0, x24, #0x10
    f40c:	a90153f3 	stp	x19, x20, [sp, #16]
    f410:	f90037e0 	str	x0, [sp, #104]
    f414:	d503201f 	nop
    f418:	aa1a03fc 	mov	x28, x26
    f41c:	d2800015 	mov	x21, #0x0                   	// #0
    f420:	d2800014 	mov	x20, #0x0                   	// #0
    f424:	14000003 	b	f430 <_obstack_memory_used@@Base+0x25f0>
    f428:	aa1403e1 	mov	x1, x20
    f42c:	97ffdfc5 	bl	7340 <setlocale@plt+0x34e0>
    f430:	f9461f60 	ldr	x0, [x27, #3128]
    f434:	f87c7818 	ldr	x24, [x0, x28, lsl #3]
    f438:	8b16039c 	add	x28, x28, x22
    f43c:	aa1803e0 	mov	x0, x24
    f440:	97fff4bc 	bl	c730 <setlocale@plt+0x88d0>
    f444:	f9400ae3 	ldr	x3, [x23, #16]
    f448:	aa1403e1 	mov	x1, x20
    f44c:	aa0003f3 	mov	x19, x0
    f450:	aa1803e0 	mov	x0, x24
    f454:	f8756878 	ldr	x24, [x3, x21]
    f458:	94001ccb 	bl	16784 <_obstack_memory_used@@Base+0x9944>
    f45c:	f9461b61 	ldr	x1, [x27, #3120]
    f460:	8b140260 	add	x0, x19, x20
    f464:	910022b5 	add	x21, x21, #0x8
    f468:	8b180294 	add	x20, x20, x24
    f46c:	eb01039f 	cmp	x28, x1
    f470:	54fffdc3 	b.cc	f428 <_obstack_memory_used@@Base+0x25e8>  // b.lo, b.ul, b.last
    f474:	f9400320 	ldr	x0, [x25]
    f478:	f94037e1 	ldr	x1, [sp, #104]
    f47c:	a9428c02 	ldp	x2, x3, [x0, #40]
    f480:	3942f021 	ldrb	w1, [x1, #188]
    f484:	eb03005f 	cmp	x2, x3
    f488:	54000d42 	b.cs	f630 <_obstack_memory_used@@Base+0x27f0>  // b.hs, b.nlast
    f48c:	91000443 	add	x3, x2, #0x1
    f490:	f9001403 	str	x3, [x0, #40]
    f494:	39000041 	strb	w1, [x2]
    f498:	9100075a 	add	x26, x26, #0x1
    f49c:	eb1a02df 	cmp	x22, x26
    f4a0:	54fffbc1 	b.ne	f418 <_obstack_memory_used@@Base+0x25d8>  // b.any
    f4a4:	a94153f3 	ldp	x19, x20, [sp, #16]
    f4a8:	a9425bf5 	ldp	x21, x22, [sp, #32]
    f4ac:	a94363f7 	ldp	x23, x24, [sp, #48]
    f4b0:	a9446bf9 	ldp	x25, x26, [sp, #64]
    f4b4:	a94573fb 	ldp	x27, x28, [sp, #80]
    f4b8:	a8c77bfd 	ldp	x29, x30, [sp], #112
    f4bc:	d50323bf 	autiasp
    f4c0:	d65f03c0 	ret
    f4c4:	f946bb60 	ldr	x0, [x27, #3440]
    f4c8:	b4000a20 	cbz	x0, f60c <_obstack_memory_used@@Base+0x27cc>
    f4cc:	52800000 	mov	w0, #0x0                   	// #0
    f4d0:	a90153f3 	stp	x19, x20, [sp, #16]
    f4d4:	a9025bf5 	stp	x21, x22, [sp, #32]
    f4d8:	a90363f7 	stp	x23, x24, [sp, #48]
    f4dc:	a9046bf9 	stp	x25, x26, [sp, #64]
    f4e0:	97fffad8 	bl	e040 <_obstack_memory_used@@Base+0x1200>
    f4e4:	d0000101 	adrp	x1, 31000 <obstack_alloc_failed_handler@@Base+0xd90>
    f4e8:	f9461f62 	ldr	x2, [x27, #3128]
    f4ec:	aa0003f5 	mov	x21, x0
    f4f0:	8b000400 	add	x0, x0, x0, lsl #1
    f4f4:	f9415836 	ldr	x22, [x1, #688]
    f4f8:	d37df000 	lsl	x0, x0, #3
    f4fc:	f9400053 	ldr	x19, [x2]
    f500:	d1006000 	sub	x0, x0, #0x18
    f504:	8b0002d6 	add	x22, x22, x0
    f508:	aa1303e0 	mov	x0, x19
    f50c:	97fff489 	bl	c730 <setlocale@plt+0x88d0>
    f510:	d2800001 	mov	x1, #0x0                   	// #0
    f514:	aa0003fa 	mov	x26, x0
    f518:	f9400ac2 	ldr	x2, [x22, #16]
    f51c:	aa1303e0 	mov	x0, x19
    f520:	f9400042 	ldr	x2, [x2]
    f524:	f90037e2 	str	x2, [sp, #104]
    f528:	94001c97 	bl	16784 <_obstack_memory_used@@Base+0x9944>
    f52c:	f9461b60 	ldr	x0, [x27, #3120]
    f530:	f94037e2 	ldr	x2, [sp, #104]
    f534:	f100041f 	cmp	x0, #0x1
    f538:	54000849 	b.ls	f640 <_obstack_memory_used@@Base+0x2800>  // b.plast
    f53c:	90000119 	adrp	x25, 2f000 <_obstack_memory_used@@Base+0x221c0>
    f540:	f947e339 	ldr	x25, [x25, #4032]
    f544:	b0000118 	adrp	x24, 30000 <_obstack_memory_used@@Base+0x231c0>
    f548:	91004317 	add	x23, x24, #0x10
    f54c:	d280001c 	mov	x28, #0x0                   	// #0
    f550:	d2800033 	mov	x19, #0x1                   	// #1
    f554:	d503201f 	nop
    f558:	9ad50a74 	udiv	x20, x19, x21
    f55c:	9b15ce94 	msub	x20, x20, x21, x19
    f560:	b50004d4 	cbnz	x20, f5f8 <_obstack_memory_used@@Base+0x27b8>
    f564:	f9400320 	ldr	x0, [x25]
    f568:	3942f2e1 	ldrb	w1, [x23, #188]
    f56c:	a9428c02 	ldp	x2, x3, [x0, #40]
    f570:	91000444 	add	x4, x2, #0x1
    f574:	eb03005f 	cmp	x2, x3
    f578:	54000602 	b.cs	f638 <_obstack_memory_used@@Base+0x27f8>  // b.hs, b.nlast
    f57c:	f9001404 	str	x4, [x0, #40]
    f580:	39000041 	strb	w1, [x2]
    f584:	d280001c 	mov	x28, #0x0                   	// #0
    f588:	f9461f60 	ldr	x0, [x27, #3128]
    f58c:	aa1c03e1 	mov	x1, x28
    f590:	f873781a 	ldr	x26, [x0, x19, lsl #3]
    f594:	91000673 	add	x19, x19, #0x1
    f598:	aa1a03e0 	mov	x0, x26
    f59c:	94001c7a 	bl	16784 <_obstack_memory_used@@Base+0x9944>
    f5a0:	aa1a03e0 	mov	x0, x26
    f5a4:	97fff463 	bl	c730 <setlocale@plt+0x88d0>
    f5a8:	f9400ac1 	ldr	x1, [x22, #16]
    f5ac:	aa0003fa 	mov	x26, x0
    f5b0:	f9461b60 	ldr	x0, [x27, #3120]
    f5b4:	f8747822 	ldr	x2, [x1, x20, lsl #3]
    f5b8:	eb00027f 	cmp	x19, x0
    f5bc:	54fffce3 	b.cc	f558 <_obstack_memory_used@@Base+0x2718>  // b.lo, b.ul, b.last
    f5c0:	f9400320 	ldr	x0, [x25]
    f5c4:	91004318 	add	x24, x24, #0x10
    f5c8:	a9428c02 	ldp	x2, x3, [x0, #40]
    f5cc:	3942f301 	ldrb	w1, [x24, #188]
    f5d0:	eb03005f 	cmp	x2, x3
    f5d4:	54000442 	b.cs	f65c <_obstack_memory_used@@Base+0x281c>  // b.hs, b.nlast
    f5d8:	91000443 	add	x3, x2, #0x1
    f5dc:	f9001403 	str	x3, [x0, #40]
    f5e0:	39000041 	strb	w1, [x2]
    f5e4:	a94153f3 	ldp	x19, x20, [sp, #16]
    f5e8:	a9425bf5 	ldp	x21, x22, [sp, #32]
    f5ec:	a94363f7 	ldp	x23, x24, [sp, #48]
    f5f0:	a9446bf9 	ldp	x25, x26, [sp, #64]
    f5f4:	17ffff3c 	b	f2e4 <_obstack_memory_used@@Base+0x24a4>
    f5f8:	8b1a0380 	add	x0, x28, x26
    f5fc:	8b02039c 	add	x28, x28, x2
    f600:	aa1c03e1 	mov	x1, x28
    f604:	97ffdf4f 	bl	7340 <setlocale@plt+0x34e0>
    f608:	17ffffe0 	b	f588 <_obstack_memory_used@@Base+0x2748>
    f60c:	a94573fb 	ldp	x27, x28, [sp, #80]
    f610:	52800400 	mov	w0, #0x20                  	// #32
    f614:	a8c77bfd 	ldp	x29, x30, [sp], #112
    f618:	d50323bf 	autiasp
    f61c:	17fff4c1 	b	c920 <setlocale@plt+0x8ac0>
    f620:	97ffd164 	bl	3bb0 <__overflow@plt>
    f624:	17ffff29 	b	f2c8 <_obstack_memory_used@@Base+0x2488>
    f628:	97ffd162 	bl	3bb0 <__overflow@plt>
    f62c:	17ffff50 	b	f36c <_obstack_memory_used@@Base+0x252c>
    f630:	97ffd160 	bl	3bb0 <__overflow@plt>
    f634:	17ffff99 	b	f498 <_obstack_memory_used@@Base+0x2658>
    f638:	97ffd15e 	bl	3bb0 <__overflow@plt>
    f63c:	17ffffd2 	b	f584 <_obstack_memory_used@@Base+0x2744>
    f640:	90000119 	adrp	x25, 2f000 <_obstack_memory_used@@Base+0x221c0>
    f644:	f947e339 	ldr	x25, [x25, #4032]
    f648:	b0000118 	adrp	x24, 30000 <_obstack_memory_used@@Base+0x231c0>
    f64c:	17ffffdd 	b	f5c0 <_obstack_memory_used@@Base+0x2780>
    f650:	a9425bf5 	ldp	x21, x22, [sp, #32]
    f654:	a94363f7 	ldp	x23, x24, [sp, #48]
    f658:	17ffff23 	b	f2e4 <_obstack_memory_used@@Base+0x24a4>
    f65c:	a94153f3 	ldp	x19, x20, [sp, #16]
    f660:	a9425bf5 	ldp	x21, x22, [sp, #32]
    f664:	a94363f7 	ldp	x23, x24, [sp, #48]
    f668:	a9446bf9 	ldp	x25, x26, [sp, #64]
    f66c:	a94573fb 	ldp	x27, x28, [sp, #80]
    f670:	a8c77bfd 	ldp	x29, x30, [sp], #112
    f674:	d50323bf 	autiasp
    f678:	17ffd14e 	b	3bb0 <__overflow@plt>
    f67c:	d503201f 	nop
    f680:	d503233f 	paciasp
    f684:	a9bd7bfd 	stp	x29, x30, [sp, #-48]!
    f688:	910003fd 	mov	x29, sp
    f68c:	f9400026 	ldr	x6, [x1]
    f690:	a90153f3 	stp	x19, x20, [sp, #16]
    f694:	aa0103f4 	mov	x20, x1
    f698:	a9025bf5 	stp	x21, x22, [sp, #32]
    f69c:	aa0003f5 	mov	x21, x0
    f6a0:	9341fcd3 	asr	x19, x6, #1
    f6a4:	ab060273 	adds	x19, x19, x6
    f6a8:	54000626 	b.vs	f76c <_obstack_memory_used@@Base+0x292c>
    f6ac:	b100047f 	cmn	x3, #0x1
    f6b0:	54000060 	b.eq	f6bc <_obstack_memory_used@@Base+0x287c>  // b.none
    f6b4:	eb03027f 	cmp	x19, x3
    f6b8:	9a83d273 	csel	x19, x19, x3, le
    f6bc:	9b047e61 	mul	x1, x19, x4
    f6c0:	9b447e60 	smulh	x0, x19, x4
    f6c4:	eb81fc1f 	cmp	x0, x1, asr #63
    f6c8:	540004e1 	b.ne	f764 <_obstack_memory_used@@Base+0x2924>  // b.any
    f6cc:	f101fc3f 	cmp	x1, #0x7f
    f6d0:	5400030d 	b.le	f730 <_obstack_memory_used@@Base+0x28f0>
    f6d4:	b4000395 	cbz	x21, f744 <_obstack_memory_used@@Base+0x2904>
    f6d8:	cb060260 	sub	x0, x19, x6
    f6dc:	eb02001f 	cmp	x0, x2
    f6e0:	540003aa 	b.ge	f754 <_obstack_memory_used@@Base+0x2914>  // b.tcont
    f6e4:	ab0200d3 	adds	x19, x6, x2
    f6e8:	540003c6 	b.vs	f760 <_obstack_memory_used@@Base+0x2920>
    f6ec:	eb03027f 	cmp	x19, x3
    f6f0:	ba41c864 	ccmn	x3, #0x1, #0x4, gt
    f6f4:	54000361 	b.ne	f760 <_obstack_memory_used@@Base+0x2920>  // b.any
    f6f8:	9b047e76 	mul	x22, x19, x4
    f6fc:	9b447e64 	smulh	x4, x19, x4
    f700:	eb96fc9f 	cmp	x4, x22, asr #63
    f704:	540002e1 	b.ne	f760 <_obstack_memory_used@@Base+0x2920>  // b.any
    f708:	aa1603e1 	mov	x1, x22
    f70c:	aa1503e0 	mov	x0, x21
    f710:	97ffd0f4 	bl	3ae0 <realloc@plt>
    f714:	b4000300 	cbz	x0, f774 <_obstack_memory_used@@Base+0x2934>
    f718:	a9425bf5 	ldp	x21, x22, [sp, #32]
    f71c:	f9000293 	str	x19, [x20]
    f720:	a94153f3 	ldp	x19, x20, [sp, #16]
    f724:	a8c37bfd 	ldp	x29, x30, [sp], #48
    f728:	d50323bf 	autiasp
    f72c:	d65f03c0 	ret
    f730:	d2801005 	mov	x5, #0x80                  	// #128
    f734:	9ac408b3 	udiv	x19, x5, x4
    f738:	9b049660 	msub	x0, x19, x4, x5
    f73c:	cb0000a1 	sub	x1, x5, x0
    f740:	b5fffcd5 	cbnz	x21, f6d8 <_obstack_memory_used@@Base+0x2898>
    f744:	cb060260 	sub	x0, x19, x6
    f748:	f900029f 	str	xzr, [x20]
    f74c:	eb02001f 	cmp	x0, x2
    f750:	54fffcab 	b.lt	f6e4 <_obstack_memory_used@@Base+0x28a4>  // b.tstop
    f754:	aa1503e0 	mov	x0, x21
    f758:	97ffd0e2 	bl	3ae0 <realloc@plt>
    f75c:	b5fffde0 	cbnz	x0, f718 <_obstack_memory_used@@Base+0x28d8>
    f760:	97fff73d 	bl	d454 <_obstack_memory_used@@Base+0x614>
    f764:	92f00005 	mov	x5, #0x7fffffffffffffff    	// #9223372036854775807
    f768:	17fffff3 	b	f734 <_obstack_memory_used@@Base+0x28f4>
    f76c:	92f00013 	mov	x19, #0x7fffffffffffffff    	// #9223372036854775807
    f770:	17ffffcf 	b	f6ac <_obstack_memory_used@@Base+0x286c>
    f774:	f10002bf 	cmp	x21, #0x0
    f778:	fa401ac0 	ccmp	x22, #0x0, #0x0, ne	// ne = any
    f77c:	54fffce0 	b.eq	f718 <_obstack_memory_used@@Base+0x28d8>  // b.none
    f780:	17fffff8 	b	f760 <_obstack_memory_used@@Base+0x2920>
    f784:	d503233f 	paciasp
    f788:	a9be7bfd 	stp	x29, x30, [sp, #-32]!
    f78c:	910003fd 	mov	x29, sp
    f790:	a90153f3 	stp	x19, x20, [sp, #16]
    f794:	aa0003f4 	mov	x20, x0
    f798:	97ffd01a 	bl	3800 <strlen@plt>
    f79c:	91000413 	add	x19, x0, #0x1
    f7a0:	aa1303e0 	mov	x0, x19
    f7a4:	97ffd093 	bl	39f0 <malloc@plt>
    f7a8:	b4000100 	cbz	x0, f7c8 <_obstack_memory_used@@Base+0x2988>
    f7ac:	aa1403e1 	mov	x1, x20
    f7b0:	aa1303e3 	mov	x3, x19
    f7b4:	aa1303e2 	mov	x2, x19
    f7b8:	a94153f3 	ldp	x19, x20, [sp, #16]
    f7bc:	a8c27bfd 	ldp	x29, x30, [sp], #32
    f7c0:	d50323bf 	autiasp
    f7c4:	17ffd077 	b	39a0 <__memcpy_chk@plt>
    f7c8:	97fff723 	bl	d454 <_obstack_memory_used@@Base+0x614>
    f7cc:	d503201f 	nop
    f7d0:	d503233f 	paciasp
    f7d4:	a9bd7bfd 	stp	x29, x30, [sp, #-48]!
    f7d8:	910003fd 	mov	x29, sp
    f7dc:	a90153f3 	stp	x19, x20, [sp, #16]
    f7e0:	aa0003f4 	mov	x20, x0
    f7e4:	d2800400 	mov	x0, #0x20                  	// #32
    f7e8:	a9025bf5 	stp	x21, x22, [sp, #32]
    f7ec:	aa0103f5 	mov	x21, x1
    f7f0:	12001c56 	and	w22, w2, #0xff
    f7f4:	97ffd07f 	bl	39f0 <malloc@plt>
    f7f8:	b40002e0 	cbz	x0, f854 <_obstack_memory_used@@Base+0x2a14>
    f7fc:	aa0003f3 	mov	x19, x0
    f800:	b4000095 	cbz	x21, f810 <_obstack_memory_used@@Base+0x29d0>
    f804:	aa1503e0 	mov	x0, x21
    f808:	97ffffdf 	bl	f784 <_obstack_memory_used@@Base+0x2944>
    f80c:	aa0003f5 	mov	x21, x0
    f810:	f9000675 	str	x21, [x19, #8]
    f814:	b4000094 	cbz	x20, f824 <_obstack_memory_used@@Base+0x29e4>
    f818:	aa1403e0 	mov	x0, x20
    f81c:	97ffffda 	bl	f784 <_obstack_memory_used@@Base+0x2944>
    f820:	aa0003f4 	mov	x20, x0
    f824:	d0000100 	adrp	x0, 31000 <obstack_alloc_failed_handler@@Base+0xd90>
    f828:	910ec000 	add	x0, x0, #0x3b0
    f82c:	39004276 	strb	w22, [x19, #16]
    f830:	a9425bf5 	ldp	x21, x22, [sp, #32]
    f834:	f9000274 	str	x20, [x19]
    f838:	f8598001 	ldur	x1, [x0, #-104]
    f83c:	f8198013 	stur	x19, [x0, #-104]
    f840:	f9000e61 	str	x1, [x19, #24]
    f844:	a94153f3 	ldp	x19, x20, [sp, #16]
    f848:	a8c37bfd 	ldp	x29, x30, [sp], #48
    f84c:	d50323bf 	autiasp
    f850:	d65f03c0 	ret
    f854:	97fff700 	bl	d454 <_obstack_memory_used@@Base+0x614>
    f858:	d503201f 	nop
    f85c:	d503201f 	nop
    f860:	d503233f 	paciasp
    f864:	a9b87bfd 	stp	x29, x30, [sp, #-128]!
    f868:	910003fd 	mov	x29, sp
    f86c:	a90153f3 	stp	x19, x20, [sp, #16]
    f870:	aa0003f3 	mov	x19, x0
    f874:	a9025bf5 	stp	x21, x22, [sp, #32]
    f878:	12001c35 	and	w21, w1, #0xff
    f87c:	b40003e0 	cbz	x0, f8f8 <_obstack_memory_used@@Base+0x2ab8>
    f880:	d0000114 	adrp	x20, 31000 <obstack_alloc_failed_handler@@Base+0xd90>
    f884:	910ec294 	add	x20, x20, #0x3b0
    f888:	f85a0280 	ldur	x0, [x20, #-96]
    f88c:	b4000360 	cbz	x0, f8f8 <_obstack_memory_used@@Base+0x2ab8>
    f890:	d2800400 	mov	x0, #0x20                  	// #32
    f894:	97ffd057 	bl	39f0 <malloc@plt>
    f898:	aa0003f6 	mov	x22, x0
    f89c:	b4001c60 	cbz	x0, fc28 <_obstack_memory_used@@Base+0x2de8>
    f8a0:	aa1303e0 	mov	x0, x19
    f8a4:	a90573fb 	stp	x27, x28, [sp, #80]
    f8a8:	97ffffb7 	bl	f784 <_obstack_memory_used@@Base+0x2944>
    f8ac:	f8598281 	ldur	x1, [x20, #-104]
    f8b0:	f8198296 	stur	x22, [x20, #-104]
    f8b4:	b0000114 	adrp	x20, 30000 <_obstack_memory_used@@Base+0x231c0>
    f8b8:	910ac29c 	add	x28, x20, #0x2b0
    f8bc:	a90002df 	stp	xzr, x0, [x22]
    f8c0:	f9461b80 	ldr	x0, [x28, #3120]
    f8c4:	390042df 	strb	wzr, [x22, #16]
    f8c8:	f9000ec1 	str	x1, [x22, #24]
    f8cc:	d1000416 	sub	x22, x0, #0x1
    f8d0:	b5000200 	cbnz	x0, f910 <_obstack_memory_used@@Base+0x2ad0>
    f8d4:	d2800001 	mov	x1, #0x0                   	// #0
    f8d8:	910ac294 	add	x20, x20, #0x2b0
    f8dc:	a9425bf5 	ldp	x21, x22, [sp, #32]
    f8e0:	a94573fb 	ldp	x27, x28, [sp, #80]
    f8e4:	f9061a81 	str	x1, [x20, #3120]
    f8e8:	a94153f3 	ldp	x19, x20, [sp, #16]
    f8ec:	a8c87bfd 	ldp	x29, x30, [sp], #128
    f8f0:	d50323bf 	autiasp
    f8f4:	d65f03c0 	ret
    f8f8:	b0000114 	adrp	x20, 30000 <_obstack_memory_used@@Base+0x231c0>
    f8fc:	a90573fb 	stp	x27, x28, [sp, #80]
    f900:	910ac29c 	add	x28, x20, #0x2b0
    f904:	f9461b80 	ldr	x0, [x28, #3120]
    f908:	d1000416 	sub	x22, x0, #0x1
    f90c:	b4fffe40 	cbz	x0, f8d4 <_obstack_memory_used@@Base+0x2a94>
    f910:	a90363f7 	stp	x23, x24, [sp, #48]
    f914:	d503201f 	nop
    f918:	f9461f80 	ldr	x0, [x28, #3128]
    f91c:	f8767818 	ldr	x24, [x0, x22, lsl #3]
    f920:	b9409b17 	ldr	w23, [x24, #152]
    f924:	71000eff 	cmp	w23, #0x3
    f928:	1a9f17e1 	cset	w1, eq	// eq = none
    f92c:	710026ff 	cmp	w23, #0x9
    f930:	1a9f17e0 	cset	w0, eq	// eq = none
    f934:	2a000027 	orr	w7, w1, w0
    f938:	34000d87 	cbz	w7, fae8 <_obstack_memory_used@@Base+0x2ca8>
    f93c:	f940031b 	ldr	x27, [x24]
    f940:	b40010b3 	cbz	x19, fb54 <_obstack_memory_used@@Base+0x2d14>
    f944:	39400368 	ldrb	w8, [x27]
    f948:	7100bd1f 	cmp	w8, #0x2f
    f94c:	540015c1 	b.ne	fc04 <_obstack_memory_used@@Base+0x2dc4>  // b.any
    f950:	aa1b03e2 	mov	x2, x27
    f954:	d503201f 	nop
    f958:	38401c41 	ldrb	w1, [x2, #1]!
    f95c:	7100bc3f 	cmp	w1, #0x2f
    f960:	54ffffc0 	b.eq	f958 <_obstack_memory_used@@Base+0x2b18>  // b.none
    f964:	34000f81 	cbz	w1, fb54 <_obstack_memory_used@@Base+0x2d14>
    f968:	aa0203e3 	mov	x3, x2
    f96c:	52800004 	mov	w4, #0x0                   	// #0
    f970:	14000006 	b	f988 <_obstack_memory_used@@Base+0x2b48>
    f974:	72000080 	ands	w0, w4, #0x1
    f978:	9a821062 	csel	x2, x3, x2, ne	// ne = any
    f97c:	38401c61 	ldrb	w1, [x3, #1]!
    f980:	1a9f0084 	csel	w4, w4, wzr, eq	// eq = none
    f984:	340000c1 	cbz	w1, f99c <_obstack_memory_used@@Base+0x2b5c>
    f988:	7100bc3f 	cmp	w1, #0x2f
    f98c:	54ffff41 	b.ne	f974 <_obstack_memory_used@@Base+0x2b34>  // b.any
    f990:	38401c61 	ldrb	w1, [x3, #1]!
    f994:	2a0703e4 	mov	w4, w7
    f998:	35ffff81 	cbnz	w1, f988 <_obstack_memory_used@@Base+0x2b48>
    f99c:	39400040 	ldrb	w0, [x2]
    f9a0:	7100b81f 	cmp	w0, #0x2e
    f9a4:	54001060 	b.eq	fbb0 <_obstack_memory_used@@Base+0x2d70>  // b.none
    f9a8:	7100bd1f 	cmp	w8, #0x2f
    f9ac:	54000d40 	b.eq	fb54 <_obstack_memory_used@@Base+0x2d14>  // b.none
    f9b0:	a9046bf9 	stp	x25, x26, [sp, #64]
    f9b4:	aa1303f7 	mov	x23, x19
    f9b8:	39400260 	ldrb	w0, [x19]
    f9bc:	7100bc1f 	cmp	w0, #0x2f
    f9c0:	540000a1 	b.ne	f9d4 <_obstack_memory_used@@Base+0x2b94>  // b.any
    f9c4:	d503201f 	nop
    f9c8:	38401ee0 	ldrb	w0, [x23, #1]!
    f9cc:	7100bc1f 	cmp	w0, #0x2f
    f9d0:	54ffffc0 	b.eq	f9c8 <_obstack_memory_used@@Base+0x2b88>  // b.none
    f9d4:	340001c0 	cbz	w0, fa0c <_obstack_memory_used@@Base+0x2bcc>
    f9d8:	aa1703e1 	mov	x1, x23
    f9dc:	52800002 	mov	w2, #0x0                   	// #0
    f9e0:	14000006 	b	f9f8 <_obstack_memory_used@@Base+0x2bb8>
    f9e4:	72000040 	ands	w0, w2, #0x1
    f9e8:	9a971037 	csel	x23, x1, x23, ne	// ne = any
    f9ec:	38401c20 	ldrb	w0, [x1, #1]!
    f9f0:	1a9f0042 	csel	w2, w2, wzr, eq	// eq = none
    f9f4:	340000c0 	cbz	w0, fa0c <_obstack_memory_used@@Base+0x2bcc>
    f9f8:	7100bc1f 	cmp	w0, #0x2f
    f9fc:	54ffff41 	b.ne	f9e4 <_obstack_memory_used@@Base+0x2ba4>  // b.any
    fa00:	38401c20 	ldrb	w0, [x1, #1]!
    fa04:	2a0703e2 	mov	w2, w7
    fa08:	35ffff80 	cbnz	w0, f9f8 <_obstack_memory_used@@Base+0x2bb8>
    fa0c:	aa1703e0 	mov	x0, x23
    fa10:	97ffcf7c 	bl	3800 <strlen@plt>
    fa14:	aa0003fa 	mov	x26, x0
    fa18:	f100075f 	cmp	x26, #0x1
    fa1c:	54000e09 	b.ls	fbdc <_obstack_memory_used@@Base+0x2d9c>  // b.plast
    fa20:	d1000740 	sub	x0, x26, #0x1
    fa24:	38606ae1 	ldrb	w1, [x23, x0]
    fa28:	7100bc3f 	cmp	w1, #0x2f
    fa2c:	54000f40 	b.eq	fc14 <_obstack_memory_used@@Base+0x2dd4>  // b.none
    fa30:	cb1302f7 	sub	x23, x23, x19
    fa34:	aa1b03e0 	mov	x0, x27
    fa38:	8b1a02f7 	add	x23, x23, x26
    fa3c:	97ffcf71 	bl	3800 <strlen@plt>
    fa40:	aa0003f9 	mov	x25, x0
    fa44:	91000400 	add	x0, x0, #0x1
    fa48:	8b170261 	add	x1, x19, x23
    fa4c:	385ff021 	ldurb	w1, [x1, #-1]
    fa50:	7100bc3f 	cmp	w1, #0x2f
    fa54:	54000d20 	b.eq	fbf8 <_obstack_memory_used@@Base+0x2db8>  // b.none
    fa58:	d2800021 	mov	x1, #0x1                   	// #1
    fa5c:	f90037e1 	str	x1, [sp, #104]
    fa60:	528005e1 	mov	w1, #0x2f                  	// #47
    fa64:	b9007fe1 	str	w1, [sp, #124]
    fa68:	f94037e1 	ldr	x1, [sp, #104]
    fa6c:	8b0102e3 	add	x3, x23, x1
    fa70:	8b000063 	add	x3, x3, x0
    fa74:	f9003be3 	str	x3, [sp, #112]
    fa78:	aa0303e0 	mov	x0, x3
    fa7c:	97ffcfdd 	bl	39f0 <malloc@plt>
    fa80:	aa0003fa 	mov	x26, x0
    fa84:	b4000d80 	cbz	x0, fc34 <_obstack_memory_used@@Base+0x2df4>
    fa88:	f9403be3 	ldr	x3, [sp, #112]
    fa8c:	aa1703e2 	mov	x2, x23
    fa90:	aa1303e1 	mov	x1, x19
    fa94:	97ffd0af 	bl	3d50 <__mempcpy_chk@plt>
    fa98:	aa0003e3 	mov	x3, x0
    fa9c:	3941f3e4 	ldrb	w4, [sp, #124]
    faa0:	aa1b03e1 	mov	x1, x27
    faa4:	39000004 	strb	w4, [x0]
    faa8:	aa1903e2 	mov	x2, x25
    faac:	f94037e0 	ldr	x0, [sp, #104]
    fab0:	8b000060 	add	x0, x3, x0
    fab4:	97ffcf3f 	bl	37b0 <memcpy@plt>
    fab8:	aa0003e1 	mov	x1, x0
    fabc:	2a1503e2 	mov	w2, w21
    fac0:	aa1a03e0 	mov	x0, x26
    fac4:	3839683f 	strb	wzr, [x1, x25]
    fac8:	f9400701 	ldr	x1, [x24, #8]
    facc:	97ffff41 	bl	f7d0 <_obstack_memory_used@@Base+0x2990>
    fad0:	aa1a03e0 	mov	x0, x26
    fad4:	97ffd063 	bl	3c60 <free@plt>
    fad8:	b9409b17 	ldr	w23, [x24, #152]
    fadc:	a9446bf9 	ldp	x25, x26, [sp, #64]
    fae0:	710026ff 	cmp	w23, #0x9
    fae4:	54000440 	b.eq	fb6c <_obstack_memory_used@@Base+0x2d2c>  // b.none
    fae8:	d10006d6 	sub	x22, x22, #0x1
    faec:	b10006df 	cmn	x22, #0x1
    faf0:	54fff141 	b.ne	f918 <_obstack_memory_used@@Base+0x2ad8>  // b.any
    faf4:	910ac280 	add	x0, x20, #0x2b0
    faf8:	f9461804 	ldr	x4, [x0, #3120]
    fafc:	b4000904 	cbz	x4, fc1c <_obstack_memory_used@@Base+0x2ddc>
    fb00:	f9461c03 	ldr	x3, [x0, #3128]
    fb04:	d2800001 	mov	x1, #0x0                   	// #0
    fb08:	d2800000 	mov	x0, #0x0                   	// #0
    fb0c:	d503201f 	nop
    fb10:	f8607862 	ldr	x2, [x3, x0, lsl #3]
    fb14:	f8217862 	str	x2, [x3, x1, lsl #3]
    fb18:	91000400 	add	x0, x0, #0x1
    fb1c:	b9409842 	ldr	w2, [x2, #152]
    fb20:	7100245f 	cmp	w2, #0x9
    fb24:	9a810421 	cinc	x1, x1, ne	// ne = any
    fb28:	eb04001f 	cmp	x0, x4
    fb2c:	54ffff21 	b.ne	fb10 <_obstack_memory_used@@Base+0x2cd0>  // b.any
    fb30:	910ac294 	add	x20, x20, #0x2b0
    fb34:	a9425bf5 	ldp	x21, x22, [sp, #32]
    fb38:	a94363f7 	ldp	x23, x24, [sp, #48]
    fb3c:	a94573fb 	ldp	x27, x28, [sp, #80]
    fb40:	f9061a81 	str	x1, [x20, #3120]
    fb44:	a94153f3 	ldp	x19, x20, [sp, #16]
    fb48:	a8c87bfd 	ldp	x29, x30, [sp], #128
    fb4c:	d50323bf 	autiasp
    fb50:	d65f03c0 	ret
    fb54:	f9400701 	ldr	x1, [x24, #8]
    fb58:	aa1b03e0 	mov	x0, x27
    fb5c:	2a1503e2 	mov	w2, w21
    fb60:	97ffff1c 	bl	f7d0 <_obstack_memory_used@@Base+0x2990>
    fb64:	710026ff 	cmp	w23, #0x9
    fb68:	54fffc01 	b.ne	fae8 <_obstack_memory_used@@Base+0x2ca8>  // b.any
    fb6c:	f9400300 	ldr	x0, [x24]
    fb70:	97ffd03c 	bl	3c60 <free@plt>
    fb74:	f9400700 	ldr	x0, [x24, #8]
    fb78:	97ffd03a 	bl	3c60 <free@plt>
    fb7c:	f9400b00 	ldr	x0, [x24, #16]
    fb80:	97ffd038 	bl	3c60 <free@plt>
    fb84:	f9405300 	ldr	x0, [x24, #160]
    fb88:	b0000101 	adrp	x1, 30000 <_obstack_memory_used@@Base+0x231c0>
    fb8c:	91004021 	add	x1, x1, #0x10
    fb90:	9102e021 	add	x1, x1, #0xb8
    fb94:	eb01001f 	cmp	x0, x1
    fb98:	54fffa80 	b.eq	fae8 <_obstack_memory_used@@Base+0x2ca8>  // b.none
    fb9c:	d10006d6 	sub	x22, x22, #0x1
    fba0:	97ffcf98 	bl	3a00 <freecon@plt>
    fba4:	b10006df 	cmn	x22, #0x1
    fba8:	54ffeb81 	b.ne	f918 <_obstack_memory_used@@Base+0x2ad8>  // b.any
    fbac:	17ffffd2 	b	faf4 <_obstack_memory_used@@Base+0x2cb4>
    fbb0:	39400440 	ldrb	w0, [x2, #1]
    fbb4:	7100b81f 	cmp	w0, #0x2e
    fbb8:	9a821442 	cinc	x2, x2, eq	// eq = none
    fbbc:	39400440 	ldrb	w0, [x2, #1]
    fbc0:	7100bc1f 	cmp	w0, #0x2f
    fbc4:	7a401804 	ccmp	w0, #0x0, #0x4, ne	// ne = any
    fbc8:	54ffef01 	b.ne	f9a8 <_obstack_memory_used@@Base+0x2b68>  // b.any
    fbcc:	d10006d6 	sub	x22, x22, #0x1
    fbd0:	b10006df 	cmn	x22, #0x1
    fbd4:	54ffea21 	b.ne	f918 <_obstack_memory_used@@Base+0x2ad8>  // b.any
    fbd8:	17ffffc7 	b	faf4 <_obstack_memory_used@@Base+0x2cb4>
    fbdc:	cb1302f7 	sub	x23, x23, x19
    fbe0:	aa1b03e0 	mov	x0, x27
    fbe4:	8b1a02f7 	add	x23, x23, x26
    fbe8:	97ffcf06 	bl	3800 <strlen@plt>
    fbec:	aa0003f9 	mov	x25, x0
    fbf0:	91000400 	add	x0, x0, #0x1
    fbf4:	b5fff2ba 	cbnz	x26, fa48 <_obstack_memory_used@@Base+0x2c08>
    fbf8:	f90037ff 	str	xzr, [sp, #104]
    fbfc:	b9007fff 	str	wzr, [sp, #124]
    fc00:	17ffff9a 	b	fa68 <_obstack_memory_used@@Base+0x2c28>
    fc04:	2a0803e1 	mov	w1, w8
    fc08:	aa1b03e2 	mov	x2, x27
    fc0c:	35ffeae8 	cbnz	w8, f968 <_obstack_memory_used@@Base+0x2b28>
    fc10:	17ffff68 	b	f9b0 <_obstack_memory_used@@Base+0x2b70>
    fc14:	aa0003fa 	mov	x26, x0
    fc18:	17ffff80 	b	fa18 <_obstack_memory_used@@Base+0x2bd8>
    fc1c:	a94363f7 	ldp	x23, x24, [sp, #48]
    fc20:	d2800001 	mov	x1, #0x0                   	// #0
    fc24:	17ffff2d 	b	f8d8 <_obstack_memory_used@@Base+0x2a98>
    fc28:	a90363f7 	stp	x23, x24, [sp, #48]
    fc2c:	a9046bf9 	stp	x25, x26, [sp, #64]
    fc30:	a90573fb 	stp	x27, x28, [sp, #80]
    fc34:	97fff608 	bl	d454 <_obstack_memory_used@@Base+0x614>
    fc38:	d503201f 	nop
    fc3c:	d503201f 	nop
    fc40:	d503233f 	paciasp
    fc44:	a9ba7bfd 	stp	x29, x30, [sp, #-96]!
    fc48:	90000103 	adrp	x3, 2f000 <_obstack_memory_used@@Base+0x221c0>
    fc4c:	f947e863 	ldr	x3, [x3, #4048]
    fc50:	910003fd 	mov	x29, sp
    fc54:	a90153f3 	stp	x19, x20, [sp, #16]
    fc58:	aa0103f3 	mov	x19, x1
    fc5c:	a9025bf5 	stp	x21, x22, [sp, #32]
    fc60:	a90363f7 	stp	x23, x24, [sp, #48]
    fc64:	aa0003f7 	mov	x23, x0
    fc68:	a90573fb 	stp	x27, x28, [sp, #80]
    fc6c:	d10b43ff 	sub	sp, sp, #0x2d0
    fc70:	12001c5b 	and	w27, w2, #0xff
    fc74:	f9400060 	ldr	x0, [x3]
    fc78:	f90167e0 	str	x0, [sp, #712]
    fc7c:	d2800000 	mov	x0, #0x0                   	// #0
    fc80:	97ffd060 	bl	3e00 <__errno_location@plt>
    fc84:	aa0003f5 	mov	x21, x0
    fc88:	aa1703e0 	mov	x0, x23
    fc8c:	b90002bf 	str	wzr, [x21]
    fc90:	97ffcf14 	bl	38e0 <opendir@plt>
    fc94:	b4003240 	cbz	x0, 102dc <_obstack_memory_used@@Base+0x349c>
    fc98:	f9018bf9 	str	x25, [sp, #784]
    fc9c:	d0000119 	adrp	x25, 31000 <obstack_alloc_failed_handler@@Base+0xd90>
    fca0:	910ec321 	add	x1, x25, #0x3b0
    fca4:	f9018ffa 	str	x26, [sp, #792]
    fca8:	aa0003f6 	mov	x22, x0
    fcac:	f85a0038 	ldur	x24, [x1, #-96]
    fcb0:	b40007d8 	cbz	x24, fda8 <_obstack_memory_used@@Base+0x2f68>
    fcb4:	97ffd00f 	bl	3cf0 <dirfd@plt>
    fcb8:	37f82420 	tbnz	w0, #31, 1013c <_obstack_memory_used@@Base+0x32fc>
    fcbc:	d0000041 	adrp	x1, 19000 <_obstack_memory_used@@Base+0xc1c0>
    fcc0:	9100c3e2 	add	x2, sp, #0x30
    fcc4:	912a0021 	add	x1, x1, #0xa80
    fcc8:	52802004 	mov	w4, #0x100                 	// #256
    fccc:	52820003 	mov	w3, #0x1000                	// #4096
    fcd0:	97ffeba0 	bl	ab50 <setlocale@plt+0x6cf0>
    fcd4:	37f82420 	tbnz	w0, #31, 10158 <_obstack_memory_used@@Base+0x3318>
    fcd8:	3dc00fe0 	ldr	q0, [sp, #48]
    fcdc:	d2800200 	mov	x0, #0x10                  	// #16
    fce0:	6e004000 	ext	v0.16b, v0.16b, v0.16b, #8
    fce4:	3d8003e0 	str	q0, [sp]
    fce8:	97ffcf42 	bl	39f0 <malloc@plt>
    fcec:	aa0003f4 	mov	x20, x0
    fcf0:	b4003220 	cbz	x0, 10334 <_obstack_memory_used@@Base+0x34f4>
    fcf4:	3dc003e0 	ldr	q0, [sp]
    fcf8:	aa1803e0 	mov	x0, x24
    fcfc:	9100a3e2 	add	x2, sp, #0x28
    fd00:	aa1403e1 	mov	x1, x20
    fd04:	3d800280 	str	q0, [x20]
    fd08:	97ffeffe 	bl	bd00 <setlocale@plt+0x7ea0>
    fd0c:	3100041f 	cmn	w0, #0x1
    fd10:	54003120 	b.eq	10334 <_obstack_memory_used@@Base+0x34f4>  // b.none
    fd14:	35000340 	cbnz	w0, fd7c <_obstack_memory_used@@Base+0x2f3c>
    fd18:	f94017e0 	ldr	x0, [sp, #40]
    fd1c:	b40030c0 	cbz	x0, 10334 <_obstack_memory_used@@Base+0x34f4>
    fd20:	eb14001f 	cmp	x0, x20
    fd24:	540002c0 	b.eq	fd7c <_obstack_memory_used@@Base+0x2f3c>  // b.none
    fd28:	aa1403e0 	mov	x0, x20
    fd2c:	97ffcfcd 	bl	3c60 <free@plt>
    fd30:	90000061 	adrp	x1, 1b000 <_obstack_memory_used@@Base+0xe1c0>
    fd34:	912e2021 	add	x1, x1, #0xb88
    fd38:	528000a2 	mov	w2, #0x5                   	// #5
    fd3c:	d2800000 	mov	x0, #0x0                   	// #0
    fd40:	97ffd008 	bl	3d60 <dcgettext@plt>
    fd44:	aa0003f3 	mov	x19, x0
    fd48:	aa1703e0 	mov	x0, x23
    fd4c:	94000b15 	bl	129a0 <_obstack_memory_used@@Base+0x5b60>
    fd50:	aa1303e2 	mov	x2, x19
    fd54:	aa0003e3 	mov	x3, x0
    fd58:	52800001 	mov	w1, #0x0                   	// #0
    fd5c:	52800000 	mov	w0, #0x0                   	// #0
    fd60:	97ffcec4 	bl	3870 <error@plt>
    fd64:	aa1603e0 	mov	x0, x22
    fd68:	97ffcf66 	bl	3b00 <closedir@plt>
    fd6c:	b0000100 	adrp	x0, 30000 <_obstack_memory_used@@Base+0x231c0>
    fd70:	52800041 	mov	w1, #0x2                   	// #2
    fd74:	b90f4001 	str	w1, [x0, #3904]
    fd78:	1400006e 	b	ff30 <_obstack_memory_used@@Base+0x30f0>
    fd7c:	910ec334 	add	x20, x25, #0x3b0
    fd80:	d1016294 	sub	x20, x20, #0x58
    fd84:	a9418680 	ldp	x0, x1, [x20, #24]
    fd88:	cb000021 	sub	x1, x1, x0
    fd8c:	f1003c3f 	cmp	x1, #0xf
    fd90:	54002949 	b.ls	102b8 <_obstack_memory_used@@Base+0x3478>  // b.plast
    fd94:	910ec321 	add	x1, x25, #0x3b0
    fd98:	91004002 	add	x2, x0, #0x10
    fd9c:	3dc003e0 	ldr	q0, [sp]
    fda0:	f81c0022 	stur	x2, [x1, #-64]
    fda4:	3d800000 	str	q0, [x0]
    fda8:	97ffe40e 	bl	8de0 <setlocale@plt+0x4f80>
    fdac:	394ec320 	ldrb	w0, [x25, #944]
    fdb0:	910ec321 	add	x1, x25, #0x3b0
    fdb4:	36001b20 	tbz	w0, #0, 10118 <_obstack_memory_used@@Base+0x32d8>
    fdb8:	b0000114 	adrp	x20, 30000 <_obstack_memory_used@@Base+0x231c0>
    fdbc:	91004280 	add	x0, x20, #0x10
    fdc0:	b0000118 	adrp	x24, 30000 <_obstack_memory_used@@Base+0x231c0>
    fdc4:	39433000 	ldrb	w0, [x0, #204]
    fdc8:	360021e0 	tbz	w0, #0, 10204 <_obstack_memory_used@@Base+0x33c4>
    fdcc:	910ac300 	add	x0, x24, #0x2b0
    fdd0:	91004294 	add	x20, x20, #0x10
    fdd4:	397f8000 	ldrb	w0, [x0, #4064]
    fdd8:	3903329f 	strb	wzr, [x20, #204]
    fddc:	370023a0 	tbnz	w0, #0, 10250 <_obstack_memory_used@@Base+0x3410>
    fde0:	910ec320 	add	x0, x25, #0x3b0
    fde4:	d2800014 	mov	x20, #0x0                   	// #0
    fde8:	39400800 	ldrb	w0, [x0, #2]
    fdec:	37002420 	tbnz	w0, #0, 10270 <_obstack_memory_used@@Base+0x3430>
    fdf0:	910ec321 	add	x1, x25, #0x3b0
    fdf4:	f100027f 	cmp	x19, #0x0
    fdf8:	91002025 	add	x5, x1, #0x8
    fdfc:	aa1403e6 	mov	x6, x20
    fe00:	52800024 	mov	w4, #0x1                   	// #1
    fe04:	d2800003 	mov	x3, #0x0                   	// #0
    fe08:	f9403021 	ldr	x1, [x1, #96]
    fe0c:	12800002 	mov	w2, #0xffffffff            	// #-1
    fe10:	9a971260 	csel	x0, x19, x23, ne	// ne = any
    fe14:	97fff6ab 	bl	d8c0 <_obstack_memory_used@@Base+0xa80>
    fe18:	aa1403e0 	mov	x0, x20
    fe1c:	97ffcf91 	bl	3c60 <free@plt>
    fe20:	90000060 	adrp	x0, 1b000 <_obstack_memory_used@@Base+0xe1c0>
    fe24:	d2800041 	mov	x1, #0x2                   	// #2
    fe28:	912f4000 	add	x0, x0, #0xbd0
    fe2c:	97ffdd81 	bl	7430 <setlocale@plt+0x35d0>
    fe30:	b0000040 	adrp	x0, 18000 <_obstack_memory_used@@Base+0xb1c0>
    fe34:	910a0000 	add	x0, x0, #0x280
    fe38:	b90002bf 	str	wzr, [x21]
    fe3c:	9102e000 	add	x0, x0, #0xb8
    fe40:	9000007a 	adrp	x26, 1b000 <_obstack_memory_used@@Base+0xe1c0>
    fe44:	912f635a 	add	x26, x26, #0xbd8
    fe48:	f90003ff 	str	xzr, [sp]
    fe4c:	f9000be0 	str	x0, [sp, #16]
    fe50:	aa1603e0 	mov	x0, x22
    fe54:	97ffcf1f 	bl	3ad0 <readdir@plt>
    fe58:	aa0003f4 	mov	x20, x0
    fe5c:	b4000360 	cbz	x0, fec8 <_obstack_memory_used@@Base+0x3088>
    fe60:	910ec321 	add	x1, x25, #0x3b0
    fe64:	91004c13 	add	x19, x0, #0x13
    fe68:	b9406820 	ldr	w0, [x1, #104]
    fe6c:	7100081f 	cmp	w0, #0x2
    fe70:	54000f80 	b.eq	10060 <_obstack_memory_used@@Base+0x3220>  // b.none
    fe74:	39404e82 	ldrb	w2, [x20, #19]
    fe78:	7100b85f 	cmp	w2, #0x2e
    fe7c:	54000e40 	b.eq	10044 <_obstack_memory_used@@Base+0x3204>  // b.none
    fe80:	35000f00 	cbnz	w0, 10060 <_obstack_memory_used@@Base+0x3220>
    fe84:	f940383c 	ldr	x28, [x1, #112]
    fe88:	b500009c 	cbnz	x28, fe98 <_obstack_memory_used@@Base+0x3058>
    fe8c:	14000075 	b	10060 <_obstack_memory_used@@Base+0x3220>
    fe90:	f940079c 	ldr	x28, [x28, #8]
    fe94:	b4000e7c 	cbz	x28, 10060 <_obstack_memory_used@@Base+0x3220>
    fe98:	f9400380 	ldr	x0, [x28]
    fe9c:	aa1303e1 	mov	x1, x19
    fea0:	52800082 	mov	w2, #0x4                   	// #4
    fea4:	97ffcf87 	bl	3cc0 <fnmatch@plt>
    fea8:	35ffff40 	cbnz	w0, fe90 <_obstack_memory_used@@Base+0x3050>
    feac:	d503201f 	nop
    feb0:	97ffeccc 	bl	b1e0 <setlocale@plt+0x7380>
    feb4:	b90002bf 	str	wzr, [x21]
    feb8:	aa1603e0 	mov	x0, x22
    febc:	97ffcf05 	bl	3ad0 <readdir@plt>
    fec0:	aa0003f4 	mov	x20, x0
    fec4:	b5fffce0 	cbnz	x0, fe60 <_obstack_memory_used@@Base+0x3020>
    fec8:	b94002a1 	ldr	w1, [x21]
    fecc:	34000161 	cbz	w1, fef8 <_obstack_memory_used@@Base+0x30b8>
    fed0:	aa1a03e1 	mov	x1, x26
    fed4:	528000a2 	mov	w2, #0x5                   	// #5
    fed8:	97ffcfa2 	bl	3d60 <dcgettext@plt>
    fedc:	aa0003e1 	mov	x1, x0
    fee0:	aa1703e2 	mov	x2, x23
    fee4:	2a1b03e0 	mov	w0, w27
    fee8:	97ffeb92 	bl	ad30 <setlocale@plt+0x6ed0>
    feec:	b94002a0 	ldr	w0, [x21]
    fef0:	71012c1f 	cmp	w0, #0x4b
    fef4:	54fffde0 	b.eq	feb0 <_obstack_memory_used@@Base+0x3070>  // b.none
    fef8:	aa1603e0 	mov	x0, x22
    fefc:	97ffcf01 	bl	3b00 <closedir@plt>
    ff00:	35001620 	cbnz	w0, 101c4 <_obstack_memory_used@@Base+0x3384>
    ff04:	97fff57b 	bl	d4f0 <_obstack_memory_used@@Base+0x6b0>
    ff08:	394ec320 	ldrb	w0, [x25, #944]
    ff0c:	37001740 	tbnz	w0, #0, 101f4 <_obstack_memory_used@@Base+0x33b4>
    ff10:	910ac300 	add	x0, x24, #0x2b0
    ff14:	b94c7c01 	ldr	w1, [x0, #3196]
    ff18:	340002e1 	cbz	w1, ff74 <_obstack_memory_used@@Base+0x3134>
    ff1c:	3971e000 	ldrb	w0, [x0, #3192]
    ff20:	370002a0 	tbnz	w0, #0, ff74 <_obstack_memory_used@@Base+0x3134>
    ff24:	910ac318 	add	x24, x24, #0x2b0
    ff28:	f9461b00 	ldr	x0, [x24, #3120]
    ff2c:	b50006a0 	cbnz	x0, 10000 <_obstack_memory_used@@Base+0x31c0>
    ff30:	90000100 	adrp	x0, 2f000 <_obstack_memory_used@@Base+0x221c0>
    ff34:	f947e800 	ldr	x0, [x0, #4048]
    ff38:	f94167e2 	ldr	x2, [sp, #712]
    ff3c:	f9400001 	ldr	x1, [x0]
    ff40:	eb010042 	subs	x2, x2, x1
    ff44:	d2800001 	mov	x1, #0x0                   	// #0
    ff48:	54001c81 	b.ne	102d8 <_obstack_memory_used@@Base+0x3498>  // b.any
    ff4c:	f9418bf9 	ldr	x25, [sp, #784]
    ff50:	f9418ffa 	ldr	x26, [sp, #792]
    ff54:	910b43ff 	add	sp, sp, #0x2d0
    ff58:	a94153f3 	ldp	x19, x20, [sp, #16]
    ff5c:	a9425bf5 	ldp	x21, x22, [sp, #32]
    ff60:	a94363f7 	ldp	x23, x24, [sp, #48]
    ff64:	a94573fb 	ldp	x27, x28, [sp, #80]
    ff68:	a8c67bfd 	ldp	x29, x30, [sp], #96
    ff6c:	d50323bf 	autiasp
    ff70:	d65f03c0 	ret
    ff74:	910ac314 	add	x20, x24, #0x2b0
    ff78:	9100c7e1 	add	x1, sp, #0x31
    ff7c:	f94003e0 	ldr	x0, [sp]
    ff80:	d2804003 	mov	x3, #0x200                 	// #512
    ff84:	f946b284 	ldr	x4, [x20, #3424]
    ff88:	b94d6a82 	ldr	w2, [x20, #3432]
    ff8c:	97ffefc9 	bl	beb0 <setlocale@plt+0x8050>
    ff90:	aa0003f3 	mov	x19, x0
    ff94:	97ffce1b 	bl	3800 <strlen@plt>
    ff98:	b0000101 	adrp	x1, 30000 <_obstack_memory_used@@Base+0x231c0>
    ff9c:	397f8282 	ldrb	w2, [x20, #4064]
    ffa0:	52800403 	mov	w3, #0x20                  	// #32
    ffa4:	381ff263 	sturb	w3, [x19, #-1]
    ffa8:	39433021 	ldrb	w1, [x1, #204]
    ffac:	8b000274 	add	x20, x19, x0
    ffb0:	38206a61 	strb	w1, [x19, x0]
    ffb4:	91000694 	add	x20, x20, #0x1
    ffb8:	d1000673 	sub	x19, x19, #0x1
    ffbc:	37001742 	tbnz	w2, #0, 102a4 <_obstack_memory_used@@Base+0x3464>
    ffc0:	90000061 	adrp	x1, 1b000 <_obstack_memory_used@@Base+0xe1c0>
    ffc4:	91302021 	add	x1, x1, #0xc08
    ffc8:	528000a2 	mov	w2, #0x5                   	// #5
    ffcc:	910ac318 	add	x24, x24, #0x2b0
    ffd0:	d2800000 	mov	x0, #0x0                   	// #0
    ffd4:	97ffcf63 	bl	3d60 <dcgettext@plt>
    ffd8:	aa0003f5 	mov	x21, x0
    ffdc:	97ffce09 	bl	3800 <strlen@plt>
    ffe0:	aa0003e1 	mov	x1, x0
    ffe4:	aa1503e0 	mov	x0, x21
    ffe8:	97ffdd12 	bl	7430 <setlocale@plt+0x35d0>
    ffec:	aa1303e0 	mov	x0, x19
    fff0:	cb130281 	sub	x1, x20, x19
    fff4:	97ffdd0f 	bl	7430 <setlocale@plt+0x35d0>
    fff8:	f9461b00 	ldr	x0, [x24, #3120]
    fffc:	b4fff9a0 	cbz	x0, ff30 <_obstack_memory_used@@Base+0x30f0>
   10000:	f00000e0 	adrp	x0, 2f000 <_obstack_memory_used@@Base+0x221c0>
   10004:	f947e800 	ldr	x0, [x0, #4048]
   10008:	f94167e2 	ldr	x2, [sp, #712]
   1000c:	f9400001 	ldr	x1, [x0]
   10010:	eb010042 	subs	x2, x2, x1
   10014:	d2800001 	mov	x1, #0x0                   	// #0
   10018:	54001601 	b.ne	102d8 <_obstack_memory_used@@Base+0x3498>  // b.any
   1001c:	f9418bf9 	ldr	x25, [sp, #784]
   10020:	f9418ffa 	ldr	x26, [sp, #792]
   10024:	910b43ff 	add	sp, sp, #0x2d0
   10028:	a94153f3 	ldp	x19, x20, [sp, #16]
   1002c:	a9425bf5 	ldp	x21, x22, [sp, #32]
   10030:	a94363f7 	ldp	x23, x24, [sp, #48]
   10034:	a94573fb 	ldp	x27, x28, [sp, #80]
   10038:	a8c67bfd 	ldp	x29, x30, [sp], #96
   1003c:	d50323bf 	autiasp
   10040:	17fffc78 	b	f220 <_obstack_memory_used@@Base+0x23e0>
   10044:	34fff360 	cbz	w0, feb0 <_obstack_memory_used@@Base+0x3070>
   10048:	39405280 	ldrb	w0, [x20, #20]
   1004c:	7100b81f 	cmp	w0, #0x2e
   10050:	9a931660 	cinc	x0, x19, eq	// eq = none
   10054:	39400400 	ldrb	w0, [x0, #1]
   10058:	34fff2c0 	cbz	w0, feb0 <_obstack_memory_used@@Base+0x3070>
   1005c:	d503201f 	nop
   10060:	910ac300 	add	x0, x24, #0x2b0
   10064:	f946bc1c 	ldr	x28, [x0, #3448]
   10068:	b500009c 	cbnz	x28, 10078 <_obstack_memory_used@@Base+0x3238>
   1006c:	14000009 	b	10090 <_obstack_memory_used@@Base+0x3250>
   10070:	f940079c 	ldr	x28, [x28, #8]
   10074:	b40000fc 	cbz	x28, 10090 <_obstack_memory_used@@Base+0x3250>
   10078:	f9400380 	ldr	x0, [x28]
   1007c:	aa1303e1 	mov	x1, x19
   10080:	52800082 	mov	w2, #0x4                   	// #4
   10084:	97ffcf0f 	bl	3cc0 <fnmatch@plt>
   10088:	35ffff40 	cbnz	w0, 10070 <_obstack_memory_used@@Base+0x3230>
   1008c:	17ffff89 	b	feb0 <_obstack_memory_used@@Base+0x3070>
   10090:	39404a80 	ldrb	w0, [x20, #18]
   10094:	52800001 	mov	w1, #0x0                   	// #0
   10098:	51000400 	sub	w0, w0, #0x1
   1009c:	92401c00 	and	x0, x0, #0xff
   100a0:	7100341f 	cmp	w0, #0xd
   100a4:	54000068 	b.hi	100b0 <_obstack_memory_used@@Base+0x3270>  // b.pmore
   100a8:	f9400be1 	ldr	x1, [sp, #16]
   100ac:	b8607821 	ldr	w1, [x1, x0, lsl #2]
   100b0:	52800002 	mov	w2, #0x0                   	// #0
   100b4:	aa1303e0 	mov	x0, x19
   100b8:	aa1703e3 	mov	x3, x23
   100bc:	940014d9 	bl	15420 <_obstack_memory_used@@Base+0x85e0>
   100c0:	910ac301 	add	x1, x24, #0x2b0
   100c4:	b94c7c22 	ldr	w2, [x1, #3196]
   100c8:	7100045f 	cmp	w2, #0x1
   100cc:	540000c0 	b.eq	100e4 <_obstack_memory_used@@Base+0x32a4>  // b.none
   100d0:	f94003e1 	ldr	x1, [sp]
   100d4:	8b000020 	add	x0, x1, x0
   100d8:	f90003e0 	str	x0, [sp]
   100dc:	97ffec41 	bl	b1e0 <setlocale@plt+0x7380>
   100e0:	17ffff75 	b	feb4 <_obstack_memory_used@@Base+0x3074>
   100e4:	b94c8c22 	ldr	w2, [x1, #3212]
   100e8:	7100185f 	cmp	w2, #0x6
   100ec:	54ffff21 	b.ne	100d0 <_obstack_memory_used@@Base+0x3290>  // b.any
   100f0:	3971e021 	ldrb	w1, [x1, #3192]
   100f4:	3707fee1 	tbnz	w1, #0, 100d0 <_obstack_memory_used@@Base+0x3290>
   100f8:	394ec321 	ldrb	w1, [x25, #944]
   100fc:	3707fea1 	tbnz	w1, #0, 100d0 <_obstack_memory_used@@Base+0x3290>
   10100:	f9000fe0 	str	x0, [sp, #24]
   10104:	97fff4fb 	bl	d4f0 <_obstack_memory_used@@Base+0x6b0>
   10108:	97fffc46 	bl	f220 <_obstack_memory_used@@Base+0x23e0>
   1010c:	97ffe335 	bl	8de0 <setlocale@plt+0x4f80>
   10110:	f9400fe0 	ldr	x0, [sp, #24]
   10114:	17ffffef 	b	100d0 <_obstack_memory_used@@Base+0x3290>
   10118:	39400420 	ldrb	w0, [x1, #1]
   1011c:	90000118 	adrp	x24, 30000 <_obstack_memory_used@@Base+0x231c0>
   10120:	3607e880 	tbz	w0, #0, fe30 <_obstack_memory_used@@Base+0x2ff0>
   10124:	90000114 	adrp	x20, 30000 <_obstack_memory_used@@Base+0x231c0>
   10128:	91004280 	add	x0, x20, #0x10
   1012c:	90000118 	adrp	x24, 30000 <_obstack_memory_used@@Base+0x231c0>
   10130:	39433000 	ldrb	w0, [x0, #204]
   10134:	3707e4c0 	tbnz	w0, #0, fdcc <_obstack_memory_used@@Base+0x2f8c>
   10138:	14000033 	b	10204 <_obstack_memory_used@@Base+0x33c4>
   1013c:	9100c3e2 	add	x2, sp, #0x30
   10140:	aa1703e1 	mov	x1, x23
   10144:	52802004 	mov	w4, #0x100                 	// #256
   10148:	52800003 	mov	w3, #0x0                   	// #0
   1014c:	12800c60 	mov	w0, #0xffffff9c            	// #-100
   10150:	97ffea80 	bl	ab50 <setlocale@plt+0x6cf0>
   10154:	36ffdc20 	tbz	w0, #31, fcd8 <_obstack_memory_used@@Base+0x2e98>
   10158:	528000a2 	mov	w2, #0x5                   	// #5
   1015c:	f0000041 	adrp	x1, 1b000 <_obstack_memory_used@@Base+0xe1c0>
   10160:	d2800000 	mov	x0, #0x0                   	// #0
   10164:	912d8021 	add	x1, x1, #0xb60
   10168:	97ffcefe 	bl	3d60 <dcgettext@plt>
   1016c:	aa0003e1 	mov	x1, x0
   10170:	aa1703e2 	mov	x2, x23
   10174:	2a1b03e0 	mov	w0, w27
   10178:	97ffeaee 	bl	ad30 <setlocale@plt+0x6ed0>
   1017c:	f00000e0 	adrp	x0, 2f000 <_obstack_memory_used@@Base+0x221c0>
   10180:	f947e800 	ldr	x0, [x0, #4048]
   10184:	f94167e2 	ldr	x2, [sp, #712]
   10188:	f9400001 	ldr	x1, [x0]
   1018c:	eb010042 	subs	x2, x2, x1
   10190:	d2800001 	mov	x1, #0x0                   	// #0
   10194:	54000a21 	b.ne	102d8 <_obstack_memory_used@@Base+0x3498>  // b.any
   10198:	f9418bf9 	ldr	x25, [sp, #784]
   1019c:	aa1603e0 	mov	x0, x22
   101a0:	f9418ffa 	ldr	x26, [sp, #792]
   101a4:	910b43ff 	add	sp, sp, #0x2d0
   101a8:	a94153f3 	ldp	x19, x20, [sp, #16]
   101ac:	a9425bf5 	ldp	x21, x22, [sp, #32]
   101b0:	a94363f7 	ldp	x23, x24, [sp, #48]
   101b4:	a94573fb 	ldp	x27, x28, [sp, #80]
   101b8:	a8c67bfd 	ldp	x29, x30, [sp], #96
   101bc:	d50323bf 	autiasp
   101c0:	17ffce50 	b	3b00 <closedir@plt>
   101c4:	528000a2 	mov	w2, #0x5                   	// #5
   101c8:	f0000041 	adrp	x1, 1b000 <_obstack_memory_used@@Base+0xe1c0>
   101cc:	d2800000 	mov	x0, #0x0                   	// #0
   101d0:	912fc021 	add	x1, x1, #0xbf0
   101d4:	97ffcee3 	bl	3d60 <dcgettext@plt>
   101d8:	aa0003e1 	mov	x1, x0
   101dc:	aa1703e2 	mov	x2, x23
   101e0:	2a1b03e0 	mov	w0, w27
   101e4:	97ffead3 	bl	ad30 <setlocale@plt+0x6ed0>
   101e8:	97fff4c2 	bl	d4f0 <_obstack_memory_used@@Base+0x6b0>
   101ec:	394ec320 	ldrb	w0, [x25, #944]
   101f0:	3607e900 	tbz	w0, #0, ff10 <_obstack_memory_used@@Base+0x30d0>
   101f4:	aa1703e0 	mov	x0, x23
   101f8:	52800001 	mov	w1, #0x0                   	// #0
   101fc:	97fffd99 	bl	f860 <_obstack_memory_used@@Base+0x2a20>
   10200:	17ffff44 	b	ff10 <_obstack_memory_used@@Base+0x30d0>
   10204:	f00000e0 	adrp	x0, 2f000 <_obstack_memory_used@@Base+0x221c0>
   10208:	f947e000 	ldr	x0, [x0, #4032]
   1020c:	910ac303 	add	x3, x24, #0x2b0
   10210:	f9400000 	ldr	x0, [x0]
   10214:	f9400861 	ldr	x1, [x3, #16]
   10218:	a9429002 	ldp	x2, x4, [x0, #40]
   1021c:	91000421 	add	x1, x1, #0x1
   10220:	f9000861 	str	x1, [x3, #16]
   10224:	eb04005f 	cmp	x2, x4
   10228:	54000522 	b.cs	102cc <_obstack_memory_used@@Base+0x348c>  // b.hs, b.nlast
   1022c:	91000441 	add	x1, x2, #0x1
   10230:	f9001401 	str	x1, [x0, #40]
   10234:	52800140 	mov	w0, #0xa                   	// #10
   10238:	39000040 	strb	w0, [x2]
   1023c:	910ac300 	add	x0, x24, #0x2b0
   10240:	91004294 	add	x20, x20, #0x10
   10244:	397f8000 	ldrb	w0, [x0, #4064]
   10248:	3903329f 	strb	wzr, [x20, #204]
   1024c:	3607dca0 	tbz	w0, #0, fde0 <_obstack_memory_used@@Base+0x2fa0>
   10250:	f0000040 	adrp	x0, 1b000 <_obstack_memory_used@@Base+0xe1c0>
   10254:	d2800041 	mov	x1, #0x2                   	// #2
   10258:	912c8000 	add	x0, x0, #0xb20
   1025c:	97ffdc75 	bl	7430 <setlocale@plt+0x35d0>
   10260:	910ec320 	add	x0, x25, #0x3b0
   10264:	d2800014 	mov	x20, #0x0                   	// #0
   10268:	39400800 	ldrb	w0, [x0, #2]
   1026c:	3607dc20 	tbz	w0, #0, fdf0 <_obstack_memory_used@@Base+0x2fb0>
   10270:	aa1703e0 	mov	x0, x23
   10274:	940012a8 	bl	14d14 <_obstack_memory_used@@Base+0x7ed4>
   10278:	aa0003f4 	mov	x20, x0
   1027c:	b5ffdba0 	cbnz	x0, fdf0 <_obstack_memory_used@@Base+0x2fb0>
   10280:	528000a2 	mov	w2, #0x5                   	// #5
   10284:	f0000041 	adrp	x1, 1b000 <_obstack_memory_used@@Base+0xe1c0>
   10288:	912ee021 	add	x1, x1, #0xbb8
   1028c:	97ffceb5 	bl	3d60 <dcgettext@plt>
   10290:	aa1703e2 	mov	x2, x23
   10294:	aa0003e1 	mov	x1, x0
   10298:	2a1b03e0 	mov	w0, w27
   1029c:	97ffeaa5 	bl	ad30 <setlocale@plt+0x6ed0>
   102a0:	17fffed4 	b	fdf0 <_obstack_memory_used@@Base+0x2fb0>
   102a4:	f0000040 	adrp	x0, 1b000 <_obstack_memory_used@@Base+0xe1c0>
   102a8:	d2800041 	mov	x1, #0x2                   	// #2
   102ac:	912c8000 	add	x0, x0, #0xb20
   102b0:	97ffdc60 	bl	7430 <setlocale@plt+0x35d0>
   102b4:	17ffff43 	b	ffc0 <_obstack_memory_used@@Base+0x3180>
   102b8:	aa1403e0 	mov	x0, x20
   102bc:	d2800201 	mov	x1, #0x10                  	// #16
   102c0:	97fff230 	bl	cb80 <_obstack_newchunk@@Base>
   102c4:	f9400e80 	ldr	x0, [x20, #24]
   102c8:	17fffeb3 	b	fd94 <_obstack_memory_used@@Base+0x2f54>
   102cc:	52800141 	mov	w1, #0xa                   	// #10
   102d0:	97ffce38 	bl	3bb0 <__overflow@plt>
   102d4:	17fffebe 	b	fdcc <_obstack_memory_used@@Base+0x2f8c>
   102d8:	97ffce0e 	bl	3b10 <__stack_chk_fail@plt>
   102dc:	528000a2 	mov	w2, #0x5                   	// #5
   102e0:	f0000041 	adrp	x1, 1b000 <_obstack_memory_used@@Base+0xe1c0>
   102e4:	912d0021 	add	x1, x1, #0xb40
   102e8:	97ffce9e 	bl	3d60 <dcgettext@plt>
   102ec:	f00000e2 	adrp	x2, 2f000 <_obstack_memory_used@@Base+0x221c0>
   102f0:	f947e842 	ldr	x2, [x2, #4048]
   102f4:	aa0003e1 	mov	x1, x0
   102f8:	f94167e0 	ldr	x0, [sp, #712]
   102fc:	f9400043 	ldr	x3, [x2]
   10300:	eb030000 	subs	x0, x0, x3
   10304:	d2800003 	mov	x3, #0x0                   	// #0
   10308:	54000181 	b.ne	10338 <_obstack_memory_used@@Base+0x34f8>  // b.any
   1030c:	910b43ff 	add	sp, sp, #0x2d0
   10310:	aa1703e2 	mov	x2, x23
   10314:	2a1b03e0 	mov	w0, w27
   10318:	a94153f3 	ldp	x19, x20, [sp, #16]
   1031c:	a9425bf5 	ldp	x21, x22, [sp, #32]
   10320:	a94363f7 	ldp	x23, x24, [sp, #48]
   10324:	a94573fb 	ldp	x27, x28, [sp, #80]
   10328:	a8c67bfd 	ldp	x29, x30, [sp], #96
   1032c:	d50323bf 	autiasp
   10330:	17ffea80 	b	ad30 <setlocale@plt+0x6ed0>
   10334:	97fff448 	bl	d454 <_obstack_memory_used@@Base+0x614>
   10338:	f9018bf9 	str	x25, [sp, #784]
   1033c:	f9018ffa 	str	x26, [sp, #792]
   10340:	97ffcdf4 	bl	3b10 <__stack_chk_fail@plt>
   10344:	d503201f 	nop
   10348:	d503201f 	nop
   1034c:	d503201f 	nop
   10350:	d503233f 	paciasp
   10354:	a9bd7bfd 	stp	x29, x30, [sp, #-48]!
   10358:	910003fd 	mov	x29, sp
   1035c:	a90153f3 	stp	x19, x20, [sp, #16]
   10360:	f90013f5 	str	x21, [sp, #32]
   10364:	b4000341 	cbz	x1, 103cc <_obstack_memory_used@@Base+0x358c>
   10368:	f100005f 	cmp	x2, #0x0
   1036c:	aa0003f5 	mov	x21, x0
   10370:	aa0103f3 	mov	x19, x1
   10374:	1a9f07f4 	cset	w20, ne	// ne = any
   10378:	aa1303e1 	mov	x1, x19
   1037c:	aa1503e0 	mov	x0, x21
   10380:	97ffce8c 	bl	3db0 <mbrtoc32@plt>
   10384:	7100029f 	cmp	w20, #0x0
   10388:	aa0003f4 	mov	x20, x0
   1038c:	ba431800 	ccmn	x0, #0x3, #0x0, ne	// ne = any
   10390:	540000e8 	b.hi	103ac <_obstack_memory_used@@Base+0x356c>  // b.pmore
   10394:	f94013f5 	ldr	x21, [sp, #32]
   10398:	aa1403e0 	mov	x0, x20
   1039c:	a94153f3 	ldp	x19, x20, [sp, #16]
   103a0:	a8c37bfd 	ldp	x29, x30, [sp], #48
   103a4:	d50323bf 	autiasp
   103a8:	d65f03c0 	ret
   103ac:	52800000 	mov	w0, #0x0                   	// #0
   103b0:	97ffeda0 	bl	ba30 <setlocale@plt+0x7bd0>
   103b4:	3707ff00 	tbnz	w0, #0, 10394 <_obstack_memory_used@@Base+0x3554>
   103b8:	b4000075 	cbz	x21, 103c4 <_obstack_memory_used@@Base+0x3584>
   103bc:	39400260 	ldrb	w0, [x19]
   103c0:	b90002a0 	str	w0, [x21]
   103c4:	d2800034 	mov	x20, #0x1                   	// #1
   103c8:	17fffff3 	b	10394 <_obstack_memory_used@@Base+0x3554>
   103cc:	b0000053 	adrp	x19, 19000 <_obstack_memory_used@@Base+0xc1c0>
   103d0:	d2800015 	mov	x21, #0x0                   	// #0
   103d4:	912a0273 	add	x19, x19, #0xa80
   103d8:	52800034 	mov	w20, #0x1                   	// #1
   103dc:	d2800022 	mov	x2, #0x1                   	// #1
   103e0:	17ffffe6 	b	10378 <_obstack_memory_used@@Base+0x3538>
   103e4:	d503233f 	paciasp
   103e8:	d10583ff 	sub	sp, sp, #0x160
   103ec:	f00000ea 	adrp	x10, 2f000 <_obstack_memory_used@@Base+0x221c0>
   103f0:	f947e94a 	ldr	x10, [x10, #4048]
   103f4:	910583e8 	add	x8, sp, #0x160
   103f8:	a90a7bfd 	stp	x29, x30, [sp, #160]
   103fc:	910283fd 	add	x29, sp, #0xa0
   10400:	aa0803eb 	mov	x11, x8
   10404:	910123e2 	add	x2, sp, #0x48
   10408:	a90b53f3 	stp	x19, x20, [sp, #176]
   1040c:	aa0003f4 	mov	x20, x0
   10410:	128003e0 	mov	w0, #0xffffffe0            	// #-32
   10414:	3d8033e0 	str	q0, [sp, #192]
   10418:	2a0003e9 	mov	w9, w0
   1041c:	910503ed 	add	x13, sp, #0x140
   10420:	3d8037e1 	str	q1, [sp, #208]
   10424:	12800fec 	mov	w12, #0xffffff80            	// #-128
   10428:	d2800013 	mov	x19, #0x0                   	// #0
   1042c:	3d803be2 	str	q2, [sp, #224]
   10430:	3d803fe3 	str	q3, [sp, #240]
   10434:	3d8043e4 	str	q4, [sp, #256]
   10438:	3d8047e5 	str	q5, [sp, #272]
   1043c:	3d804be6 	str	q6, [sp, #288]
   10440:	3d804fe7 	str	q7, [sp, #304]
   10444:	a91417e4 	stp	x4, x5, [sp, #320]
   10448:	a9151fe6 	stp	x6, x7, [sp, #336]
   1044c:	f9400144 	ldr	x4, [x10]
   10450:	f9004fe4 	str	x4, [sp, #152]
   10454:	d2800004 	mov	x4, #0x0                   	// #0
   10458:	a902a3e8 	stp	x8, x8, [sp, #40]
   1045c:	f9001fed 	str	x13, [sp, #56]
   10460:	290833e0 	stp	w0, w12, [sp, #64]
   10464:	d503201f 	nop
   10468:	37f80a09 	tbnz	w9, #31, 105a8 <_obstack_memory_used@@Base+0x3768>
   1046c:	aa0803e4 	mov	x4, x8
   10470:	91002108 	add	x8, x8, #0x8
   10474:	f9400084 	ldr	x4, [x4]
   10478:	f9000044 	str	x4, [x2]
   1047c:	b4000aa4 	cbz	x4, 105d0 <_obstack_memory_used@@Base+0x3790>
   10480:	91000673 	add	x19, x19, #0x1
   10484:	91002042 	add	x2, x2, #0x8
   10488:	f1002a7f 	cmp	x19, #0xa
   1048c:	54fffee1 	b.ne	10468 <_obstack_memory_used@@Base+0x3628>  // b.any
   10490:	aa0303e5 	mov	x5, x3
   10494:	f0000044 	adrp	x4, 1b000 <_obstack_memory_used@@Base+0xe1c0>
   10498:	aa0103e3 	mov	x3, x1
   1049c:	91246084 	add	x4, x4, #0x918
   104a0:	52800041 	mov	w1, #0x2                   	// #2
   104a4:	aa1403e0 	mov	x0, x20
   104a8:	90000062 	adrp	x2, 1c000 <_obstack_memory_used@@Base+0xf1c0>
   104ac:	911d6042 	add	x2, x2, #0x758
   104b0:	97ffcdd4 	bl	3c00 <__fprintf_chk@plt>
   104b4:	528000a2 	mov	w2, #0x5                   	// #5
   104b8:	90000061 	adrp	x1, 1c000 <_obstack_memory_used@@Base+0xf1c0>
   104bc:	d2800000 	mov	x0, #0x0                   	// #0
   104c0:	911da021 	add	x1, x1, #0x768
   104c4:	97ffce27 	bl	3d60 <dcgettext@plt>
   104c8:	aa0003e3 	mov	x3, x0
   104cc:	90000062 	adrp	x2, 1c000 <_obstack_memory_used@@Base+0xf1c0>
   104d0:	91398042 	add	x2, x2, #0xe60
   104d4:	5280fce4 	mov	w4, #0x7e7                 	// #2023
   104d8:	52800041 	mov	w1, #0x2                   	// #2
   104dc:	aa1403e0 	mov	x0, x20
   104e0:	97ffcdc8 	bl	3c00 <__fprintf_chk@plt>
   104e4:	aa1403e1 	mov	x1, x20
   104e8:	2a1303e0 	mov	w0, w19
   104ec:	97ffce15 	bl	3d40 <fputc_unlocked@plt>
   104f0:	528000a2 	mov	w2, #0x5                   	// #5
   104f4:	90000061 	adrp	x1, 1c000 <_obstack_memory_used@@Base+0xf1c0>
   104f8:	d2800000 	mov	x0, #0x0                   	// #0
   104fc:	911dc021 	add	x1, x1, #0x770
   10500:	97ffce18 	bl	3d60 <dcgettext@plt>
   10504:	aa0003e2 	mov	x2, x0
   10508:	90000063 	adrp	x3, 1c000 <_obstack_memory_used@@Base+0xf1c0>
   1050c:	91208063 	add	x3, x3, #0x820
   10510:	52800041 	mov	w1, #0x2                   	// #2
   10514:	aa1403e0 	mov	x0, x20
   10518:	97ffcdba 	bl	3c00 <__fprintf_chk@plt>
   1051c:	aa1403e1 	mov	x1, x20
   10520:	2a1303e0 	mov	w0, w19
   10524:	97ffce07 	bl	3d40 <fputc_unlocked@plt>
   10528:	90000061 	adrp	x1, 1c000 <_obstack_memory_used@@Base+0xf1c0>
   1052c:	91266021 	add	x1, x1, #0x998
   10530:	528000a2 	mov	w2, #0x5                   	// #5
   10534:	d2800000 	mov	x0, #0x0                   	// #0
   10538:	97ffce0a 	bl	3d60 <dcgettext@plt>
   1053c:	a946a3e7 	ldp	x7, x8, [sp, #104]
   10540:	f90003e8 	str	x8, [sp]
   10544:	a94493e3 	ldp	x3, x4, [sp, #72]
   10548:	aa0003e2 	mov	x2, x0
   1054c:	a9459be5 	ldp	x5, x6, [sp, #88]
   10550:	aa1403e0 	mov	x0, x20
   10554:	f9403fe8 	ldr	x8, [sp, #120]
   10558:	f90007e8 	str	x8, [sp, #8]
   1055c:	f94043e8 	ldr	x8, [sp, #128]
   10560:	f9000be8 	str	x8, [sp, #16]
   10564:	f94047e8 	ldr	x8, [sp, #136]
   10568:	f9000fe8 	str	x8, [sp, #24]
   1056c:	52800041 	mov	w1, #0x2                   	// #2
   10570:	97ffcda4 	bl	3c00 <__fprintf_chk@plt>
   10574:	d503201f 	nop
   10578:	f00000e0 	adrp	x0, 2f000 <_obstack_memory_used@@Base+0x221c0>
   1057c:	f947e800 	ldr	x0, [x0, #4048]
   10580:	f9404fe2 	ldr	x2, [sp, #152]
   10584:	f9400001 	ldr	x1, [x0]
   10588:	eb010042 	subs	x2, x2, x1
   1058c:	d2800001 	mov	x1, #0x0                   	// #0
   10590:	54001681 	b.ne	10860 <_obstack_memory_used@@Base+0x3a20>  // b.any
   10594:	a94a7bfd 	ldp	x29, x30, [sp, #160]
   10598:	a94b53f3 	ldp	x19, x20, [sp, #176]
   1059c:	910583ff 	add	sp, sp, #0x160
   105a0:	d50323bf 	autiasp
   105a4:	d65f03c0 	ret
   105a8:	11002120 	add	w0, w9, #0x8
   105ac:	7100001f 	cmp	w0, #0x0
   105b0:	5400006d 	b.le	105bc <_obstack_memory_used@@Base+0x377c>
   105b4:	2a0003e9 	mov	w9, w0
   105b8:	17ffffad 	b	1046c <_obstack_memory_used@@Base+0x362c>
   105bc:	8b29c164 	add	x4, x11, w9, sxtw
   105c0:	2a0003e9 	mov	w9, w0
   105c4:	f9400084 	ldr	x4, [x4]
   105c8:	f9000044 	str	x4, [x2]
   105cc:	b5fff5a4 	cbnz	x4, 10480 <_obstack_memory_used@@Base+0x3640>
   105d0:	aa0303e5 	mov	x5, x3
   105d4:	f0000044 	adrp	x4, 1b000 <_obstack_memory_used@@Base+0xe1c0>
   105d8:	aa0103e3 	mov	x3, x1
   105dc:	91246084 	add	x4, x4, #0x918
   105e0:	52800041 	mov	w1, #0x2                   	// #2
   105e4:	aa1403e0 	mov	x0, x20
   105e8:	90000062 	adrp	x2, 1c000 <_obstack_memory_used@@Base+0xf1c0>
   105ec:	911d6042 	add	x2, x2, #0x758
   105f0:	97ffcd84 	bl	3c00 <__fprintf_chk@plt>
   105f4:	528000a2 	mov	w2, #0x5                   	// #5
   105f8:	90000061 	adrp	x1, 1c000 <_obstack_memory_used@@Base+0xf1c0>
   105fc:	d2800000 	mov	x0, #0x0                   	// #0
   10600:	911da021 	add	x1, x1, #0x768
   10604:	97ffcdd7 	bl	3d60 <dcgettext@plt>
   10608:	aa0003e3 	mov	x3, x0
   1060c:	90000062 	adrp	x2, 1c000 <_obstack_memory_used@@Base+0xf1c0>
   10610:	91398042 	add	x2, x2, #0xe60
   10614:	5280fce4 	mov	w4, #0x7e7                 	// #2023
   10618:	52800041 	mov	w1, #0x2                   	// #2
   1061c:	aa1403e0 	mov	x0, x20
   10620:	97ffcd78 	bl	3c00 <__fprintf_chk@plt>
   10624:	aa1403e1 	mov	x1, x20
   10628:	52800140 	mov	w0, #0xa                   	// #10
   1062c:	97ffcdc5 	bl	3d40 <fputc_unlocked@plt>
   10630:	528000a2 	mov	w2, #0x5                   	// #5
   10634:	90000061 	adrp	x1, 1c000 <_obstack_memory_used@@Base+0xf1c0>
   10638:	d2800000 	mov	x0, #0x0                   	// #0
   1063c:	911dc021 	add	x1, x1, #0x770
   10640:	97ffcdc8 	bl	3d60 <dcgettext@plt>
   10644:	aa0003e2 	mov	x2, x0
   10648:	90000063 	adrp	x3, 1c000 <_obstack_memory_used@@Base+0xf1c0>
   1064c:	91208063 	add	x3, x3, #0x820
   10650:	52800041 	mov	w1, #0x2                   	// #2
   10654:	aa1403e0 	mov	x0, x20
   10658:	97ffcd6a 	bl	3c00 <__fprintf_chk@plt>
   1065c:	aa1403e1 	mov	x1, x20
   10660:	52800140 	mov	w0, #0xa                   	// #10
   10664:	97ffcdb7 	bl	3d40 <fputc_unlocked@plt>
   10668:	f100167f 	cmp	x19, #0x5
   1066c:	540009e0 	b.eq	107a8 <_obstack_memory_used@@Base+0x3968>  // b.none
   10670:	54000208 	b.hi	106b0 <_obstack_memory_used@@Base+0x3870>  // b.pmore
   10674:	f1000a7f 	cmp	x19, #0x2
   10678:	54000de0 	b.eq	10834 <_obstack_memory_used@@Base+0x39f4>  // b.none
   1067c:	54000468 	b.hi	10708 <_obstack_memory_used@@Base+0x38c8>  // b.pmore
   10680:	b4fff7d3 	cbz	x19, 10578 <_obstack_memory_used@@Base+0x3738>
   10684:	528000a2 	mov	w2, #0x5                   	// #5
   10688:	90000061 	adrp	x1, 1c000 <_obstack_memory_used@@Base+0xf1c0>
   1068c:	d2800000 	mov	x0, #0x0                   	// #0
   10690:	91212021 	add	x1, x1, #0x848
   10694:	97ffcdb3 	bl	3d60 <dcgettext@plt>
   10698:	aa0003e2 	mov	x2, x0
   1069c:	f94027e3 	ldr	x3, [sp, #72]
   106a0:	aa1403e0 	mov	x0, x20
   106a4:	52800041 	mov	w1, #0x2                   	// #2
   106a8:	97ffcd56 	bl	3c00 <__fprintf_chk@plt>
   106ac:	17ffffb3 	b	10578 <_obstack_memory_used@@Base+0x3738>
   106b0:	f100227f 	cmp	x19, #0x8
   106b4:	540009c0 	b.eq	107ec <_obstack_memory_used@@Base+0x39ac>  // b.none
   106b8:	f100267f 	cmp	x19, #0x9
   106bc:	54000900 	b.eq	107dc <_obstack_memory_used@@Base+0x399c>  // b.none
   106c0:	f1001a7f 	cmp	x19, #0x6
   106c4:	540003e0 	b.eq	10740 <_obstack_memory_used@@Base+0x3900>  // b.none
   106c8:	528000a2 	mov	w2, #0x5                   	// #5
   106cc:	90000061 	adrp	x1, 1c000 <_obstack_memory_used@@Base+0xf1c0>
   106d0:	d2800000 	mov	x0, #0x0                   	// #0
   106d4:	91240021 	add	x1, x1, #0x900
   106d8:	97ffcda2 	bl	3d60 <dcgettext@plt>
   106dc:	aa0003e2 	mov	x2, x0
   106e0:	a94493e3 	ldp	x3, x4, [sp, #72]
   106e4:	aa1403e0 	mov	x0, x20
   106e8:	a9459be5 	ldp	x5, x6, [sp, #88]
   106ec:	52800041 	mov	w1, #0x2                   	// #2
   106f0:	a946a3e7 	ldp	x7, x8, [sp, #104]
   106f4:	f90003e8 	str	x8, [sp]
   106f8:	f9403fe8 	ldr	x8, [sp, #120]
   106fc:	f90007e8 	str	x8, [sp, #8]
   10700:	97ffcd40 	bl	3c00 <__fprintf_chk@plt>
   10704:	17ffff9d 	b	10578 <_obstack_memory_used@@Base+0x3738>
   10708:	f1000e7f 	cmp	x19, #0x3
   1070c:	54000360 	b.eq	10778 <_obstack_memory_used@@Base+0x3938>  // b.none
   10710:	528000a2 	mov	w2, #0x5                   	// #5
   10714:	90000061 	adrp	x1, 1c000 <_obstack_memory_used@@Base+0xf1c0>
   10718:	d2800000 	mov	x0, #0x0                   	// #0
   1071c:	91224021 	add	x1, x1, #0x890
   10720:	97ffcd90 	bl	3d60 <dcgettext@plt>
   10724:	aa0003e2 	mov	x2, x0
   10728:	a94493e3 	ldp	x3, x4, [sp, #72]
   1072c:	aa1403e0 	mov	x0, x20
   10730:	a9459be5 	ldp	x5, x6, [sp, #88]
   10734:	52800041 	mov	w1, #0x2                   	// #2
   10738:	97ffcd32 	bl	3c00 <__fprintf_chk@plt>
   1073c:	17ffff8f 	b	10578 <_obstack_memory_used@@Base+0x3738>
   10740:	528000a2 	mov	w2, #0x5                   	// #5
   10744:	90000061 	adrp	x1, 1c000 <_obstack_memory_used@@Base+0xf1c0>
   10748:	d2800000 	mov	x0, #0x0                   	// #0
   1074c:	91236021 	add	x1, x1, #0x8d8
   10750:	97ffcd84 	bl	3d60 <dcgettext@plt>
   10754:	aa0003e2 	mov	x2, x0
   10758:	a94493e3 	ldp	x3, x4, [sp, #72]
   1075c:	aa1403e0 	mov	x0, x20
   10760:	a9459be5 	ldp	x5, x6, [sp, #88]
   10764:	52800041 	mov	w1, #0x2                   	// #2
   10768:	a946a3e7 	ldp	x7, x8, [sp, #104]
   1076c:	f90003e8 	str	x8, [sp]
   10770:	97ffcd24 	bl	3c00 <__fprintf_chk@plt>
   10774:	17ffff81 	b	10578 <_obstack_memory_used@@Base+0x3738>
   10778:	528000a2 	mov	w2, #0x5                   	// #5
   1077c:	90000061 	adrp	x1, 1c000 <_obstack_memory_used@@Base+0xf1c0>
   10780:	d2800000 	mov	x0, #0x0                   	// #0
   10784:	9121c021 	add	x1, x1, #0x870
   10788:	97ffcd76 	bl	3d60 <dcgettext@plt>
   1078c:	aa0003e2 	mov	x2, x0
   10790:	a94493e3 	ldp	x3, x4, [sp, #72]
   10794:	aa1403e0 	mov	x0, x20
   10798:	f9402fe5 	ldr	x5, [sp, #88]
   1079c:	52800041 	mov	w1, #0x2                   	// #2
   107a0:	97ffcd18 	bl	3c00 <__fprintf_chk@plt>
   107a4:	17ffff75 	b	10578 <_obstack_memory_used@@Base+0x3738>
   107a8:	2a1303e2 	mov	w2, w19
   107ac:	90000061 	adrp	x1, 1c000 <_obstack_memory_used@@Base+0xf1c0>
   107b0:	d2800000 	mov	x0, #0x0                   	// #0
   107b4:	9122c021 	add	x1, x1, #0x8b0
   107b8:	97ffcd6a 	bl	3d60 <dcgettext@plt>
   107bc:	aa0003e2 	mov	x2, x0
   107c0:	a94493e3 	ldp	x3, x4, [sp, #72]
   107c4:	aa1403e0 	mov	x0, x20
   107c8:	a9459be5 	ldp	x5, x6, [sp, #88]
   107cc:	52800041 	mov	w1, #0x2                   	// #2
   107d0:	f94037e7 	ldr	x7, [sp, #104]
   107d4:	97ffcd0b 	bl	3c00 <__fprintf_chk@plt>
   107d8:	17ffff68 	b	10578 <_obstack_memory_used@@Base+0x3738>
   107dc:	90000061 	adrp	x1, 1c000 <_obstack_memory_used@@Base+0xf1c0>
   107e0:	528000a2 	mov	w2, #0x5                   	// #5
   107e4:	91258021 	add	x1, x1, #0x960
   107e8:	17ffff53 	b	10534 <_obstack_memory_used@@Base+0x36f4>
   107ec:	528000a2 	mov	w2, #0x5                   	// #5
   107f0:	90000061 	adrp	x1, 1c000 <_obstack_memory_used@@Base+0xf1c0>
   107f4:	d2800000 	mov	x0, #0x0                   	// #0
   107f8:	9124c021 	add	x1, x1, #0x930
   107fc:	97ffcd59 	bl	3d60 <dcgettext@plt>
   10800:	aa0003e2 	mov	x2, x0
   10804:	a946a3e7 	ldp	x7, x8, [sp, #104]
   10808:	f90003e8 	str	x8, [sp]
   1080c:	a94493e3 	ldp	x3, x4, [sp, #72]
   10810:	aa1403e0 	mov	x0, x20
   10814:	a9459be5 	ldp	x5, x6, [sp, #88]
   10818:	52800041 	mov	w1, #0x2                   	// #2
   1081c:	f9403fe8 	ldr	x8, [sp, #120]
   10820:	f90007e8 	str	x8, [sp, #8]
   10824:	f94043e8 	ldr	x8, [sp, #128]
   10828:	f9000be8 	str	x8, [sp, #16]
   1082c:	97ffccf5 	bl	3c00 <__fprintf_chk@plt>
   10830:	17ffff52 	b	10578 <_obstack_memory_used@@Base+0x3738>
   10834:	528000a2 	mov	w2, #0x5                   	// #5
   10838:	90000061 	adrp	x1, 1c000 <_obstack_memory_used@@Base+0xf1c0>
   1083c:	d2800000 	mov	x0, #0x0                   	// #0
   10840:	91216021 	add	x1, x1, #0x858
   10844:	97ffcd47 	bl	3d60 <dcgettext@plt>
   10848:	aa0003e2 	mov	x2, x0
   1084c:	a94493e3 	ldp	x3, x4, [sp, #72]
   10850:	2a1303e1 	mov	w1, w19
   10854:	aa1403e0 	mov	x0, x20
   10858:	97ffccea 	bl	3c00 <__fprintf_chk@plt>
   1085c:	17ffff47 	b	10578 <_obstack_memory_used@@Base+0x3738>
   10860:	97ffccac 	bl	3b10 <__stack_chk_fail@plt>
   10864:	d503233f 	paciasp
   10868:	a9be7bfd 	stp	x29, x30, [sp, #-32]!
   1086c:	910003fd 	mov	x29, sp
   10870:	a90153f3 	stp	x19, x20, [sp, #16]
   10874:	97ffcd63 	bl	3e00 <__errno_location@plt>
   10878:	aa0003f3 	mov	x19, x0
   1087c:	d2800700 	mov	x0, #0x38                  	// #56
   10880:	b9400274 	ldr	w20, [x19]
   10884:	97ffcc5b 	bl	39f0 <malloc@plt>
   10888:	b40001c0 	cbz	x0, 108c0 <_obstack_memory_used@@Base+0x3a80>
   1088c:	90000102 	adrp	x2, 30000 <_obstack_memory_used@@Base+0x231c0>
   10890:	913d2042 	add	x2, x2, #0xf48
   10894:	ad400841 	ldp	q1, q2, [x2]
   10898:	3dc00840 	ldr	q0, [x2, #32]
   1089c:	f9401842 	ldr	x2, [x2, #48]
   108a0:	b9000274 	str	w20, [x19]
   108a4:	f9001802 	str	x2, [x0, #48]
   108a8:	ad000801 	stp	q1, q2, [x0]
   108ac:	3d800800 	str	q0, [x0, #32]
   108b0:	a94153f3 	ldp	x19, x20, [sp, #16]
   108b4:	a8c27bfd 	ldp	x29, x30, [sp], #32
   108b8:	d50323bf 	autiasp
   108bc:	d65f03c0 	ret
   108c0:	97fff2e5 	bl	d454 <_obstack_memory_used@@Base+0x614>
   108c4:	d503233f 	paciasp
   108c8:	a9ba7bfd 	stp	x29, x30, [sp, #-96]!
   108cc:	910003fd 	mov	x29, sp
   108d0:	a9025bf5 	stp	x21, x22, [sp, #32]
   108d4:	aa0103f6 	mov	x22, x1
   108d8:	a90153f3 	stp	x19, x20, [sp, #16]
   108dc:	a90363f7 	stp	x23, x24, [sp, #48]
   108e0:	aa0003f7 	mov	x23, x0
   108e4:	a9046bf9 	stp	x25, x26, [sp, #64]
   108e8:	aa0203f9 	mov	x25, x2
   108ec:	97ffcbc5 	bl	3800 <strlen@plt>
   108f0:	f94002d3 	ldr	x19, [x22]
   108f4:	b40006b3 	cbz	x19, 109c8 <_obstack_memory_used@@Base+0x3b88>
   108f8:	aa0003f5 	mov	x21, x0
   108fc:	5280001a 	mov	w26, #0x0                   	// #0
   10900:	d2800014 	mov	x20, #0x0                   	// #0
   10904:	92800018 	mov	x24, #0xffffffffffffffff    	// #-1
   10908:	f9002bfb 	str	x27, [sp, #80]
   1090c:	5280003b 	mov	w27, #0x1                   	// #1
   10910:	14000008 	b	10930 <_obstack_memory_used@@Base+0x3af0>
   10914:	b8747b21 	ldr	w1, [x25, x20, lsl #2]
   10918:	b8787b20 	ldr	w0, [x25, x24, lsl #2]
   1091c:	6b00003f 	cmp	w1, w0
   10920:	1a9b035a 	csel	w26, w26, w27, eq	// eq = none
   10924:	91000694 	add	x20, x20, #0x1
   10928:	f8747ad3 	ldr	x19, [x22, x20, lsl #3]
   1092c:	b4000233 	cbz	x19, 10970 <_obstack_memory_used@@Base+0x3b30>
   10930:	aa1503e2 	mov	x2, x21
   10934:	aa1703e1 	mov	x1, x23
   10938:	aa1303e0 	mov	x0, x19
   1093c:	97ffcc49 	bl	3a60 <strncmp@plt>
   10940:	2a0003e3 	mov	w3, w0
   10944:	aa1303e0 	mov	x0, x19
   10948:	35fffee3 	cbnz	w3, 10924 <_obstack_memory_used@@Base+0x3ae4>
   1094c:	97ffcbad 	bl	3800 <strlen@plt>
   10950:	eb0002bf 	cmp	x21, x0
   10954:	54000260 	b.eq	109a0 <_obstack_memory_used@@Base+0x3b60>  // b.none
   10958:	b100071f 	cmn	x24, #0x1
   1095c:	54fffdc1 	b.ne	10914 <_obstack_memory_used@@Base+0x3ad4>  // b.any
   10960:	aa1403f8 	mov	x24, x20
   10964:	91000694 	add	x20, x20, #0x1
   10968:	f8747ad3 	ldr	x19, [x22, x20, lsl #3]
   1096c:	b5fffe33 	cbnz	x19, 10930 <_obstack_memory_used@@Base+0x3af0>
   10970:	f9402bfb 	ldr	x27, [sp, #80]
   10974:	f240035f 	tst	x26, #0x1
   10978:	92800020 	mov	x0, #0xfffffffffffffffe    	// #-2
   1097c:	9a800318 	csel	x24, x24, x0, eq	// eq = none
   10980:	a94153f3 	ldp	x19, x20, [sp, #16]
   10984:	aa1803e0 	mov	x0, x24
   10988:	a9425bf5 	ldp	x21, x22, [sp, #32]
   1098c:	a94363f7 	ldp	x23, x24, [sp, #48]
   10990:	a9446bf9 	ldp	x25, x26, [sp, #64]
   10994:	a8c67bfd 	ldp	x29, x30, [sp], #96
   10998:	d50323bf 	autiasp
   1099c:	d65f03c0 	ret
   109a0:	aa1403f8 	mov	x24, x20
   109a4:	a94153f3 	ldp	x19, x20, [sp, #16]
   109a8:	aa1803e0 	mov	x0, x24
   109ac:	a9425bf5 	ldp	x21, x22, [sp, #32]
   109b0:	a94363f7 	ldp	x23, x24, [sp, #48]
   109b4:	a9446bf9 	ldp	x25, x26, [sp, #64]
   109b8:	f9402bfb 	ldr	x27, [sp, #80]
   109bc:	a8c67bfd 	ldp	x29, x30, [sp], #96
   109c0:	d50323bf 	autiasp
   109c4:	d65f03c0 	ret
   109c8:	92800018 	mov	x24, #0xffffffffffffffff    	// #-1
   109cc:	17ffffed 	b	10980 <_obstack_memory_used@@Base+0x3b40>
   109d0:	d503233f 	paciasp
   109d4:	d10183ff 	sub	sp, sp, #0x60
   109d8:	f00000e4 	adrp	x4, 2f000 <_obstack_memory_used@@Base+0x221c0>
   109dc:	f947e884 	ldr	x4, [x4, #4048]
   109e0:	f100003f 	cmp	x1, #0x0
   109e4:	a9017bfd 	stp	x29, x30, [sp, #16]
   109e8:	910043fd 	add	x29, sp, #0x10
   109ec:	a90253f3 	stp	x19, x20, [sp, #32]
   109f0:	aa0103f4 	mov	x20, x1
   109f4:	910003e1 	mov	x1, sp
   109f8:	a9035bf5 	stp	x21, x22, [sp, #48]
   109fc:	aa0003f5 	mov	x21, x0
   10a00:	9a940034 	csel	x20, x1, x20, eq	// eq = none
   10a04:	a90463f7 	stp	x23, x24, [sp, #64]
   10a08:	aa0203f7 	mov	x23, x2
   10a0c:	aa0303f8 	mov	x24, x3
   10a10:	f9400080 	ldr	x0, [x4]
   10a14:	f90007e0 	str	x0, [sp, #8]
   10a18:	d2800000 	mov	x0, #0x0                   	// #0
   10a1c:	97ffccf9 	bl	3e00 <__errno_location@plt>
   10a20:	b900001f 	str	wzr, [x0]
   10a24:	aa0003f6 	mov	x22, x0
   10a28:	394002b3 	ldrb	w19, [x21]
   10a2c:	97ffcc85 	bl	3c40 <__ctype_b_loc@plt>
   10a30:	f9400006 	ldr	x6, [x0]
   10a34:	d37f1e61 	ubfiz	x1, x19, #1, #8
   10a38:	786168c0 	ldrh	w0, [x6, x1]
   10a3c:	366800e0 	tbz	w0, #13, 10a58 <_obstack_memory_used@@Base+0x3c18>
   10a40:	aa1503e4 	mov	x4, x21
   10a44:	d503201f 	nop
   10a48:	38401c93 	ldrb	w19, [x4, #1]!
   10a4c:	d37f1e65 	ubfiz	x5, x19, #1, #8
   10a50:	786568c5 	ldrh	w5, [x6, x5]
   10a54:	376fffa5 	tbnz	w5, #13, 10a48 <_obstack_memory_used@@Base+0x3c08>
   10a58:	7100b67f 	cmp	w19, #0x2d
   10a5c:	54000480 	b.eq	10aec <_obstack_memory_used@@Base+0x3cac>  // b.none
   10a60:	aa1403e1 	mov	x1, x20
   10a64:	aa1503e0 	mov	x0, x21
   10a68:	52800002 	mov	w2, #0x0                   	// #0
   10a6c:	f9002bf9 	str	x25, [sp, #80]
   10a70:	97ffcc48 	bl	3b90 <__isoc23_strtoumax@plt>
   10a74:	aa0003f3 	mov	x19, x0
   10a78:	f9400299 	ldr	x25, [x20]
   10a7c:	eb1902bf 	cmp	x21, x25
   10a80:	540003a0 	b.eq	10af4 <_obstack_memory_used@@Base+0x3cb4>  // b.none
   10a84:	b94002c0 	ldr	w0, [x22]
   10a88:	350002a0 	cbnz	w0, 10adc <_obstack_memory_used@@Base+0x3c9c>
   10a8c:	52800016 	mov	w22, #0x0                   	// #0
   10a90:	39400335 	ldrb	w21, [x25]
   10a94:	35000b15 	cbnz	w21, 10bf4 <_obstack_memory_used@@Base+0x3db4>
   10a98:	f9402bf9 	ldr	x25, [sp, #80]
   10a9c:	f90002f3 	str	x19, [x23]
   10aa0:	f00000e0 	adrp	x0, 2f000 <_obstack_memory_used@@Base+0x221c0>
   10aa4:	f947e800 	ldr	x0, [x0, #4048]
   10aa8:	f94007e2 	ldr	x2, [sp, #8]
   10aac:	f9400001 	ldr	x1, [x0]
   10ab0:	eb010042 	subs	x2, x2, x1
   10ab4:	d2800001 	mov	x1, #0x0                   	// #0
   10ab8:	54001f01 	b.ne	10e98 <_obstack_memory_used@@Base+0x4058>  // b.any
   10abc:	a9417bfd 	ldp	x29, x30, [sp, #16]
   10ac0:	2a1603e0 	mov	w0, w22
   10ac4:	a94253f3 	ldp	x19, x20, [sp, #32]
   10ac8:	a9435bf5 	ldp	x21, x22, [sp, #48]
   10acc:	a94463f7 	ldp	x23, x24, [sp, #64]
   10ad0:	910183ff 	add	sp, sp, #0x60
   10ad4:	d50323bf 	autiasp
   10ad8:	d65f03c0 	ret
   10adc:	52800036 	mov	w22, #0x1                   	// #1
   10ae0:	7100881f 	cmp	w0, #0x22
   10ae4:	54fffd60 	b.eq	10a90 <_obstack_memory_used@@Base+0x3c50>  // b.none
   10ae8:	f9402bf9 	ldr	x25, [sp, #80]
   10aec:	52800096 	mov	w22, #0x4                   	// #4
   10af0:	17ffffec 	b	10aa0 <_obstack_memory_used@@Base+0x3c60>
   10af4:	39400335 	ldrb	w21, [x25]
   10af8:	34ffff95 	cbz	w21, 10ae8 <_obstack_memory_used@@Base+0x3ca8>
   10afc:	2a1503e1 	mov	w1, w21
   10b00:	aa1803e0 	mov	x0, x24
   10b04:	52800016 	mov	w22, #0x0                   	// #0
   10b08:	d2800033 	mov	x19, #0x1                   	// #1
   10b0c:	97ffcc61 	bl	3c90 <strchr@plt>
   10b10:	b4fffec0 	cbz	x0, 10ae8 <_obstack_memory_used@@Base+0x3ca8>
   10b14:	510116a0 	sub	w0, w21, #0x45
   10b18:	12001c00 	and	w0, w0, #0xff
   10b1c:	7100bc1f 	cmp	w0, #0x2f
   10b20:	540002c8 	b.hi	10b78 <_obstack_memory_used@@Base+0x3d38>  // b.pmore
   10b24:	d29728a1 	mov	x1, #0xb945                	// #47429
   10b28:	f2a00601 	movk	x1, #0x30, lsl #16
   10b2c:	f2d02881 	movk	x1, #0x8144, lsl #32
   10b30:	9ac02420 	lsr	x0, x1, x0
   10b34:	36000220 	tbz	w0, #0, 10b78 <_obstack_memory_used@@Base+0x3d38>
   10b38:	aa1803e0 	mov	x0, x24
   10b3c:	52800601 	mov	w1, #0x30                  	// #48
   10b40:	97ffcc54 	bl	3c90 <strchr@plt>
   10b44:	b40001a0 	cbz	x0, 10b78 <_obstack_memory_used@@Base+0x3d38>
   10b48:	39400720 	ldrb	w0, [x25, #1]
   10b4c:	7101101f 	cmp	w0, #0x44
   10b50:	540019e0 	b.eq	10e8c <_obstack_memory_used@@Base+0x404c>  // b.none
   10b54:	7101a41f 	cmp	w0, #0x69
   10b58:	54000580 	b.eq	10c08 <_obstack_memory_used@@Base+0x3dc8>  // b.none
   10b5c:	7101081f 	cmp	w0, #0x42
   10b60:	d2807d02 	mov	x2, #0x3e8                 	// #1000
   10b64:	d2808000 	mov	x0, #0x400                 	// #1024
   10b68:	52800041 	mov	w1, #0x2                   	// #2
   10b6c:	9a821000 	csel	x0, x0, x2, ne	// ne = any
   10b70:	1a9f0421 	csinc	w1, w1, wzr, eq	// eq = none
   10b74:	14000003 	b	10b80 <_obstack_memory_used@@Base+0x3d40>
   10b78:	52800021 	mov	w1, #0x1                   	// #1
   10b7c:	d2808000 	mov	x0, #0x400                 	// #1024
   10b80:	51010ab5 	sub	w21, w21, #0x42
   10b84:	7100d6bf 	cmp	w21, #0x35
   10b88:	540000c9 	b.ls	10ba0 <_obstack_memory_used@@Base+0x3d60>  // b.plast
   10b8c:	d503249f 	bti	j
   10b90:	f9402bf9 	ldr	x25, [sp, #80]
   10b94:	321f02d6 	orr	w22, w22, #0x2
   10b98:	f90002f3 	str	x19, [x23]
   10b9c:	17ffffc1 	b	10aa0 <_obstack_memory_used@@Base+0x3c60>
   10ba0:	90000062 	adrp	x2, 1c000 <_obstack_memory_used@@Base+0xf1c0>
   10ba4:	912dc042 	add	x2, x2, #0xb70
   10ba8:	78755842 	ldrh	w2, [x2, w21, uxtw #1]
   10bac:	10000075 	adr	x21, 10bb8 <_obstack_memory_used@@Base+0x3d78>
   10bb0:	8b22aaa2 	add	x2, x21, w2, sxth #2
   10bb4:	d61f0040 	br	x2
   10bb8:	d503249f 	bti	j
   10bbc:	9bd37c02 	umulh	x2, x0, x19
   10bc0:	9b137c00 	mul	x0, x0, x19
   10bc4:	f100005f 	cmp	x2, #0x0
   10bc8:	1a9f06d6 	csinc	w22, w22, wzr, eq	// eq = none
   10bcc:	da9f0013 	csinv	x19, x0, xzr, eq	// eq = none
   10bd0:	d503249f 	bti	j
   10bd4:	93407c20 	sxtw	x0, w1
   10bd8:	321f02c2 	orr	w2, w22, #0x2
   10bdc:	8b000320 	add	x0, x25, x0
   10be0:	f9000280 	str	x0, [x20]
   10be4:	3861cb20 	ldrb	w0, [x25, w1, sxtw]
   10be8:	7100001f 	cmp	w0, #0x0
   10bec:	1a961056 	csel	w22, w2, w22, ne	// ne = any
   10bf0:	17ffffaa 	b	10a98 <_obstack_memory_used@@Base+0x3c58>
   10bf4:	2a1503e1 	mov	w1, w21
   10bf8:	aa1803e0 	mov	x0, x24
   10bfc:	97ffcc25 	bl	3c90 <strchr@plt>
   10c00:	b5fff8a0 	cbnz	x0, 10b14 <_obstack_memory_used@@Base+0x3cd4>
   10c04:	17ffffe2 	b	10b8c <_obstack_memory_used@@Base+0x3d4c>
   10c08:	39400b22 	ldrb	w2, [x25, #2]
   10c0c:	52800061 	mov	w1, #0x3                   	// #3
   10c10:	d2808000 	mov	x0, #0x400                 	// #1024
   10c14:	7101085f 	cmp	w2, #0x42
   10c18:	1a9f0421 	csinc	w1, w1, wzr, eq	// eq = none
   10c1c:	17ffffd9 	b	10b80 <_obstack_memory_used@@Base+0x3d40>
   10c20:	d503249f 	bti	j
   10c24:	9bd37c03 	umulh	x3, x0, x19
   10c28:	92800004 	mov	x4, #0xffffffffffffffff    	// #-1
   10c2c:	9b137c02 	mul	x2, x0, x19
   10c30:	52800025 	mov	w5, #0x1                   	// #1
   10c34:	f100007f 	cmp	x3, #0x0
   10c38:	9a840042 	csel	x2, x2, x4, eq	// eq = none
   10c3c:	1a9f07e3 	cset	w3, ne	// ne = any
   10c40:	9bc27c06 	umulh	x6, x0, x2
   10c44:	9b027c02 	mul	x2, x0, x2
   10c48:	f10000df 	cmp	x6, #0x0
   10c4c:	9a840042 	csel	x2, x2, x4, eq	// eq = none
   10c50:	1a850063 	csel	w3, w3, w5, eq	// eq = none
   10c54:	9bc27c06 	umulh	x6, x0, x2
   10c58:	9b027c02 	mul	x2, x0, x2
   10c5c:	f10000df 	cmp	x6, #0x0
   10c60:	1a850063 	csel	w3, w3, w5, eq	// eq = none
   10c64:	9a840053 	csel	x19, x2, x4, eq	// eq = none
   10c68:	2a0302d6 	orr	w22, w22, w3
   10c6c:	17ffffd9 	b	10bd0 <_obstack_memory_used@@Base+0x3d90>
   10c70:	d503249f 	bti	j
   10c74:	9bd37c03 	umulh	x3, x0, x19
   10c78:	92800004 	mov	x4, #0xffffffffffffffff    	// #-1
   10c7c:	9b137c02 	mul	x2, x0, x19
   10c80:	f100007f 	cmp	x3, #0x0
   10c84:	9a840042 	csel	x2, x2, x4, eq	// eq = none
   10c88:	1a9f07e3 	cset	w3, ne	// ne = any
   10c8c:	9bc27c05 	umulh	x5, x0, x2
   10c90:	9b027c02 	mul	x2, x0, x2
   10c94:	f10000bf 	cmp	x5, #0x0
   10c98:	1a9f0463 	csinc	w3, w3, wzr, eq	// eq = none
   10c9c:	9a840053 	csel	x19, x2, x4, eq	// eq = none
   10ca0:	2a0302d6 	orr	w22, w22, w3
   10ca4:	17ffffcb 	b	10bd0 <_obstack_memory_used@@Base+0x3d90>
   10ca8:	d503249f 	bti	j
   10cac:	52800082 	mov	w2, #0x4                   	// #4
   10cb0:	52800003 	mov	w3, #0x0                   	// #0
   10cb4:	52800026 	mov	w6, #0x1                   	// #1
   10cb8:	92800005 	mov	x5, #0xffffffffffffffff    	// #-1
   10cbc:	d503201f 	nop
   10cc0:	9bd37c04 	umulh	x4, x0, x19
   10cc4:	9b137c13 	mul	x19, x0, x19
   10cc8:	f100009f 	cmp	x4, #0x0
   10ccc:	1a860063 	csel	w3, w3, w6, eq	// eq = none
   10cd0:	9a850273 	csel	x19, x19, x5, eq	// eq = none
   10cd4:	71000442 	subs	w2, w2, #0x1
   10cd8:	54ffff41 	b.ne	10cc0 <_obstack_memory_used@@Base+0x3e80>  // b.any
   10cdc:	2a0302d6 	orr	w22, w22, w3
   10ce0:	17ffffbc 	b	10bd0 <_obstack_memory_used@@Base+0x3d90>
   10ce4:	d503249f 	bti	j
   10ce8:	d377fe60 	lsr	x0, x19, #55
   10cec:	d377da73 	lsl	x19, x19, #9
   10cf0:	f100001f 	cmp	x0, #0x0
   10cf4:	1a9f06d6 	csinc	w22, w22, wzr, eq	// eq = none
   10cf8:	da9f0273 	csinv	x19, x19, xzr, eq	// eq = none
   10cfc:	17ffffb5 	b	10bd0 <_obstack_memory_used@@Base+0x3d90>
   10d00:	d503249f 	bti	j
   10d04:	d37ffe60 	lsr	x0, x19, #63
   10d08:	d37ffa73 	lsl	x19, x19, #1
   10d0c:	f100001f 	cmp	x0, #0x0
   10d10:	1a9f06d6 	csinc	w22, w22, wzr, eq	// eq = none
   10d14:	da9f0273 	csinv	x19, x19, xzr, eq	// eq = none
   10d18:	17ffffae 	b	10bd0 <_obstack_memory_used@@Base+0x3d90>
   10d1c:	d503249f 	bti	j
   10d20:	d376fe60 	lsr	x0, x19, #54
   10d24:	d376d673 	lsl	x19, x19, #10
   10d28:	f100001f 	cmp	x0, #0x0
   10d2c:	1a9f06d6 	csinc	w22, w22, wzr, eq	// eq = none
   10d30:	da9f0273 	csinv	x19, x19, xzr, eq	// eq = none
   10d34:	17ffffa7 	b	10bd0 <_obstack_memory_used@@Base+0x3d90>
   10d38:	d503249f 	bti	j
   10d3c:	52800102 	mov	w2, #0x8                   	// #8
   10d40:	52800003 	mov	w3, #0x0                   	// #0
   10d44:	52800026 	mov	w6, #0x1                   	// #1
   10d48:	92800005 	mov	x5, #0xffffffffffffffff    	// #-1
   10d4c:	d503201f 	nop
   10d50:	9bd37c04 	umulh	x4, x0, x19
   10d54:	9b137c13 	mul	x19, x0, x19
   10d58:	f100009f 	cmp	x4, #0x0
   10d5c:	1a860063 	csel	w3, w3, w6, eq	// eq = none
   10d60:	9a850273 	csel	x19, x19, x5, eq	// eq = none
   10d64:	71000442 	subs	w2, w2, #0x1
   10d68:	54ffff41 	b.ne	10d50 <_obstack_memory_used@@Base+0x3f10>  // b.any
   10d6c:	2a0302d6 	orr	w22, w22, w3
   10d70:	17ffff98 	b	10bd0 <_obstack_memory_used@@Base+0x3d90>
   10d74:	d503249f 	bti	j
   10d78:	528000e2 	mov	w2, #0x7                   	// #7
   10d7c:	52800003 	mov	w3, #0x0                   	// #0
   10d80:	52800026 	mov	w6, #0x1                   	// #1
   10d84:	92800005 	mov	x5, #0xffffffffffffffff    	// #-1
   10d88:	9bd37c04 	umulh	x4, x0, x19
   10d8c:	9b137c13 	mul	x19, x0, x19
   10d90:	f100009f 	cmp	x4, #0x0
   10d94:	1a860063 	csel	w3, w3, w6, eq	// eq = none
   10d98:	9a850273 	csel	x19, x19, x5, eq	// eq = none
   10d9c:	71000442 	subs	w2, w2, #0x1
   10da0:	54ffff41 	b.ne	10d88 <_obstack_memory_used@@Base+0x3f48>  // b.any
   10da4:	2a0302d6 	orr	w22, w22, w3
   10da8:	17ffff8a 	b	10bd0 <_obstack_memory_used@@Base+0x3d90>
   10dac:	d503249f 	bti	j
   10db0:	528000c2 	mov	w2, #0x6                   	// #6
   10db4:	52800003 	mov	w3, #0x0                   	// #0
   10db8:	52800026 	mov	w6, #0x1                   	// #1
   10dbc:	92800005 	mov	x5, #0xffffffffffffffff    	// #-1
   10dc0:	9bd37c04 	umulh	x4, x0, x19
   10dc4:	9b137c13 	mul	x19, x0, x19
   10dc8:	f100009f 	cmp	x4, #0x0
   10dcc:	1a860063 	csel	w3, w3, w6, eq	// eq = none
   10dd0:	9a850273 	csel	x19, x19, x5, eq	// eq = none
   10dd4:	71000442 	subs	w2, w2, #0x1
   10dd8:	54ffff41 	b.ne	10dc0 <_obstack_memory_used@@Base+0x3f80>  // b.any
   10ddc:	2a0302d6 	orr	w22, w22, w3
   10de0:	17ffff7c 	b	10bd0 <_obstack_memory_used@@Base+0x3d90>
   10de4:	d503249f 	bti	j
   10de8:	528000a2 	mov	w2, #0x5                   	// #5
   10dec:	52800003 	mov	w3, #0x0                   	// #0
   10df0:	52800026 	mov	w6, #0x1                   	// #1
   10df4:	92800005 	mov	x5, #0xffffffffffffffff    	// #-1
   10df8:	9bd37c04 	umulh	x4, x0, x19
   10dfc:	9b137c13 	mul	x19, x0, x19
   10e00:	f100009f 	cmp	x4, #0x0
   10e04:	1a860063 	csel	w3, w3, w6, eq	// eq = none
   10e08:	9a850273 	csel	x19, x19, x5, eq	// eq = none
   10e0c:	71000442 	subs	w2, w2, #0x1
   10e10:	54ffff41 	b.ne	10df8 <_obstack_memory_used@@Base+0x3fb8>  // b.any
   10e14:	2a0302d6 	orr	w22, w22, w3
   10e18:	17ffff6e 	b	10bd0 <_obstack_memory_used@@Base+0x3d90>
   10e1c:	d503249f 	bti	j
   10e20:	52800122 	mov	w2, #0x9                   	// #9
   10e24:	52800003 	mov	w3, #0x0                   	// #0
   10e28:	52800026 	mov	w6, #0x1                   	// #1
   10e2c:	92800005 	mov	x5, #0xffffffffffffffff    	// #-1
   10e30:	9bd37c04 	umulh	x4, x0, x19
   10e34:	9b137c13 	mul	x19, x0, x19
   10e38:	f100009f 	cmp	x4, #0x0
   10e3c:	1a860063 	csel	w3, w3, w6, eq	// eq = none
   10e40:	9a850273 	csel	x19, x19, x5, eq	// eq = none
   10e44:	71000442 	subs	w2, w2, #0x1
   10e48:	54ffff41 	b.ne	10e30 <_obstack_memory_used@@Base+0x3ff0>  // b.any
   10e4c:	2a0302d6 	orr	w22, w22, w3
   10e50:	17ffff60 	b	10bd0 <_obstack_memory_used@@Base+0x3d90>
   10e54:	d503249f 	bti	j
   10e58:	52800142 	mov	w2, #0xa                   	// #10
   10e5c:	52800003 	mov	w3, #0x0                   	// #0
   10e60:	52800026 	mov	w6, #0x1                   	// #1
   10e64:	92800005 	mov	x5, #0xffffffffffffffff    	// #-1
   10e68:	9bd37c04 	umulh	x4, x0, x19
   10e6c:	9b137c13 	mul	x19, x0, x19
   10e70:	f100009f 	cmp	x4, #0x0
   10e74:	1a860063 	csel	w3, w3, w6, eq	// eq = none
   10e78:	9a850273 	csel	x19, x19, x5, eq	// eq = none
   10e7c:	71000442 	subs	w2, w2, #0x1
   10e80:	54ffff41 	b.ne	10e68 <_obstack_memory_used@@Base+0x4028>  // b.any
   10e84:	2a0302d6 	orr	w22, w22, w3
   10e88:	17ffff52 	b	10bd0 <_obstack_memory_used@@Base+0x3d90>
   10e8c:	52800041 	mov	w1, #0x2                   	// #2
   10e90:	d2807d00 	mov	x0, #0x3e8                 	// #1000
   10e94:	17ffff3b 	b	10b80 <_obstack_memory_used@@Base+0x3d40>
   10e98:	f9002bf9 	str	x25, [sp, #80]
   10e9c:	97ffcb1d 	bl	3b10 <__stack_chk_fail@plt>
   10ea0:	d503233f 	paciasp
   10ea4:	d10103ff 	sub	sp, sp, #0x40
   10ea8:	f00000e1 	adrp	x1, 2f000 <_obstack_memory_used@@Base+0x221c0>
   10eac:	f947e821 	ldr	x1, [x1, #4048]
   10eb0:	a9017bfd 	stp	x29, x30, [sp, #16]
   10eb4:	910043fd 	add	x29, sp, #0x10
   10eb8:	a90253f3 	stp	x19, x20, [sp, #32]
   10ebc:	aa0003f3 	mov	x19, x0
   10ec0:	f9400020 	ldr	x0, [x1]
   10ec4:	f90007e0 	str	x0, [sp, #8]
   10ec8:	d2800000 	mov	x0, #0x0                   	// #0
   10ecc:	b4000ad3 	cbz	x19, 11024 <_obstack_memory_used@@Base+0x41e4>
   10ed0:	f9001bf5 	str	x21, [sp, #48]
   10ed4:	52800015 	mov	w21, #0x0                   	// #0
   10ed8:	39400260 	ldrb	w0, [x19]
   10edc:	71009c1f 	cmp	w0, #0x27
   10ee0:	54000061 	b.ne	10eec <_obstack_memory_used@@Base+0x40ac>  // b.any
   10ee4:	91000673 	add	x19, x19, #0x1
   10ee8:	52800095 	mov	w21, #0x4                   	// #4
   10eec:	90000074 	adrp	x20, 1c000 <_obstack_memory_used@@Base+0xf1c0>
   10ef0:	91398294 	add	x20, x20, #0xe60
   10ef4:	f00000e1 	adrp	x1, 2f000 <_obstack_memory_used@@Base+0x221c0>
   10ef8:	9100c282 	add	x2, x20, #0x30
   10efc:	aa1303e0 	mov	x0, x19
   10f00:	91274021 	add	x1, x1, #0x9d0
   10f04:	97fffe70 	bl	108c4 <_obstack_memory_used@@Base+0x3a84>
   10f08:	37f80180 	tbnz	w0, #31, 10f38 <_obstack_memory_used@@Base+0x40f8>
   10f0c:	8b20ca80 	add	x0, x20, w0, sxtw #2
   10f10:	b0000101 	adrp	x1, 31000 <obstack_alloc_failed_handler@@Base+0xd90>
   10f14:	b0000102 	adrp	x2, 31000 <obstack_alloc_failed_handler@@Base+0xd90>
   10f18:	d2800023 	mov	x3, #0x1                   	// #1
   10f1c:	b9403000 	ldr	w0, [x0, #48]
   10f20:	f9000843 	str	x3, [x2, #16]
   10f24:	2a0002a0 	orr	w0, w21, w0
   10f28:	b9001820 	str	w0, [x1, #24]
   10f2c:	f9401bf5 	ldr	x21, [sp, #48]
   10f30:	52800000 	mov	w0, #0x0                   	// #0
   10f34:	14000021 	b	10fb8 <_obstack_memory_used@@Base+0x4178>
   10f38:	90000063 	adrp	x3, 1c000 <_obstack_memory_used@@Base+0xf1c0>
   10f3c:	b0000114 	adrp	x20, 31000 <obstack_alloc_failed_handler@@Base+0xd90>
   10f40:	9127e063 	add	x3, x3, #0x9f8
   10f44:	91004282 	add	x2, x20, #0x10
   10f48:	910003e1 	mov	x1, sp
   10f4c:	aa1303e0 	mov	x0, x19
   10f50:	97fffea0 	bl	109d0 <_obstack_memory_used@@Base+0x3b90>
   10f54:	350004a0 	cbnz	w0, 10fe8 <_obstack_memory_used@@Base+0x41a8>
   10f58:	39400261 	ldrb	w1, [x19]
   10f5c:	5100c021 	sub	w1, w1, #0x30
   10f60:	12001c21 	and	w1, w1, #0xff
   10f64:	7100243f 	cmp	w1, #0x9
   10f68:	540001e9 	b.ls	10fa4 <_obstack_memory_used@@Base+0x4164>  // b.plast
   10f6c:	f94003e2 	ldr	x2, [sp]
   10f70:	14000006 	b	10f88 <_obstack_memory_used@@Base+0x4148>
   10f74:	38401e61 	ldrb	w1, [x19, #1]!
   10f78:	5100c021 	sub	w1, w1, #0x30
   10f7c:	12001c21 	and	w1, w1, #0xff
   10f80:	7100243f 	cmp	w1, #0x9
   10f84:	54000109 	b.ls	10fa4 <_obstack_memory_used@@Base+0x4164>  // b.plast
   10f88:	eb13005f 	cmp	x2, x19
   10f8c:	54ffff41 	b.ne	10f74 <_obstack_memory_used@@Base+0x4134>  // b.any
   10f90:	385ff041 	ldurb	w1, [x2, #-1]
   10f94:	7101083f 	cmp	w1, #0x42
   10f98:	54000740 	b.eq	11080 <_obstack_memory_used@@Base+0x4240>  // b.none
   10f9c:	321902b5 	orr	w21, w21, #0x80
   10fa0:	321b02b5 	orr	w21, w21, #0x20
   10fa4:	b0000102 	adrp	x2, 31000 <obstack_alloc_failed_handler@@Base+0xd90>
   10fa8:	f9400a81 	ldr	x1, [x20, #16]
   10fac:	b9001855 	str	w21, [x2, #24]
   10fb0:	b4000241 	cbz	x1, 10ff8 <_obstack_memory_used@@Base+0x41b8>
   10fb4:	f9401bf5 	ldr	x21, [sp, #48]
   10fb8:	f00000e1 	adrp	x1, 2f000 <_obstack_memory_used@@Base+0x221c0>
   10fbc:	f947e821 	ldr	x1, [x1, #4048]
   10fc0:	f94007e3 	ldr	x3, [sp, #8]
   10fc4:	f9400022 	ldr	x2, [x1]
   10fc8:	eb020063 	subs	x3, x3, x2
   10fcc:	d2800002 	mov	x2, #0x0                   	// #0
   10fd0:	54000621 	b.ne	11094 <_obstack_memory_used@@Base+0x4254>  // b.any
   10fd4:	a9417bfd 	ldp	x29, x30, [sp, #16]
   10fd8:	a94253f3 	ldp	x19, x20, [sp, #32]
   10fdc:	910103ff 	add	sp, sp, #0x40
   10fe0:	d50323bf 	autiasp
   10fe4:	d65f03c0 	ret
   10fe8:	b0000102 	adrp	x2, 31000 <obstack_alloc_failed_handler@@Base+0xd90>
   10fec:	f9400a81 	ldr	x1, [x20, #16]
   10ff0:	b900185f 	str	wzr, [x2, #24]
   10ff4:	b5fffe01 	cbnz	x1, 10fb4 <_obstack_memory_used@@Base+0x4174>
   10ff8:	90000060 	adrp	x0, 1c000 <_obstack_memory_used@@Base+0xf1c0>
   10ffc:	9127a000 	add	x0, x0, #0x9e8
   11000:	97ffcb88 	bl	3e20 <getenv@plt>
   11004:	f100001f 	cmp	x0, #0x0
   11008:	f9401bf5 	ldr	x21, [sp, #48]
   1100c:	d2808001 	mov	x1, #0x400                 	// #1024
   11010:	d2804002 	mov	x2, #0x200                 	// #512
   11014:	52800080 	mov	w0, #0x4                   	// #4
   11018:	9a820021 	csel	x1, x1, x2, eq	// eq = none
   1101c:	f9000a81 	str	x1, [x20, #16]
   11020:	17ffffe6 	b	10fb8 <_obstack_memory_used@@Base+0x4178>
   11024:	d0000040 	adrp	x0, 1b000 <_obstack_memory_used@@Base+0xe1c0>
   11028:	9138e000 	add	x0, x0, #0xe38
   1102c:	97ffcb7d 	bl	3e20 <getenv@plt>
   11030:	aa0003f3 	mov	x19, x0
   11034:	b5fff4e0 	cbnz	x0, 10ed0 <_obstack_memory_used@@Base+0x4090>
   11038:	f0000040 	adrp	x0, 1c000 <_obstack_memory_used@@Base+0xf1c0>
   1103c:	91276000 	add	x0, x0, #0x9d8
   11040:	97ffcb78 	bl	3e20 <getenv@plt>
   11044:	aa0003f3 	mov	x19, x0
   11048:	b5fff440 	cbnz	x0, 10ed0 <_obstack_memory_used@@Base+0x4090>
   1104c:	f0000040 	adrp	x0, 1c000 <_obstack_memory_used@@Base+0xf1c0>
   11050:	9127a000 	add	x0, x0, #0x9e8
   11054:	97ffcb73 	bl	3e20 <getenv@plt>
   11058:	f100001f 	cmp	x0, #0x0
   1105c:	90000101 	adrp	x1, 31000 <obstack_alloc_failed_handler@@Base+0xd90>
   11060:	90000103 	adrp	x3, 31000 <obstack_alloc_failed_handler@@Base+0xd90>
   11064:	d2808000 	mov	x0, #0x400                 	// #1024
   11068:	d2804002 	mov	x2, #0x200                 	// #512
   1106c:	9a820000 	csel	x0, x0, x2, eq	// eq = none
   11070:	b900187f 	str	wzr, [x3, #24]
   11074:	f9000820 	str	x0, [x1, #16]
   11078:	52800000 	mov	w0, #0x0                   	// #0
   1107c:	17ffffcf 	b	10fb8 <_obstack_memory_used@@Base+0x4178>
   11080:	385fe041 	ldurb	w1, [x2, #-2]
   11084:	321906b5 	orr	w21, w21, #0x180
   11088:	7101a43f 	cmp	w1, #0x69
   1108c:	54fff8c1 	b.ne	10fa4 <_obstack_memory_used@@Base+0x4164>  // b.any
   11090:	17ffffc4 	b	10fa0 <_obstack_memory_used@@Base+0x4160>
   11094:	f9001bf5 	str	x21, [sp, #48]
   11098:	97ffca9e 	bl	3b10 <__stack_chk_fail@plt>
   1109c:	d503201f 	nop
   110a0:	d503233f 	paciasp
   110a4:	d10183ff 	sub	sp, sp, #0x60
   110a8:	92800003 	mov	x3, #0xffffffffffffffff    	// #-1
   110ac:	a9027bfd 	stp	x29, x30, [sp, #32]
   110b0:	910083fd 	add	x29, sp, #0x20
   110b4:	a90353f3 	stp	x19, x20, [sp, #48]
   110b8:	aa0003f3 	mov	x19, x0
   110bc:	aa0103f4 	mov	x20, x1
   110c0:	d00000e0 	adrp	x0, 2f000 <_obstack_memory_used@@Base+0x221c0>
   110c4:	f947e800 	ldr	x0, [x0, #4048]
   110c8:	39400261 	ldrb	w1, [x19]
   110cc:	f9400002 	ldr	x2, [x0]
   110d0:	f9000fe2 	str	x2, [sp, #24]
   110d4:	d2800002 	mov	x2, #0x0                   	// #0
   110d8:	a9008fe3 	stp	x3, x3, [sp, #8]
   110dc:	39400280 	ldrb	w0, [x20]
   110e0:	340008e1 	cbz	w1, 111fc <_obstack_memory_used@@Base+0x43bc>
   110e4:	34000720 	cbz	w0, 111c8 <_obstack_memory_used@@Base+0x4388>
   110e8:	7100b83f 	cmp	w1, #0x2e
   110ec:	54000540 	b.eq	11194 <_obstack_memory_used@@Base+0x4354>  // b.none
   110f0:	7100b81f 	cmp	w0, #0x2e
   110f4:	540006a0 	b.eq	111c8 <_obstack_memory_used@@Base+0x4388>  // b.none
   110f8:	910023e1 	add	x1, sp, #0x8
   110fc:	aa1303e0 	mov	x0, x19
   11100:	a9045bf5 	stp	x21, x22, [sp, #64]
   11104:	f9002bf7 	str	x23, [sp, #80]
   11108:	97ffe8ca 	bl	b430 <setlocale@plt+0x75d0>
   1110c:	910043e1 	add	x1, sp, #0x10
   11110:	aa0003f5 	mov	x21, x0
   11114:	aa1403e0 	mov	x0, x20
   11118:	97ffe8c6 	bl	b430 <setlocale@plt+0x75d0>
   1111c:	f94007f6 	ldr	x22, [sp, #8]
   11120:	aa0003e3 	mov	x3, x0
   11124:	52800037 	mov	w23, #0x1                   	// #1
   11128:	eb1602bf 	cmp	x21, x22
   1112c:	54000740 	b.eq	11214 <_obstack_memory_used@@Base+0x43d4>  // b.none
   11130:	aa1503e1 	mov	x1, x21
   11134:	aa1403e2 	mov	x2, x20
   11138:	aa1303e0 	mov	x0, x19
   1113c:	97ffe905 	bl	b550 <setlocale@plt+0x76f0>
   11140:	7100001f 	cmp	w0, #0x0
   11144:	7a400ae4 	ccmp	w23, #0x0, #0x4, eq	// eq = none
   11148:	54000600 	b.eq	11208 <_obstack_memory_used@@Base+0x43c8>  // b.none
   1114c:	d00000e0 	adrp	x0, 2f000 <_obstack_memory_used@@Base+0x221c0>
   11150:	f947e800 	ldr	x0, [x0, #4048]
   11154:	f9400fe2 	ldr	x2, [sp, #24]
   11158:	f9400001 	ldr	x1, [x0]
   1115c:	eb010042 	subs	x2, x2, x1
   11160:	d2800001 	mov	x1, #0x0                   	// #0
   11164:	54000801 	b.ne	11264 <_obstack_memory_used@@Base+0x4424>  // b.any
   11168:	a9427bfd 	ldp	x29, x30, [sp, #32]
   1116c:	aa1403e2 	mov	x2, x20
   11170:	aa1603e1 	mov	x1, x22
   11174:	aa1303e0 	mov	x0, x19
   11178:	a94353f3 	ldp	x19, x20, [sp, #48]
   1117c:	a9445bf5 	ldp	x21, x22, [sp, #64]
   11180:	f9400be3 	ldr	x3, [sp, #16]
   11184:	f9402bf7 	ldr	x23, [sp, #80]
   11188:	910183ff 	add	sp, sp, #0x60
   1118c:	d50323bf 	autiasp
   11190:	17ffe8f0 	b	b550 <setlocale@plt+0x76f0>
   11194:	7100b81f 	cmp	w0, #0x2e
   11198:	540004e1 	b.ne	11234 <_obstack_memory_used@@Base+0x43f4>  // b.any
   1119c:	39400660 	ldrb	w0, [x19, #1]
   111a0:	39400681 	ldrb	w1, [x20, #1]
   111a4:	34000560 	cbz	w0, 11250 <_obstack_memory_used@@Base+0x4410>
   111a8:	34000101 	cbz	w1, 111c8 <_obstack_memory_used@@Base+0x4388>
   111ac:	7100b81f 	cmp	w0, #0x2e
   111b0:	540003a0 	b.eq	11224 <_obstack_memory_used@@Base+0x43e4>  // b.none
   111b4:	7100b83f 	cmp	w1, #0x2e
   111b8:	54fffa01 	b.ne	110f8 <_obstack_memory_used@@Base+0x42b8>  // b.any
   111bc:	39400a80 	ldrb	w0, [x20, #2]
   111c0:	35fff9c0 	cbnz	w0, 110f8 <_obstack_memory_used@@Base+0x42b8>
   111c4:	d503201f 	nop
   111c8:	52800020 	mov	w0, #0x1                   	// #1
   111cc:	d00000e1 	adrp	x1, 2f000 <_obstack_memory_used@@Base+0x221c0>
   111d0:	f947e821 	ldr	x1, [x1, #4048]
   111d4:	f9400fe3 	ldr	x3, [sp, #24]
   111d8:	f9400022 	ldr	x2, [x1]
   111dc:	eb020063 	subs	x3, x3, x2
   111e0:	d2800002 	mov	x2, #0x0                   	// #0
   111e4:	540003c1 	b.ne	1125c <_obstack_memory_used@@Base+0x441c>  // b.any
   111e8:	a9427bfd 	ldp	x29, x30, [sp, #32]
   111ec:	a94353f3 	ldp	x19, x20, [sp, #48]
   111f0:	910183ff 	add	sp, sp, #0x60
   111f4:	d50323bf 	autiasp
   111f8:	d65f03c0 	ret
   111fc:	7100001f 	cmp	w0, #0x0
   11200:	5a9f03e0 	csetm	w0, ne	// ne = any
   11204:	17fffff2 	b	111cc <_obstack_memory_used@@Base+0x438c>
   11208:	a9445bf5 	ldp	x21, x22, [sp, #64]
   1120c:	f9402bf7 	ldr	x23, [sp, #80]
   11210:	17ffffef 	b	111cc <_obstack_memory_used@@Base+0x438c>
   11214:	f9400be0 	ldr	x0, [sp, #16]
   11218:	eb03001f 	cmp	x0, x3
   1121c:	1a9f07f7 	cset	w23, ne	// ne = any
   11220:	17ffffc4 	b	11130 <_obstack_memory_used@@Base+0x42f0>
   11224:	39400a60 	ldrb	w0, [x19, #2]
   11228:	7100b83f 	cmp	w1, #0x2e
   1122c:	54000080 	b.eq	1123c <_obstack_memory_used@@Base+0x43fc>  // b.none
   11230:	35fff640 	cbnz	w0, 110f8 <_obstack_memory_used@@Base+0x42b8>
   11234:	12800000 	mov	w0, #0xffffffff            	// #-1
   11238:	17ffffe5 	b	111cc <_obstack_memory_used@@Base+0x438c>
   1123c:	39400a81 	ldrb	w1, [x20, #2]
   11240:	35ffff81 	cbnz	w1, 11230 <_obstack_memory_used@@Base+0x43f0>
   11244:	7100001f 	cmp	w0, #0x0
   11248:	1a9f07e0 	cset	w0, ne	// ne = any
   1124c:	17ffffe0 	b	111cc <_obstack_memory_used@@Base+0x438c>
   11250:	7100003f 	cmp	w1, #0x0
   11254:	5a9f03e0 	csetm	w0, ne	// ne = any
   11258:	17ffffdd 	b	111cc <_obstack_memory_used@@Base+0x438c>
   1125c:	a9045bf5 	stp	x21, x22, [sp, #64]
   11260:	f9002bf7 	str	x23, [sp, #80]
   11264:	97ffca2b 	bl	3b10 <__stack_chk_fail@plt>
   11268:	d503201f 	nop
   1126c:	d503201f 	nop
   11270:	d503233f 	paciasp
   11274:	d10483ff 	sub	sp, sp, #0x120
   11278:	d00000eb 	adrp	x11, 2f000 <_obstack_memory_used@@Base+0x221c0>
   1127c:	f947e96b 	ldr	x11, [x11, #4048]
   11280:	aa0503ee 	mov	x14, x5
   11284:	a90c7bfd 	stp	x29, x30, [sp, #192]
   11288:	910303fd 	add	x29, sp, #0xc0
   1128c:	b9006be4 	str	w4, [sp, #104]
   11290:	a90d53f3 	stp	x19, x20, [sp, #208]
   11294:	a90e5bf5 	stp	x21, x22, [sp, #224]
   11298:	53017c95 	lsr	w21, w4, #1
   1129c:	2a1503f6 	mov	w22, w21
   112a0:	a90f63f7 	stp	x23, x24, [sp, #240]
   112a4:	aa0603f7 	mov	x23, x6
   112a8:	aa0003f8 	mov	x24, x0
   112ac:	a9106bf9 	stp	x25, x26, [sp, #256]
   112b0:	92800019 	mov	x25, #0xffffffffffffffff    	// #-1
   112b4:	aa0203fa 	mov	x26, x2
   112b8:	a91173fb 	stp	x27, x28, [sp, #272]
   112bc:	aa1903f5 	mov	x21, x25
   112c0:	aa0103fb 	mov	x27, x1
   112c4:	f9400160 	ldr	x0, [x11]
   112c8:	f9005fe0 	str	x0, [sp, #184]
   112cc:	d2800000 	mov	x0, #0x0                   	// #0
   112d0:	f9004fe7 	str	x7, [sp, #152]
   112d4:	d503201f 	nop
   112d8:	b9000be3 	str	w3, [sp, #8]
   112dc:	aa1703f4 	mov	x20, x23
   112e0:	f9000bee 	str	x14, [sp, #16]
   112e4:	97ffca63 	bl	3c70 <__ctype_get_mb_cur_max@plt>
   112e8:	b9400be3 	ldr	w3, [sp, #8]
   112ec:	120002c8 	and	w8, w22, #0x1
   112f0:	d2800012 	mov	x18, #0x0                   	// #0
   112f4:	f9002bff 	str	xzr, [sp, #80]
   112f8:	b9005bff 	str	wzr, [sp, #88]
   112fc:	aa1503e4 	mov	x4, x21
   11300:	f90033e0 	str	x0, [sp, #96]
   11304:	f0000040 	adrp	x0, 1c000 <_obstack_memory_used@@Base+0xf1c0>
   11308:	912f7000 	add	x0, x0, #0xbdc
   1130c:	f90003e0 	str	x0, [sp]
   11310:	f9003ff2 	str	x18, [sp, #120]
   11314:	aa1803e7 	mov	x7, x24
   11318:	f9400bee 	ldr	x14, [sp, #16]
   1131c:	aa1a03e6 	mov	x6, x26
   11320:	5280000a 	mov	w10, #0x0                   	// #0
   11324:	5280000b 	mov	w11, #0x0                   	// #0
   11328:	d2800002 	mov	x2, #0x0                   	// #0
   1132c:	2a0b03f9 	mov	w25, w11
   11330:	2a0a03f5 	mov	w21, w10
   11334:	2a0803fa 	mov	w26, w8
   11338:	aa0203f7 	mov	x23, x2
   1133c:	2a1603f8 	mov	w24, w22
   11340:	5280002c 	mov	w12, #0x1                   	// #1
   11344:	7100107f 	cmp	w3, #0x4
   11348:	54003280 	b.eq	11998 <_obstack_memory_used@@Base+0x4b58>  // b.none
   1134c:	54005528 	b.hi	11df0 <_obstack_memory_used@@Base+0x4fb0>  // b.pmore
   11350:	7100087f 	cmp	w3, #0x2
   11354:	540072c0 	b.eq	121ac <_obstack_memory_used@@Base+0x536c>  // b.none
   11358:	71000c7f 	cmp	w3, #0x3
   1135c:	54007160 	b.eq	12188 <_obstack_memory_used@@Base+0x5348>  // b.none
   11360:	35007343 	cbnz	w3, 121c8 <_obstack_memory_used@@Base+0x5388>
   11364:	5280001a 	mov	w26, #0x0                   	// #0
   11368:	d2800013 	mov	x19, #0x0                   	// #0
   1136c:	d503201f 	nop
   11370:	2a1803e8 	mov	w8, w24
   11374:	aa1703e2 	mov	x2, x23
   11378:	2a1503f8 	mov	w24, w21
   1137c:	f0000040 	adrp	x0, 1c000 <_obstack_memory_used@@Base+0xf1c0>
   11380:	d2800016 	mov	x22, #0x0                   	// #0
   11384:	91337000 	add	x0, x0, #0xcdc
   11388:	f9003be0 	str	x0, [sp, #112]
   1138c:	d503201f 	nop
   11390:	eb0402df 	cmp	x22, x4
   11394:	1a9f07f5 	cset	w21, ne	// ne = any
   11398:	b100049f 	cmn	x4, #0x1
   1139c:	54000260 	b.eq	113e8 <_obstack_memory_used@@Base+0x45a8>  // b.none
   113a0:	36002cb5 	tbz	w21, #0, 11934 <_obstack_memory_used@@Base+0x4af4>
   113a4:	7100087f 	cmp	w3, #0x2
   113a8:	8b1600c5 	add	x5, x6, x22
   113ac:	1a9f07fc 	cset	w28, ne	// ne = any
   113b0:	f100005f 	cmp	x2, #0x0
   113b4:	0a1c033c 	and	w28, w25, w28
   113b8:	1a9f07e0 	cset	w0, ne	// ne = any
   113bc:	0a000397 	and	w23, w28, w0
   113c0:	6a00039f 	tst	w28, w0
   113c4:	54003041 	b.ne	119cc <_obstack_memory_used@@Base+0x4b8c>  // b.any
   113c8:	387668c1 	ldrb	w1, [x6, x22]
   113cc:	7100fc3f 	cmp	w1, #0x3f
   113d0:	54004b68 	b.hi	11d3c <_obstack_memory_used@@Base+0x4efc>  // b.pmore
   113d4:	f94003e0 	ldr	x0, [sp]
   113d8:	78615800 	ldrh	w0, [x0, w1, uxtw #1]
   113dc:	10000069 	adr	x9, 113e8 <_obstack_memory_used@@Base+0x45a8>
   113e0:	8b20a920 	add	x0, x9, w0, sxth #2
   113e4:	d61f0000 	br	x0
   113e8:	387668c0 	ldrb	w0, [x6, x22]
   113ec:	7100001f 	cmp	w0, #0x0
   113f0:	1a9f07f5 	cset	w21, ne	// ne = any
   113f4:	17ffffeb 	b	113a0 <_obstack_memory_used@@Base+0x4560>
   113f8:	d503249f 	bti	j
   113fc:	52800e80 	mov	w0, #0x74                  	// #116
   11400:	7100087f 	cmp	w3, #0x2
   11404:	1a9f17e5 	cset	w5, eq	// eq = none
   11408:	0a050357 	and	w23, w26, w5
   1140c:	6a05035f 	tst	w26, w5
   11410:	54002681 	b.ne	118e0 <_obstack_memory_used@@Base+0x4aa0>  // b.any
   11414:	37001f39 	tbnz	w25, #0, 117f8 <_obstack_memory_used@@Base+0x49b8>
   11418:	2a1903f5 	mov	w21, w25
   1141c:	d503249f 	bti	j
   11420:	2a1a039c 	orr	w28, w28, w26
   11424:	12001f85 	and	w5, w28, #0xff
   11428:	360000fc 	tbz	w28, #0, 11444 <_obstack_memory_used@@Base+0x4604>
   1142c:	52800005 	mov	w5, #0x0                   	// #0
   11430:	b40000ae 	cbz	x14, 11444 <_obstack_memory_used@@Base+0x4604>
   11434:	d3453020 	ubfx	x0, x1, #5, #8
   11438:	b86079c0 	ldr	w0, [x14, x0, lsl #2]
   1143c:	1ac12400 	lsr	w0, w0, w1
   11440:	37000040 	tbnz	w0, #0, 11448 <_obstack_memory_used@@Base+0x4608>
   11444:	360004d7 	tbz	w23, #0, 114dc <_obstack_memory_used@@Base+0x469c>
   11448:	7100087f 	cmp	w3, #0x2
   1144c:	12000340 	and	w0, w26, #0x1
   11450:	1a9f17e5 	cset	w5, eq	// eq = none
   11454:	35001da0 	cbnz	w0, 11808 <_obstack_memory_used@@Base+0x49c8>
   11458:	52000300 	eor	w0, w24, #0x1
   1145c:	0a0000a5 	and	w5, w5, w0
   11460:	12001ca0 	and	w0, w5, #0xff
   11464:	36000225 	tbz	w5, #0, 114a8 <_obstack_memory_used@@Base+0x4668>
   11468:	eb13037f 	cmp	x27, x19
   1146c:	54000069 	b.ls	11478 <_obstack_memory_used@@Base+0x4638>  // b.plast
   11470:	528004e5 	mov	w5, #0x27                  	// #39
   11474:	383368e5 	strb	w5, [x7, x19]
   11478:	91000665 	add	x5, x19, #0x1
   1147c:	eb05037f 	cmp	x27, x5
   11480:	54000069 	b.ls	1148c <_obstack_memory_used@@Base+0x464c>  // b.plast
   11484:	52800489 	mov	w9, #0x24                  	// #36
   11488:	382568e9 	strb	w9, [x7, x5]
   1148c:	91000a65 	add	x5, x19, #0x2
   11490:	eb05037f 	cmp	x27, x5
   11494:	54000069 	b.ls	114a0 <_obstack_memory_used@@Base+0x4660>  // b.plast
   11498:	528004e9 	mov	w9, #0x27                  	// #39
   1149c:	382568e9 	strb	w9, [x7, x5]
   114a0:	91000e73 	add	x19, x19, #0x3
   114a4:	2a0003f8 	mov	w24, w0
   114a8:	eb1b027f 	cmp	x19, x27
   114ac:	54000062 	b.cs	114b8 <_obstack_memory_used@@Base+0x4678>  // b.hs, b.nlast
   114b0:	52800b80 	mov	w0, #0x5c                  	// #92
   114b4:	383368e0 	strb	w0, [x7, x19]
   114b8:	91000673 	add	x19, x19, #0x1
   114bc:	910006d6 	add	x22, x22, #0x1
   114c0:	eb1b027f 	cmp	x19, x27
   114c4:	54000042 	b.cs	114cc <_obstack_memory_used@@Base+0x468c>  // b.hs, b.nlast
   114c8:	383368e1 	strb	w1, [x7, x19]
   114cc:	f24002bf 	tst	x21, #0x1
   114d0:	91000673 	add	x19, x19, #0x1
   114d4:	1a95118c 	csel	w12, w12, w21, ne	// ne = any
   114d8:	17ffffae 	b	11390 <_obstack_memory_used@@Base+0x4550>
   114dc:	520000a5 	eor	w5, w5, #0x1
   114e0:	910006d6 	add	x22, x22, #0x1
   114e4:	0a050305 	and	w5, w24, w5
   114e8:	12001ca5 	and	w5, w5, #0xff
   114ec:	3607fea5 	tbz	w5, #0, 114c0 <_obstack_memory_used@@Base+0x4680>
   114f0:	eb13037f 	cmp	x27, x19
   114f4:	54000069 	b.ls	11500 <_obstack_memory_used@@Base+0x46c0>  // b.plast
   114f8:	528004e0 	mov	w0, #0x27                  	// #39
   114fc:	383368e0 	strb	w0, [x7, x19]
   11500:	91000660 	add	x0, x19, #0x1
   11504:	eb00037f 	cmp	x27, x0
   11508:	54000069 	b.ls	11514 <_obstack_memory_used@@Base+0x46d4>  // b.plast
   1150c:	528004e5 	mov	w5, #0x27                  	// #39
   11510:	382068e5 	strb	w5, [x7, x0]
   11514:	91000a73 	add	x19, x19, #0x2
   11518:	52800018 	mov	w24, #0x0                   	// #0
   1151c:	17ffffe9 	b	114c0 <_obstack_memory_used@@Base+0x4680>
   11520:	52800000 	mov	w0, #0x0                   	// #0
   11524:	7101f83f 	cmp	w1, #0x7e
   11528:	54007000 	b.eq	12328 <_obstack_memory_used@@Base+0x54e8>  // b.none
   1152c:	d503201f 	nop
   11530:	d503249f 	bti	j
   11534:	52800017 	mov	w23, #0x0                   	// #0
   11538:	d503249f 	bti	j
   1153c:	f94033e0 	ldr	x0, [sp, #96]
   11540:	f100041f 	cmp	x0, #0x1
   11544:	540047e1 	b.ne	11e40 <_obstack_memory_used@@Base+0x5000>  // b.any
   11548:	b9000be1 	str	w1, [sp, #8]
   1154c:	a90113e2 	stp	x2, x4, [sp, #16]
   11550:	b90023ec 	str	w12, [sp, #32]
   11554:	a9029be7 	stp	x7, x6, [sp, #40]
   11558:	b9003be3 	str	w3, [sp, #56]
   1155c:	f90023ee 	str	x14, [sp, #64]
   11560:	b9004fe8 	str	w8, [sp, #76]
   11564:	97ffc9b7 	bl	3c40 <__ctype_b_loc@plt>
   11568:	f9400000 	ldr	x0, [x0]
   1156c:	b9400be1 	ldr	w1, [sp, #8]
   11570:	a94113e2 	ldp	x2, x4, [sp, #16]
   11574:	a9429be7 	ldp	x7, x6, [sp, #40]
   11578:	78615800 	ldrh	w0, [x0, w1, uxtw #1]
   1157c:	f94023ee 	ldr	x14, [sp, #64]
   11580:	72120000 	ands	w0, w0, #0x4000
   11584:	1a9f17e0 	cset	w0, eq	// eq = none
   11588:	b94023ec 	ldr	w12, [sp, #32]
   1158c:	f94033ea 	ldr	x10, [sp, #96]
   11590:	1a9f07f5 	cset	w21, ne	// ne = any
   11594:	b9403be3 	ldr	w3, [sp, #56]
   11598:	0a000320 	and	w0, w25, w0
   1159c:	b9404fe8 	ldr	w8, [sp, #76]
   115a0:	3607f3e0 	tbz	w0, #0, 1141c <_obstack_memory_used@@Base+0x45dc>
   115a4:	2a1903e0 	mov	w0, w25
   115a8:	52800015 	mov	w21, #0x0                   	// #0
   115ac:	8b0a02c9 	add	x9, x22, x10
   115b0:	1200034f 	and	w15, w26, #0x1
   115b4:	1200000a 	and	w10, w0, #0x1
   115b8:	5280000d 	mov	w13, #0x0                   	// #0
   115bc:	528004eb 	mov	w11, #0x27                  	// #39
   115c0:	52800b90 	mov	w16, #0x5c                  	// #92
   115c4:	52800491 	mov	w17, #0x24                  	// #36
   115c8:	3400064a 	cbz	w10, 11690 <_obstack_memory_used@@Base+0x4850>
   115cc:	d503201f 	nop
   115d0:	7100087f 	cmp	w3, #0x2
   115d4:	1a9f17ed 	cset	w13, eq	// eq = none
   115d8:	35005aef 	cbnz	w15, 12134 <_obstack_memory_used@@Base+0x52f4>
   115dc:	52000305 	eor	w5, w24, #0x1
   115e0:	0a0501b2 	and	w18, w13, w5
   115e4:	6a0501bf 	tst	w13, w5
   115e8:	540001c0 	b.eq	11620 <_obstack_memory_used@@Base+0x47e0>  // b.none
   115ec:	eb13037f 	cmp	x27, x19
   115f0:	54000049 	b.ls	115f8 <_obstack_memory_used@@Base+0x47b8>  // b.plast
   115f4:	383368eb 	strb	w11, [x7, x19]
   115f8:	91000665 	add	x5, x19, #0x1
   115fc:	eb05037f 	cmp	x27, x5
   11600:	54000049 	b.ls	11608 <_obstack_memory_used@@Base+0x47c8>  // b.plast
   11604:	382568f1 	strb	w17, [x7, x5]
   11608:	91000a65 	add	x5, x19, #0x2
   1160c:	eb05037f 	cmp	x27, x5
   11610:	54000049 	b.ls	11618 <_obstack_memory_used@@Base+0x47d8>  // b.plast
   11614:	382568eb 	strb	w11, [x7, x5]
   11618:	91000e73 	add	x19, x19, #0x3
   1161c:	2a1203f8 	mov	w24, w18
   11620:	eb13037f 	cmp	x27, x19
   11624:	54000049 	b.ls	1162c <_obstack_memory_used@@Base+0x47ec>  // b.plast
   11628:	383368f0 	strb	w16, [x7, x19]
   1162c:	91000665 	add	x5, x19, #0x1
   11630:	eb05037f 	cmp	x27, x5
   11634:	54000089 	b.ls	11644 <_obstack_memory_used@@Base+0x4804>  // b.plast
   11638:	53067c2d 	lsr	w13, w1, #6
   1163c:	1100c1ad 	add	w13, w13, #0x30
   11640:	382568ed 	strb	w13, [x7, x5]
   11644:	91000a65 	add	x5, x19, #0x2
   11648:	eb05037f 	cmp	x27, x5
   1164c:	54000089 	b.ls	1165c <_obstack_memory_used@@Base+0x481c>  // b.plast
   11650:	d343142d 	ubfx	x13, x1, #3, #3
   11654:	1100c1ad 	add	w13, w13, #0x30
   11658:	382568ed 	strb	w13, [x7, x5]
   1165c:	12000821 	and	w1, w1, #0x7
   11660:	910006d6 	add	x22, x22, #0x1
   11664:	1100c021 	add	w1, w1, #0x30
   11668:	91000e73 	add	x19, x19, #0x3
   1166c:	eb16013f 	cmp	x9, x22
   11670:	54005749 	b.ls	12158 <_obstack_memory_used@@Base+0x5318>  // b.plast
   11674:	2a0003ed 	mov	w13, w0
   11678:	eb13037f 	cmp	x27, x19
   1167c:	54000049 	b.ls	11684 <_obstack_memory_used@@Base+0x4844>  // b.plast
   11680:	383368e1 	strb	w1, [x7, x19]
   11684:	387668c1 	ldrb	w1, [x6, x22]
   11688:	91000673 	add	x19, x19, #0x1
   1168c:	35fffa2a 	cbnz	w10, 115d0 <_obstack_memory_used@@Base+0x4790>
   11690:	520001a5 	eor	w5, w13, #0x1
   11694:	0a050305 	and	w5, w24, w5
   11698:	12001ca5 	and	w5, w5, #0xff
   1169c:	360000b7 	tbz	w23, #0, 116b0 <_obstack_memory_used@@Base+0x4870>
   116a0:	eb13037f 	cmp	x27, x19
   116a4:	54000049 	b.ls	116ac <_obstack_memory_used@@Base+0x486c>  // b.plast
   116a8:	383368f0 	strb	w16, [x7, x19]
   116ac:	91000673 	add	x19, x19, #0x1
   116b0:	910006d6 	add	x22, x22, #0x1
   116b4:	eb16013f 	cmp	x9, x22
   116b8:	54fff1a9 	b.ls	114ec <_obstack_memory_used@@Base+0x46ac>  // b.plast
   116bc:	36006525 	tbz	w5, #0, 12360 <_obstack_memory_used@@Base+0x5520>
   116c0:	eb13037f 	cmp	x27, x19
   116c4:	54000049 	b.ls	116cc <_obstack_memory_used@@Base+0x488c>  // b.plast
   116c8:	383368eb 	strb	w11, [x7, x19]
   116cc:	91000665 	add	x5, x19, #0x1
   116d0:	eb05037f 	cmp	x27, x5
   116d4:	54000049 	b.ls	116dc <_obstack_memory_used@@Base+0x489c>  // b.plast
   116d8:	382568eb 	strb	w11, [x7, x5]
   116dc:	91000a73 	add	x19, x19, #0x2
   116e0:	2a0003f7 	mov	w23, w0
   116e4:	2a0003f8 	mov	w24, w0
   116e8:	17ffffe4 	b	11678 <_obstack_memory_used@@Base+0x4838>
   116ec:	d503249f 	bti	j
   116f0:	2a1703e0 	mov	w0, w23
   116f4:	7100035f 	cmp	w26, #0x0
   116f8:	7a421860 	ccmp	w3, #0x2, #0x0, ne	// ne = any
   116fc:	54000f20 	b.eq	118e0 <_obstack_memory_used@@Base+0x4aa0>  // b.none
   11700:	2a1703f5 	mov	w21, w23
   11704:	2a0003f7 	mov	w23, w0
   11708:	17ffff45 	b	1141c <_obstack_memory_used@@Base+0x45dc>
   1170c:	d503249f 	bti	j
   11710:	7100087f 	cmp	w3, #0x2
   11714:	54004820 	b.eq	12018 <_obstack_memory_used@@Base+0x51d8>  // b.none
   11718:	d503249f 	bti	j
   1171c:	7100147f 	cmp	w3, #0x5
   11720:	54000141 	b.ne	11748 <_obstack_memory_used@@Base+0x4908>  // b.any
   11724:	f94037e0 	ldr	x0, [sp, #104]
   11728:	36100100 	tbz	w0, #2, 11748 <_obstack_memory_used@@Base+0x4908>
   1172c:	91000ac0 	add	x0, x22, #0x2
   11730:	eb04001f 	cmp	x0, x4
   11734:	540000a2 	b.cs	11748 <_obstack_memory_used@@Base+0x4908>  // b.hs, b.nlast
   11738:	394004a1 	ldrb	w1, [x5, #1]
   1173c:	7100fc3f 	cmp	w1, #0x3f
   11740:	540066c0 	b.eq	12418 <_obstack_memory_used@@Base+0x55d8>  // b.none
   11744:	d503201f 	nop
   11748:	52800015 	mov	w21, #0x0                   	// #0
   1174c:	528007e1 	mov	w1, #0x3f                  	// #63
   11750:	17ffff33 	b	1141c <_obstack_memory_used@@Base+0x45dc>
   11754:	d503249f 	bti	j
   11758:	b9005bf5 	str	w21, [sp, #88]
   1175c:	7100087f 	cmp	w3, #0x2
   11760:	54ffe5e1 	b.ne	1141c <_obstack_memory_used@@Base+0x45dc>  // b.any
   11764:	37006dfa 	tbnz	w26, #0, 12520 <_obstack_memory_used@@Base+0x56e0>
   11768:	f9403fe5 	ldr	x5, [sp, #120]
   1176c:	f100037f 	cmp	x27, #0x0
   11770:	d2800000 	mov	x0, #0x0                   	// #0
   11774:	fa4018a0 	ccmp	x5, #0x0, #0x0, ne	// ne = any
   11778:	54000220 	b.eq	117bc <_obstack_memory_used@@Base+0x497c>  // b.none
   1177c:	eb13037f 	cmp	x27, x19
   11780:	54000069 	b.ls	1178c <_obstack_memory_used@@Base+0x494c>  // b.plast
   11784:	528004e0 	mov	w0, #0x27                  	// #39
   11788:	383368e0 	strb	w0, [x7, x19]
   1178c:	91000660 	add	x0, x19, #0x1
   11790:	eb00037f 	cmp	x27, x0
   11794:	54000069 	b.ls	117a0 <_obstack_memory_used@@Base+0x4960>  // b.plast
   11798:	52800b85 	mov	w5, #0x5c                  	// #92
   1179c:	382068e5 	strb	w5, [x7, x0]
   117a0:	91000a60 	add	x0, x19, #0x2
   117a4:	eb00037f 	cmp	x27, x0
   117a8:	54000069 	b.ls	117b4 <_obstack_memory_used@@Base+0x4974>  // b.plast
   117ac:	528004e5 	mov	w5, #0x27                  	// #39
   117b0:	382068e5 	strb	w5, [x7, x0]
   117b4:	aa1b03e0 	mov	x0, x27
   117b8:	f9403ffb 	ldr	x27, [sp, #120]
   117bc:	91000e73 	add	x19, x19, #0x3
   117c0:	2a1a03e5 	mov	w5, w26
   117c4:	2a1a03f8 	mov	w24, w26
   117c8:	f9003ffb 	str	x27, [sp, #120]
   117cc:	aa0003fb 	mov	x27, x0
   117d0:	52800017 	mov	w23, #0x0                   	// #0
   117d4:	b9005bf5 	str	w21, [sp, #88]
   117d8:	3707e397 	tbnz	w23, #0, 11448 <_obstack_memory_used@@Base+0x4608>
   117dc:	17ffff40 	b	114dc <_obstack_memory_used@@Base+0x469c>
   117e0:	d503249f 	bti	j
   117e4:	7100087f 	cmp	w3, #0x2
   117e8:	52800cc0 	mov	w0, #0x66                  	// #102
   117ec:	1a9f17e5 	cset	w5, eq	// eq = none
   117f0:	3607e159 	tbz	w25, #0, 11418 <_obstack_memory_used@@Base+0x45d8>
   117f4:	d503201f 	nop
   117f8:	2a0003e1 	mov	w1, w0
   117fc:	52800015 	mov	w21, #0x0                   	// #0
   11800:	12000340 	and	w0, w26, #0x1
   11804:	34ffe2a0 	cbz	w0, 11458 <_obstack_memory_used@@Base+0x4618>
   11808:	0a050320 	and	w0, w25, w5
   1180c:	aa0403f5 	mov	x21, x4
   11810:	aa0703f8 	mov	x24, x7
   11814:	aa0603fa 	mov	x26, x6
   11818:	aa1403f7 	mov	x23, x20
   1181c:	12001c0b 	and	w11, w0, #0xff
   11820:	14000036 	b	118f8 <_obstack_memory_used@@Base+0x4ab8>
   11824:	d503249f 	bti	j
   11828:	7100087f 	cmp	w3, #0x2
   1182c:	52800ec0 	mov	w0, #0x76                  	// #118
   11830:	1a9f17e5 	cset	w5, eq	// eq = none
   11834:	3607df39 	tbz	w25, #0, 11418 <_obstack_memory_used@@Base+0x45d8>
   11838:	17fffff0 	b	117f8 <_obstack_memory_used@@Base+0x49b8>
   1183c:	d503249f 	bti	j
   11840:	7100087f 	cmp	w3, #0x2
   11844:	52800c40 	mov	w0, #0x62                  	// #98
   11848:	1a9f17e5 	cset	w5, eq	// eq = none
   1184c:	3607de79 	tbz	w25, #0, 11418 <_obstack_memory_used@@Base+0x45d8>
   11850:	17ffffea 	b	117f8 <_obstack_memory_used@@Base+0x49b8>
   11854:	d503249f 	bti	j
   11858:	7100087f 	cmp	w3, #0x2
   1185c:	52800c20 	mov	w0, #0x61                  	// #97
   11860:	1a9f17e5 	cset	w5, eq	// eq = none
   11864:	3607ddb9 	tbz	w25, #0, 11418 <_obstack_memory_used@@Base+0x45d8>
   11868:	17ffffe4 	b	117f8 <_obstack_memory_used@@Base+0x49b8>
   1186c:	d503249f 	bti	j
   11870:	37001bb9 	tbnz	w25, #0, 11be4 <_obstack_memory_used@@Base+0x4da4>
   11874:	f94037e0 	ldr	x0, [sp, #104]
   11878:	2a1903f7 	mov	w23, w25
   1187c:	2a1903f5 	mov	w21, w25
   11880:	3607dce0 	tbz	w0, #0, 1141c <_obstack_memory_used@@Base+0x45dc>
   11884:	910006d6 	add	x22, x22, #0x1
   11888:	17fffec2 	b	11390 <_obstack_memory_used@@Base+0x4550>
   1188c:	7101f43f 	cmp	w1, #0x7d
   11890:	54000080 	b.eq	118a0 <_obstack_memory_used@@Base+0x4a60>  // b.none
   11894:	54002ca8 	b.hi	11e28 <_obstack_memory_used@@Base+0x4fe8>  // b.pmore
   11898:	7101ec3f 	cmp	w1, #0x7b
   1189c:	54004581 	b.ne	1214c <_obstack_memory_used@@Base+0x530c>  // b.any
   118a0:	b100049f 	cmn	x4, #0x1
   118a4:	540037c0 	b.eq	11f9c <_obstack_memory_used@@Base+0x515c>  // b.none
   118a8:	f100049f 	cmp	x4, #0x1
   118ac:	54001981 	b.ne	11bdc <_obstack_memory_used@@Base+0x4d9c>  // b.any
   118b0:	d503249f 	bti	j
   118b4:	2a1703e0 	mov	w0, w23
   118b8:	b40000d6 	cbz	x22, 118d0 <_obstack_memory_used@@Base+0x4a90>
   118bc:	2a0003f7 	mov	w23, w0
   118c0:	52800015 	mov	w21, #0x0                   	// #0
   118c4:	17fffed6 	b	1141c <_obstack_memory_used@@Base+0x45dc>
   118c8:	d503249f 	bti	j
   118cc:	2a1703e0 	mov	w0, w23
   118d0:	7100035f 	cmp	w26, #0x0
   118d4:	2a1503f7 	mov	w23, w21
   118d8:	7a421860 	ccmp	w3, #0x2, #0x0, ne	// ne = any
   118dc:	54fff121 	b.ne	11700 <_obstack_memory_used@@Base+0x48c0>  // b.any
   118e0:	2a1903eb 	mov	w11, w25
   118e4:	aa0403f5 	mov	x21, x4
   118e8:	aa0703f8 	mov	x24, x7
   118ec:	aa0603fa 	mov	x26, x6
   118f0:	aa1403f7 	mov	x23, x20
   118f4:	52800043 	mov	w3, #0x2                   	// #2
   118f8:	f240017f 	tst	x11, #0x1
   118fc:	52800080 	mov	w0, #0x4                   	// #4
   11900:	1a800063 	csel	w3, w3, w0, eq	// eq = none
   11904:	b9406be0 	ldr	w0, [sp, #104]
   11908:	d280000e 	mov	x14, #0x0                   	// #0
   1190c:	121e7800 	and	w0, w0, #0xfffffffd
   11910:	b9006be0 	str	w0, [sp, #104]
   11914:	53017c16 	lsr	w22, w0, #1
   11918:	17fffe70 	b	112d8 <_obstack_memory_used@@Base+0x4498>
   1191c:	d503249f 	bti	j
   11920:	52800dc0 	mov	w0, #0x6e                  	// #110
   11924:	17fffeb7 	b	11400 <_obstack_memory_used@@Base+0x45c0>
   11928:	d503249f 	bti	j
   1192c:	52800e40 	mov	w0, #0x72                  	// #114
   11930:	17fffeb4 	b	11400 <_obstack_memory_used@@Base+0x45c0>
   11934:	7100087f 	cmp	w3, #0x2
   11938:	2a1803f5 	mov	w21, w24
   1193c:	1a9f17e0 	cset	w0, eq	// eq = none
   11940:	f100027f 	cmp	x19, #0x0
   11944:	aa0203f7 	mov	x23, x2
   11948:	2a0803f8 	mov	w24, w8
   1194c:	7a400804 	ccmp	w0, #0x0, #0x4, eq	// eq = none
   11950:	54003a20 	b.eq	12094 <_obstack_memory_used@@Base+0x5254>  // b.none
   11954:	3707fc7a 	tbnz	w26, #0, 118e0 <_obstack_memory_used@@Base+0x4aa0>
   11958:	f9402fe0 	ldr	x0, [sp, #88]
   1195c:	36006500 	tbz	w0, #0, 125fc <_obstack_memory_used@@Base+0x57bc>
   11960:	370063cc 	tbnz	w12, #0, 125d8 <_obstack_memory_used@@Base+0x5798>
   11964:	f9403fe0 	ldr	x0, [sp, #120]
   11968:	f100037f 	cmp	x27, #0x0
   1196c:	1a9f17e1 	cset	w1, eq	// eq = none
   11970:	f100001f 	cmp	x0, #0x0
   11974:	1a9f07e0 	cset	w0, ne	// ne = any
   11978:	0a000025 	and	w5, w1, w0
   1197c:	6a00003f 	tst	w1, w0
   11980:	54006240 	b.eq	125c8 <_obstack_memory_used@@Base+0x5788>  // b.none
   11984:	b9005be5 	str	w5, [sp, #88]
   11988:	2a0c03fa 	mov	w26, w12
   1198c:	f9403ffb 	ldr	x27, [sp, #120]
   11990:	7100107f 	cmp	w3, #0x4
   11994:	54ffcdc1 	b.ne	1134c <_obstack_memory_used@@Base+0x450c>  // b.any
   11998:	3700419a 	tbnz	w26, #0, 121c8 <_obstack_memory_used@@Base+0x5388>
   1199c:	52800039 	mov	w25, #0x1                   	// #1
   119a0:	b400007b 	cbz	x27, 119ac <_obstack_memory_used@@Base+0x4b6c>
   119a4:	528004e0 	mov	w0, #0x27                  	// #39
   119a8:	390000e0 	strb	w0, [x7]
   119ac:	d2800037 	mov	x23, #0x1                   	// #1
   119b0:	d0000040 	adrp	x0, 1b000 <_obstack_memory_used@@Base+0xe1c0>
   119b4:	aa1703f3 	mov	x19, x23
   119b8:	9129e000 	add	x0, x0, #0xa78
   119bc:	5280001a 	mov	w26, #0x0                   	// #0
   119c0:	52800043 	mov	w3, #0x2                   	// #2
   119c4:	f9002be0 	str	x0, [sp, #80]
   119c8:	17fffe6a 	b	11370 <_obstack_memory_used@@Base+0x4530>
   119cc:	f100045f 	cmp	x2, #0x1
   119d0:	8b160041 	add	x1, x2, x22
   119d4:	ba418880 	ccmn	x4, #0x1, #0x0, hi	// hi = pmore
   119d8:	54000241 	b.ne	11a20 <_obstack_memory_used@@Base+0x4be0>  // b.any
   119dc:	aa0603e0 	mov	x0, x6
   119e0:	a90087e6 	stp	x6, x1, [sp, #8]
   119e4:	a9018be5 	stp	x5, x2, [sp, #24]
   119e8:	b9002bec 	str	w12, [sp, #40]
   119ec:	f9001be7 	str	x7, [sp, #48]
   119f0:	b9003be3 	str	w3, [sp, #56]
   119f4:	f90023ee 	str	x14, [sp, #64]
   119f8:	b9004fe8 	str	w8, [sp, #76]
   119fc:	97ffc781 	bl	3800 <strlen@plt>
   11a00:	a94087e6 	ldp	x6, x1, [sp, #8]
   11a04:	aa0003e4 	mov	x4, x0
   11a08:	a9418be5 	ldp	x5, x2, [sp, #24]
   11a0c:	f9401be7 	ldr	x7, [sp, #48]
   11a10:	f94023ee 	ldr	x14, [sp, #64]
   11a14:	b9402bec 	ldr	w12, [sp, #40]
   11a18:	b9403be3 	ldr	w3, [sp, #56]
   11a1c:	b9404fe8 	ldr	w8, [sp, #76]
   11a20:	eb04003f 	cmp	x1, x4
   11a24:	54000c08 	b.hi	11ba4 <_obstack_memory_used@@Base+0x4d64>  // b.pmore
   11a28:	f9402be1 	ldr	x1, [sp, #80]
   11a2c:	aa0503e0 	mov	x0, x5
   11a30:	a9008be5 	stp	x5, x2, [sp, #8]
   11a34:	f9000fe4 	str	x4, [sp, #24]
   11a38:	b90023ec 	str	w12, [sp, #32]
   11a3c:	a9029be7 	stp	x7, x6, [sp, #40]
   11a40:	b9003be3 	str	w3, [sp, #56]
   11a44:	f90023ee 	str	x14, [sp, #64]
   11a48:	b9004fe8 	str	w8, [sp, #76]
   11a4c:	97ffc861 	bl	3bd0 <memcmp@plt>
   11a50:	a9408be5 	ldp	x5, x2, [sp, #8]
   11a54:	f9400fe4 	ldr	x4, [sp, #24]
   11a58:	a9429be7 	ldp	x7, x6, [sp, #40]
   11a5c:	f94023ee 	ldr	x14, [sp, #64]
   11a60:	b94023ec 	ldr	w12, [sp, #32]
   11a64:	b9403be3 	ldr	w3, [sp, #56]
   11a68:	b9404fe8 	ldr	w8, [sp, #76]
   11a6c:	350009c0 	cbnz	w0, 11ba4 <_obstack_memory_used@@Base+0x4d64>
   11a70:	37001b7a 	tbnz	w26, #0, 11ddc <_obstack_memory_used@@Base+0x4f9c>
   11a74:	394000a1 	ldrb	w1, [x5]
   11a78:	7100fc3f 	cmp	w1, #0x3f
   11a7c:	54002aa8 	b.hi	11fd0 <_obstack_memory_used@@Base+0x5190>  // b.pmore
   11a80:	f0000040 	adrp	x0, 1c000 <_obstack_memory_used@@Base+0xf1c0>
   11a84:	91317000 	add	x0, x0, #0xc5c
   11a88:	78615800 	ldrh	w0, [x0, w1, uxtw #1]
   11a8c:	10000069 	adr	x9, 11a98 <_obstack_memory_used@@Base+0x4c58>
   11a90:	8b20a920 	add	x0, x9, w0, sxth #2
   11a94:	d61f0000 	br	x0
   11a98:	d503249f 	bti	j
   11a9c:	2a1703f5 	mov	w21, w23
   11aa0:	17fffe5f 	b	1141c <_obstack_memory_used@@Base+0x45dc>
   11aa4:	d503249f 	bti	j
   11aa8:	2a1a03f5 	mov	w21, w26
   11aac:	17fffe5c 	b	1141c <_obstack_memory_used@@Base+0x45dc>
   11ab0:	d503249f 	bti	j
   11ab4:	2a1a03e5 	mov	w5, w26
   11ab8:	52800dc0 	mov	w0, #0x6e                  	// #110
   11abc:	3607caf9 	tbz	w25, #0, 11418 <_obstack_memory_used@@Base+0x45d8>
   11ac0:	17ffff4e 	b	117f8 <_obstack_memory_used@@Base+0x49b8>
   11ac4:	d503249f 	bti	j
   11ac8:	2a1a03e5 	mov	w5, w26
   11acc:	2a1a03f5 	mov	w21, w26
   11ad0:	52800c21 	mov	w1, #0x61                  	// #97
   11ad4:	17fffe61 	b	11458 <_obstack_memory_used@@Base+0x4618>
   11ad8:	d503249f 	bti	j
   11adc:	52800005 	mov	w5, #0x0                   	// #0
   11ae0:	52800015 	mov	w21, #0x0                   	// #0
   11ae4:	52800c41 	mov	w1, #0x62                  	// #98
   11ae8:	17fffe5c 	b	11458 <_obstack_memory_used@@Base+0x4618>
   11aec:	d503249f 	bti	j
   11af0:	2a1703e5 	mov	w5, w23
   11af4:	91000669 	add	x9, x19, #0x1
   11af8:	eb13037f 	cmp	x27, x19
   11afc:	54000069 	b.ls	11b08 <_obstack_memory_used@@Base+0x4cc8>  // b.plast
   11b00:	52800b80 	mov	w0, #0x5c                  	// #92
   11b04:	383368e0 	strb	w0, [x7, x19]
   11b08:	3400589c 	cbz	w28, 12618 <_obstack_memory_used@@Base+0x57d8>
   11b0c:	910006c0 	add	x0, x22, #0x1
   11b10:	eb04001f 	cmp	x0, x4
   11b14:	540000c2 	b.cs	11b2c <_obstack_memory_used@@Base+0x4cec>  // b.hs, b.nlast
   11b18:	386068c0 	ldrb	w0, [x6, x0]
   11b1c:	5100c000 	sub	w0, w0, #0x30
   11b20:	12001c00 	and	w0, w0, #0xff
   11b24:	7100241f 	cmp	w0, #0x9
   11b28:	540042a9 	b.ls	1237c <_obstack_memory_used@@Base+0x553c>  // b.plast
   11b2c:	2a0503f7 	mov	w23, w5
   11b30:	aa0903f3 	mov	x19, x9
   11b34:	2a1503e5 	mov	w5, w21
   11b38:	52800601 	mov	w1, #0x30                  	// #48
   11b3c:	52800015 	mov	w21, #0x0                   	// #0
   11b40:	17fffe3c 	b	11430 <_obstack_memory_used@@Base+0x45f0>
   11b44:	d503249f 	bti	j
   11b48:	2a1a03e5 	mov	w5, w26
   11b4c:	52800e40 	mov	w0, #0x72                  	// #114
   11b50:	3607c659 	tbz	w25, #0, 11418 <_obstack_memory_used@@Base+0x45d8>
   11b54:	17ffff29 	b	117f8 <_obstack_memory_used@@Base+0x49b8>
   11b58:	d503249f 	bti	j
   11b5c:	2a1a03e5 	mov	w5, w26
   11b60:	52800e80 	mov	w0, #0x74                  	// #116
   11b64:	3607c5b9 	tbz	w25, #0, 11418 <_obstack_memory_used@@Base+0x45d8>
   11b68:	17ffff24 	b	117f8 <_obstack_memory_used@@Base+0x49b8>
   11b6c:	d503249f 	bti	j
   11b70:	52800005 	mov	w5, #0x0                   	// #0
   11b74:	52800015 	mov	w21, #0x0                   	// #0
   11b78:	52800cc1 	mov	w1, #0x66                  	// #102
   11b7c:	17fffe37 	b	11458 <_obstack_memory_used@@Base+0x4618>
   11b80:	d503249f 	bti	j
   11b84:	52800005 	mov	w5, #0x0                   	// #0
   11b88:	52800015 	mov	w21, #0x0                   	// #0
   11b8c:	52800ec1 	mov	w1, #0x76                  	// #118
   11b90:	17fffe32 	b	11458 <_obstack_memory_used@@Base+0x4618>
   11b94:	d503249f 	bti	j
   11b98:	2a1703f5 	mov	w21, w23
   11b9c:	b9005bf7 	str	w23, [sp, #88]
   11ba0:	17fffe1f 	b	1141c <_obstack_memory_used@@Base+0x45dc>
   11ba4:	394000a1 	ldrb	w1, [x5]
   11ba8:	7100fc3f 	cmp	w1, #0x3f
   11bac:	54000f48 	b.hi	11d94 <_obstack_memory_used@@Base+0x4f54>  // b.pmore
   11bb0:	f9403be0 	ldr	x0, [sp, #112]
   11bb4:	78615800 	ldrh	w0, [x0, w1, uxtw #1]
   11bb8:	10000069 	adr	x9, 11bc4 <_obstack_memory_used@@Base+0x4d84>
   11bbc:	8b20a920 	add	x0, x9, w0, sxth #2
   11bc0:	d61f0000 	br	x0
   11bc4:	d503249f 	bti	j
   11bc8:	2a1703f5 	mov	w21, w23
   11bcc:	52800017 	mov	w23, #0x0                   	// #0
   11bd0:	17fffe13 	b	1141c <_obstack_memory_used@@Base+0x45dc>
   11bd4:	d503249f 	bti	j
   11bd8:	52800017 	mov	w23, #0x0                   	// #0
   11bdc:	52800015 	mov	w21, #0x0                   	// #0
   11be0:	17fffe0f 	b	1141c <_obstack_memory_used@@Base+0x45dc>
   11be4:	d503249f 	bti	j
   11be8:	37004e1a 	tbnz	w26, #0, 125a8 <_obstack_memory_used@@Base+0x5768>
   11bec:	7100087f 	cmp	w3, #0x2
   11bf0:	52000300 	eor	w0, w24, #0x1
   11bf4:	1a9f17e1 	cset	w1, eq	// eq = none
   11bf8:	91000669 	add	x9, x19, #0x1
   11bfc:	0a000025 	and	w5, w1, w0
   11c00:	6a00003f 	tst	w1, w0
   11c04:	54fff7a0 	b.eq	11af8 <_obstack_memory_used@@Base+0x4cb8>  // b.none
   11c08:	eb13037f 	cmp	x27, x19
   11c0c:	54000069 	b.ls	11c18 <_obstack_memory_used@@Base+0x4dd8>  // b.plast
   11c10:	528004e0 	mov	w0, #0x27                  	// #39
   11c14:	383368e0 	strb	w0, [x7, x19]
   11c18:	eb09037f 	cmp	x27, x9
   11c1c:	54000069 	b.ls	11c28 <_obstack_memory_used@@Base+0x4de8>  // b.plast
   11c20:	52800480 	mov	w0, #0x24                  	// #36
   11c24:	382968e0 	strb	w0, [x7, x9]
   11c28:	91000a60 	add	x0, x19, #0x2
   11c2c:	eb00037f 	cmp	x27, x0
   11c30:	54000069 	b.ls	11c3c <_obstack_memory_used@@Base+0x4dfc>  // b.plast
   11c34:	528004e1 	mov	w1, #0x27                  	// #39
   11c38:	382068e1 	strb	w1, [x7, x0]
   11c3c:	91000e60 	add	x0, x19, #0x3
   11c40:	91001273 	add	x19, x19, #0x4
   11c44:	eb00037f 	cmp	x27, x0
   11c48:	54002969 	b.ls	12174 <_obstack_memory_used@@Base+0x5334>  // b.plast
   11c4c:	52800b89 	mov	w9, #0x5c                  	// #92
   11c50:	2a1a03f5 	mov	w21, w26
   11c54:	2a0503f8 	mov	w24, w5
   11c58:	52800601 	mov	w1, #0x30                  	// #48
   11c5c:	52800017 	mov	w23, #0x0                   	// #0
   11c60:	382068e9 	strb	w9, [x7, x0]
   11c64:	17fffedd 	b	117d8 <_obstack_memory_used@@Base+0x4998>
   11c68:	d503249f 	bti	j
   11c6c:	52800017 	mov	w23, #0x0                   	// #0
   11c70:	17fffeaa 	b	11718 <_obstack_memory_used@@Base+0x48d8>
   11c74:	d503249f 	bti	j
   11c78:	52800000 	mov	w0, #0x0                   	// #0
   11c7c:	17ffff0f 	b	118b8 <_obstack_memory_used@@Base+0x4a78>
   11c80:	d503249f 	bti	j
   11c84:	12000340 	and	w0, w26, #0x1
   11c88:	52800005 	mov	w5, #0x0                   	// #0
   11c8c:	52800015 	mov	w21, #0x0                   	// #0
   11c90:	52800c21 	mov	w1, #0x61                  	// #97
   11c94:	17fffdf0 	b	11454 <_obstack_memory_used@@Base+0x4614>
   11c98:	d503249f 	bti	j
   11c9c:	52800005 	mov	w5, #0x0                   	// #0
   11ca0:	52800017 	mov	w23, #0x0                   	// #0
   11ca4:	52800dc0 	mov	w0, #0x6e                  	// #110
   11ca8:	3607bb99 	tbz	w25, #0, 11418 <_obstack_memory_used@@Base+0x45d8>
   11cac:	17fffed3 	b	117f8 <_obstack_memory_used@@Base+0x49b8>
   11cb0:	d503249f 	bti	j
   11cb4:	2a1703f5 	mov	w21, w23
   11cb8:	52800017 	mov	w23, #0x0                   	// #0
   11cbc:	b9005bf5 	str	w21, [sp, #88]
   11cc0:	17fffdd7 	b	1141c <_obstack_memory_used@@Base+0x45dc>
   11cc4:	d503249f 	bti	j
   11cc8:	12000340 	and	w0, w26, #0x1
   11ccc:	52800005 	mov	w5, #0x0                   	// #0
   11cd0:	52800015 	mov	w21, #0x0                   	// #0
   11cd4:	52800ec1 	mov	w1, #0x76                  	// #118
   11cd8:	17fffddf 	b	11454 <_obstack_memory_used@@Base+0x4614>
   11cdc:	d503249f 	bti	j
   11ce0:	52800005 	mov	w5, #0x0                   	// #0
   11ce4:	52800017 	mov	w23, #0x0                   	// #0
   11ce8:	52800e80 	mov	w0, #0x74                  	// #116
   11cec:	3607b979 	tbz	w25, #0, 11418 <_obstack_memory_used@@Base+0x45d8>
   11cf0:	17fffec2 	b	117f8 <_obstack_memory_used@@Base+0x49b8>
   11cf4:	d503249f 	bti	j
   11cf8:	12000340 	and	w0, w26, #0x1
   11cfc:	52800005 	mov	w5, #0x0                   	// #0
   11d00:	52800015 	mov	w21, #0x0                   	// #0
   11d04:	52800c41 	mov	w1, #0x62                  	// #98
   11d08:	17fffdd3 	b	11454 <_obstack_memory_used@@Base+0x4614>
   11d0c:	d503249f 	bti	j
   11d10:	52800005 	mov	w5, #0x0                   	// #0
   11d14:	52800017 	mov	w23, #0x0                   	// #0
   11d18:	52800e40 	mov	w0, #0x72                  	// #114
   11d1c:	3607b7f9 	tbz	w25, #0, 11418 <_obstack_memory_used@@Base+0x45d8>
   11d20:	17fffeb6 	b	117f8 <_obstack_memory_used@@Base+0x49b8>
   11d24:	d503249f 	bti	j
   11d28:	12000340 	and	w0, w26, #0x1
   11d2c:	52800005 	mov	w5, #0x0                   	// #0
   11d30:	52800015 	mov	w21, #0x0                   	// #0
   11d34:	52800cc1 	mov	w1, #0x66                  	// #102
   11d38:	17fffdc7 	b	11454 <_obstack_memory_used@@Base+0x4614>
   11d3c:	7101e83f 	cmp	w1, #0x7a
   11d40:	54ffda68 	b.hi	1188c <_obstack_memory_used@@Base+0x4a4c>  // b.pmore
   11d44:	7101003f 	cmp	w1, #0x40
   11d48:	54ffbf80 	b.eq	11538 <_obstack_memory_used@@Base+0x46f8>  // b.none
   11d4c:	51010425 	sub	w5, w1, #0x41
   11d50:	d2800020 	mov	x0, #0x1                   	// #1
   11d54:	9ac52000 	lsl	x0, x0, x5
   11d58:	92b58005 	mov	x5, #0xffffffff53ffffff    	// #-2885681153
   11d5c:	f2e07fe5 	movk	x5, #0x3ff, lsl #48
   11d60:	ea05001f 	tst	x0, x5
   11d64:	54ffb5c1 	b.ne	1141c <_obstack_memory_used@@Base+0x45dc>  // b.any
   11d68:	d2b48005 	mov	x5, #0xa4000000            	// #2751463424
   11d6c:	ea05001f 	tst	x0, x5
   11d70:	54ffcbe1 	b.ne	116ec <_obstack_memory_used@@Base+0x48ac>  // b.any
   11d74:	7100087f 	cmp	w3, #0x2
   11d78:	540002a1 	b.ne	11dcc <_obstack_memory_used@@Base+0x4f8c>  // b.any
   11d7c:	37003d3a 	tbnz	w26, #0, 12520 <_obstack_memory_used@@Base+0x56e0>
   11d80:	910006d6 	add	x22, x22, #0x1
   11d84:	2a1803e5 	mov	w5, w24
   11d88:	2a1a03f5 	mov	w21, w26
   11d8c:	52800b81 	mov	w1, #0x5c                  	// #92
   11d90:	17fffdd7 	b	114ec <_obstack_memory_used@@Base+0x46ac>
   11d94:	7101e83f 	cmp	w1, #0x7a
   11d98:	540010a8 	b.hi	11fac <_obstack_memory_used@@Base+0x516c>  // b.pmore
   11d9c:	7101003f 	cmp	w1, #0x40
   11da0:	54ffbc80 	b.eq	11530 <_obstack_memory_used@@Base+0x46f0>  // b.none
   11da4:	51010425 	sub	w5, w1, #0x41
   11da8:	d2800020 	mov	x0, #0x1                   	// #1
   11dac:	9ac52000 	lsl	x0, x0, x5
   11db0:	92b58005 	mov	x5, #0xffffffff53ffffff    	// #-2885681153
   11db4:	f2e07fe5 	movk	x5, #0x3ff, lsl #48
   11db8:	ea05001f 	tst	x0, x5
   11dbc:	54001d21 	b.ne	12160 <_obstack_memory_used@@Base+0x5320>  // b.any
   11dc0:	d2b48005 	mov	x5, #0xa4000000            	// #2751463424
   11dc4:	ea05001f 	tst	x0, x5
   11dc8:	54fff061 	b.ne	11bd4 <_obstack_memory_used@@Base+0x4d94>  // b.any
   11dcc:	0a1a0320 	and	w0, w25, w26
   11dd0:	12001c17 	and	w23, w0, #0xff
   11dd4:	360011a0 	tbz	w0, #0, 12008 <_obstack_memory_used@@Base+0x51c8>
   11dd8:	b5002982 	cbnz	x2, 12308 <_obstack_memory_used@@Base+0x54c8>
   11ddc:	aa0403f5 	mov	x21, x4
   11de0:	aa0703f8 	mov	x24, x7
   11de4:	aa0603fa 	mov	x26, x6
   11de8:	aa1403f7 	mov	x23, x20
   11dec:	17fffec6 	b	11904 <_obstack_memory_used@@Base+0x4ac4>
   11df0:	71001c7f 	cmp	w3, #0x7
   11df4:	54002820 	b.eq	122f8 <_obstack_memory_used@@Base+0x54b8>  // b.none
   11df8:	54002048 	b.hi	12200 <_obstack_memory_used@@Base+0x53c0>  // b.pmore
   11dfc:	7100147f 	cmp	w3, #0x5
   11e00:	54001ea0 	b.eq	121d4 <_obstack_memory_used@@Base+0x5394>  // b.none
   11e04:	5280003a 	mov	w26, #0x1                   	// #1
   11e08:	d0000040 	adrp	x0, 1b000 <_obstack_memory_used@@Base+0xe1c0>
   11e0c:	2a1a03f9 	mov	w25, w26
   11e10:	9129c000 	add	x0, x0, #0xa70
   11e14:	d2800037 	mov	x23, #0x1                   	// #1
   11e18:	d2800013 	mov	x19, #0x0                   	// #0
   11e1c:	528000a3 	mov	w3, #0x5                   	// #5
   11e20:	f9002be0 	str	x0, [sp, #80]
   11e24:	17fffd53 	b	11370 <_obstack_memory_used@@Base+0x4530>
   11e28:	2a1703e0 	mov	w0, w23
   11e2c:	7101f83f 	cmp	w1, #0x7e
   11e30:	54ffd440 	b.eq	118b8 <_obstack_memory_used@@Base+0x4a78>  // b.none
   11e34:	f94033e0 	ldr	x0, [sp, #96]
   11e38:	f100041f 	cmp	x0, #0x1
   11e3c:	54ffb860 	b.eq	11548 <_obstack_memory_used@@Base+0x4708>  // b.none
   11e40:	9102c3e0 	add	x0, sp, #0xb0
   11e44:	f90007e0 	str	x0, [sp, #8]
   11e48:	f9005bff 	str	xzr, [sp, #176]
   11e4c:	b100049f 	cmn	x4, #0x1
   11e50:	54000281 	b.ne	11ea0 <_obstack_memory_used@@Base+0x5060>  // b.any
   11e54:	aa0603e0 	mov	x0, x6
   11e58:	f9000be6 	str	x6, [sp, #16]
   11e5c:	b9001be1 	str	w1, [sp, #24]
   11e60:	f90013e2 	str	x2, [sp, #32]
   11e64:	b9002bec 	str	w12, [sp, #40]
   11e68:	f9001be7 	str	x7, [sp, #48]
   11e6c:	b9003be3 	str	w3, [sp, #56]
   11e70:	f90023ee 	str	x14, [sp, #64]
   11e74:	b9004fe8 	str	w8, [sp, #76]
   11e78:	97ffc662 	bl	3800 <strlen@plt>
   11e7c:	f9400be6 	ldr	x6, [sp, #16]
   11e80:	aa0003e4 	mov	x4, x0
   11e84:	f94013e2 	ldr	x2, [sp, #32]
   11e88:	f9401be7 	ldr	x7, [sp, #48]
   11e8c:	f94023ee 	ldr	x14, [sp, #64]
   11e90:	b9401be1 	ldr	w1, [sp, #24]
   11e94:	b9402bec 	ldr	w12, [sp, #40]
   11e98:	b9403be3 	ldr	w3, [sp, #56]
   11e9c:	b9404fe8 	ldr	w8, [sp, #76]
   11ea0:	9102b3e0 	add	x0, sp, #0xac
   11ea4:	d280000a 	mov	x10, #0x0                   	// #0
   11ea8:	b90013f9 	str	w25, [sp, #16]
   11eac:	aa0403f9 	mov	x25, x4
   11eb0:	f90017f4 	str	x20, [sp, #40]
   11eb4:	aa0003f4 	mov	x20, x0
   11eb8:	b90033fc 	str	w28, [sp, #48]
   11ebc:	2a0303fc 	mov	w28, w3
   11ec0:	b90043f8 	str	w24, [sp, #64]
   11ec4:	aa0603f8 	mov	x24, x6
   11ec8:	a908bbf3 	stp	x19, x14, [sp, #136]
   11ecc:	aa0a03f3 	mov	x19, x10
   11ed0:	a901efe7 	stp	x7, x27, [sp, #24]
   11ed4:	f9001fe2 	str	x2, [sp, #56]
   11ed8:	b9004fe1 	str	w1, [sp, #76]
   11edc:	29105fec 	stp	w12, w23, [sp, #128]
   11ee0:	f94007f7 	ldr	x23, [sp, #8]
   11ee4:	b9000be8 	str	w8, [sp, #8]
   11ee8:	8b1302db 	add	x27, x22, x19
   11eec:	aa1703e3 	mov	x3, x23
   11ef0:	cb1b0322 	sub	x2, x25, x27
   11ef4:	8b1b0301 	add	x1, x24, x27
   11ef8:	aa1403e0 	mov	x0, x20
   11efc:	97fff915 	bl	10350 <_obstack_memory_used@@Base+0x3510>
   11f00:	b4000240 	cbz	x0, 11f48 <_obstack_memory_used@@Base+0x5108>
   11f04:	b100041f 	cmn	x0, #0x1
   11f08:	54002660 	b.eq	123d4 <_obstack_memory_used@@Base+0x5594>  // b.none
   11f0c:	b100081f 	cmn	x0, #0x2
   11f10:	54002c40 	b.eq	12498 <_obstack_memory_used@@Base+0x5658>  // b.none
   11f14:	b1000c1f 	cmn	x0, #0x3
   11f18:	540000a0 	b.eq	11f2c <_obstack_memory_used@@Base+0x50ec>  // b.none
   11f1c:	7100035f 	cmp	w26, #0x0
   11f20:	7a421b80 	ccmp	w28, #0x2, #0x0, ne	// ne = any
   11f24:	54000840 	b.eq	1202c <_obstack_memory_used@@Base+0x51ec>  // b.none
   11f28:	8b000273 	add	x19, x19, x0
   11f2c:	b940afe0 	ldr	w0, [sp, #172]
   11f30:	97ffc7ac 	bl	3de0 <iswprint@plt>
   11f34:	7100001f 	cmp	w0, #0x0
   11f38:	1a9f12b5 	csel	w21, w21, wzr, ne	// ne = any
   11f3c:	aa1703e0 	mov	x0, x23
   11f40:	97ffc718 	bl	3ba0 <mbsinit@plt>
   11f44:	34fffd20 	cbz	w0, 11ee8 <_obstack_memory_used@@Base+0x50a8>
   11f48:	a941efe7 	ldp	x7, x27, [sp, #24]
   11f4c:	aa1303ea 	mov	x10, x19
   11f50:	a948bbf3 	ldp	x19, x14, [sp, #136]
   11f54:	aa1903e4 	mov	x4, x25
   11f58:	b94013f9 	ldr	w25, [sp, #16]
   11f5c:	520002a0 	eor	w0, w21, #0x1
   11f60:	f94017f4 	ldr	x20, [sp, #40]
   11f64:	aa1803e6 	mov	x6, x24
   11f68:	f9401fe2 	ldr	x2, [sp, #56]
   11f6c:	2a1c03e3 	mov	w3, w28
   11f70:	0a000320 	and	w0, w25, w0
   11f74:	b9400be8 	ldr	w8, [sp, #8]
   11f78:	b94033fc 	ldr	w28, [sp, #48]
   11f7c:	12001c00 	and	w0, w0, #0xff
   11f80:	b94043f8 	ldr	w24, [sp, #64]
   11f84:	b9404fe1 	ldr	w1, [sp, #76]
   11f88:	29505fec 	ldp	w12, w23, [sp, #128]
   11f8c:	f100055f 	cmp	x10, #0x1
   11f90:	54ffb0e8 	b.hi	115ac <_obstack_memory_used@@Base+0x476c>  // b.pmore
   11f94:	3607a440 	tbz	w0, #0, 1141c <_obstack_memory_used@@Base+0x45dc>
   11f98:	17fffd83 	b	115a4 <_obstack_memory_used@@Base+0x4764>
   11f9c:	394004c0 	ldrb	w0, [x6, #1]
   11fa0:	34ffc880 	cbz	w0, 118b0 <_obstack_memory_used@@Base+0x4a70>
   11fa4:	52800015 	mov	w21, #0x0                   	// #0
   11fa8:	17fffd1d 	b	1141c <_obstack_memory_used@@Base+0x45dc>
   11fac:	7101f43f 	cmp	w1, #0x7d
   11fb0:	54001d40 	b.eq	12358 <_obstack_memory_used@@Base+0x5518>  // b.none
   11fb4:	54ffab68 	b.hi	11520 <_obstack_memory_used@@Base+0x46e0>  // b.pmore
   11fb8:	52800017 	mov	w23, #0x0                   	// #0
   11fbc:	7101ec3f 	cmp	w1, #0x7b
   11fc0:	54ffc700 	b.eq	118a0 <_obstack_memory_used@@Base+0x4a60>  // b.none
   11fc4:	52800f81 	mov	w1, #0x7c                  	// #124
   11fc8:	52800015 	mov	w21, #0x0                   	// #0
   11fcc:	17fffd14 	b	1141c <_obstack_memory_used@@Base+0x45dc>
   11fd0:	7101e83f 	cmp	w1, #0x7a
   11fd4:	54001b48 	b.hi	1233c <_obstack_memory_used@@Base+0x54fc>  // b.pmore
   11fd8:	7101003f 	cmp	w1, #0x40
   11fdc:	54ffaae0 	b.eq	11538 <_obstack_memory_used@@Base+0x46f8>  // b.none
   11fe0:	51010425 	sub	w5, w1, #0x41
   11fe4:	d2800020 	mov	x0, #0x1                   	// #1
   11fe8:	9ac52000 	lsl	x0, x0, x5
   11fec:	92b58005 	mov	x5, #0xffffffff53ffffff    	// #-2885681153
   11ff0:	f2e07fe5 	movk	x5, #0x3ff, lsl #48
   11ff4:	ea05001f 	tst	x0, x5
   11ff8:	54001d81 	b.ne	123a8 <_obstack_memory_used@@Base+0x5568>  // b.any
   11ffc:	d2b48005 	mov	x5, #0xa4000000            	// #2751463424
   12000:	ea05001f 	tst	x0, x5
   12004:	54ffdec1 	b.ne	11bdc <_obstack_memory_used@@Base+0x4d9c>  // b.any
   12008:	3607a099 	tbz	w25, #0, 11418 <_obstack_memory_used@@Base+0x45d8>
   1200c:	52800015 	mov	w21, #0x0                   	// #0
   12010:	52800b81 	mov	w1, #0x5c                  	// #92
   12014:	17fffd25 	b	114a8 <_obstack_memory_used@@Base+0x4668>
   12018:	3700285a 	tbnz	w26, #0, 12520 <_obstack_memory_used@@Base+0x56e0>
   1201c:	2a1a03f5 	mov	w21, w26
   12020:	2a1a03e5 	mov	w5, w26
   12024:	52800017 	mov	w23, #0x0                   	// #0
   12028:	17fffdec 	b	117d8 <_obstack_memory_used@@Base+0x4998>
   1202c:	f100041f 	cmp	x0, #0x1
   12030:	54002ee0 	b.eq	1260c <_obstack_memory_used@@Base+0x57cc>  // b.none
   12034:	91000762 	add	x2, x27, #0x1
   12038:	8b000303 	add	x3, x24, x0
   1203c:	d2800564 	mov	x4, #0x2b                  	// #43
   12040:	8b020302 	add	x2, x24, x2
   12044:	8b1b0063 	add	x3, x3, x27
   12048:	f2c00044 	movk	x4, #0x2, lsl #32
   1204c:	14000004 	b	1205c <_obstack_memory_used@@Base+0x521c>
   12050:	91000442 	add	x2, x2, #0x1
   12054:	eb02007f 	cmp	x3, x2
   12058:	54fff680 	b.eq	11f28 <_obstack_memory_used@@Base+0x50e8>  // b.none
   1205c:	39400041 	ldrb	w1, [x2]
   12060:	51016c21 	sub	w1, w1, #0x5b
   12064:	12001c21 	and	w1, w1, #0xff
   12068:	7100843f 	cmp	w1, #0x21
   1206c:	54ffff28 	b.hi	12050 <_obstack_memory_used@@Base+0x5210>  // b.pmore
   12070:	9ac12481 	lsr	x1, x4, x1
   12074:	3607fee1 	tbz	w1, #0, 12050 <_obstack_memory_used@@Base+0x5210>
   12078:	f94017f7 	ldr	x23, [sp, #40]
   1207c:	aa1803fa 	mov	x26, x24
   12080:	a941eff8 	ldp	x24, x27, [sp, #24]
   12084:	aa1903f5 	mov	x21, x25
   12088:	b94013eb 	ldr	w11, [sp, #16]
   1208c:	52800043 	mov	w3, #0x2                   	// #2
   12090:	17fffe1a 	b	118f8 <_obstack_memory_used@@Base+0x4ab8>
   12094:	52000348 	eor	w8, w26, #0x1
   12098:	7100001f 	cmp	w0, #0x0
   1209c:	12001d00 	and	w0, w8, #0xff
   120a0:	7a401804 	ccmp	w0, #0x0, #0x4, ne	// ne = any
   120a4:	54ffc5a1 	b.ne	11958 <_obstack_memory_used@@Base+0x4b18>  // b.any
   120a8:	aa0703fa 	mov	x26, x7
   120ac:	aa1b03fc 	mov	x28, x27
   120b0:	f9402be1 	ldr	x1, [sp, #80]
   120b4:	f100003f 	cmp	x1, #0x0
   120b8:	7a401804 	ccmp	w0, #0x0, #0x4, ne	// ne = any
   120bc:	54000160 	b.eq	120e8 <_obstack_memory_used@@Base+0x52a8>  // b.none
   120c0:	aa0103e0 	mov	x0, x1
   120c4:	39400021 	ldrb	w1, [x1]
   120c8:	34000101 	cbz	w1, 120e8 <_obstack_memory_used@@Base+0x52a8>
   120cc:	cb130000 	sub	x0, x0, x19
   120d0:	eb13039f 	cmp	x28, x19
   120d4:	54000049 	b.ls	120dc <_obstack_memory_used@@Base+0x529c>  // b.plast
   120d8:	38336b41 	strb	w1, [x26, x19]
   120dc:	91000673 	add	x19, x19, #0x1
   120e0:	38736801 	ldrb	w1, [x0, x19]
   120e4:	35ffff61 	cbnz	w1, 120d0 <_obstack_memory_used@@Base+0x5290>
   120e8:	eb13039f 	cmp	x28, x19
   120ec:	540025a8 	b.hi	125a0 <_obstack_memory_used@@Base+0x5760>  // b.pmore
   120f0:	b00000e0 	adrp	x0, 2f000 <_obstack_memory_used@@Base+0x221c0>
   120f4:	f947e800 	ldr	x0, [x0, #4048]
   120f8:	f9405fe2 	ldr	x2, [sp, #184]
   120fc:	f9400001 	ldr	x1, [x0]
   12100:	eb010042 	subs	x2, x2, x1
   12104:	d2800001 	mov	x1, #0x0                   	// #0
   12108:	54002861 	b.ne	12614 <_obstack_memory_used@@Base+0x57d4>  // b.any
   1210c:	a94c7bfd 	ldp	x29, x30, [sp, #192]
   12110:	aa1303e0 	mov	x0, x19
   12114:	a94d53f3 	ldp	x19, x20, [sp, #208]
   12118:	a94e5bf5 	ldp	x21, x22, [sp, #224]
   1211c:	a94f63f7 	ldp	x23, x24, [sp, #240]
   12120:	a9506bf9 	ldp	x25, x26, [sp, #256]
   12124:	a95173fb 	ldp	x27, x28, [sp, #272]
   12128:	910483ff 	add	sp, sp, #0x120
   1212c:	d50323bf 	autiasp
   12130:	d65f03c0 	ret
   12134:	aa0403f5 	mov	x21, x4
   12138:	aa0703f8 	mov	x24, x7
   1213c:	aa0603fa 	mov	x26, x6
   12140:	aa1403f7 	mov	x23, x20
   12144:	2a0d03eb 	mov	w11, w13
   12148:	17fffdec 	b	118f8 <_obstack_memory_used@@Base+0x4ab8>
   1214c:	2a1703e0 	mov	w0, w23
   12150:	52800f81 	mov	w1, #0x7c                  	// #124
   12154:	17fffd68 	b	116f4 <_obstack_memory_used@@Base+0x48b4>
   12158:	2a1a03e5 	mov	w5, w26
   1215c:	17fffce4 	b	114ec <_obstack_memory_used@@Base+0x46ac>
   12160:	52800000 	mov	w0, #0x0                   	// #0
   12164:	2a1703f5 	mov	w21, w23
   12168:	52800005 	mov	w5, #0x0                   	// #0
   1216c:	2a0003f7 	mov	w23, w0
   12170:	17fffcb0 	b	11430 <_obstack_memory_used@@Base+0x45f0>
   12174:	2a1a03f5 	mov	w21, w26
   12178:	2a0503f8 	mov	w24, w5
   1217c:	52800601 	mov	w1, #0x30                  	// #48
   12180:	52800017 	mov	w23, #0x0                   	// #0
   12184:	17fffd95 	b	117d8 <_obstack_memory_used@@Base+0x4998>
   12188:	5280003a 	mov	w26, #0x1                   	// #1
   1218c:	2a1a03f9 	mov	w25, w26
   12190:	b0000040 	adrp	x0, 1b000 <_obstack_memory_used@@Base+0xe1c0>
   12194:	9129e000 	add	x0, x0, #0xa78
   12198:	d2800037 	mov	x23, #0x1                   	// #1
   1219c:	d2800013 	mov	x19, #0x0                   	// #0
   121a0:	52800043 	mov	w3, #0x2                   	// #2
   121a4:	f9002be0 	str	x0, [sp, #80]
   121a8:	17fffc72 	b	11370 <_obstack_memory_used@@Base+0x4530>
   121ac:	3607bfba 	tbz	w26, #0, 119a0 <_obstack_memory_used@@Base+0x4b60>
   121b0:	b0000040 	adrp	x0, 1b000 <_obstack_memory_used@@Base+0xe1c0>
   121b4:	d2800037 	mov	x23, #0x1                   	// #1
   121b8:	9129e000 	add	x0, x0, #0xa78
   121bc:	d2800013 	mov	x19, #0x0                   	// #0
   121c0:	f9002be0 	str	x0, [sp, #80]
   121c4:	17fffc6b 	b	11370 <_obstack_memory_used@@Base+0x4530>
   121c8:	b0000040 	adrp	x0, 1b000 <_obstack_memory_used@@Base+0xe1c0>
   121cc:	5280003a 	mov	w26, #0x1                   	// #1
   121d0:	17fffff1 	b	12194 <_obstack_memory_used@@Base+0x5354>
   121d4:	3700199a 	tbnz	w26, #0, 12504 <_obstack_memory_used@@Base+0x56c4>
   121d8:	b400007b 	cbz	x27, 121e4 <_obstack_memory_used@@Base+0x53a4>
   121dc:	52800440 	mov	w0, #0x22                  	// #34
   121e0:	390000e0 	strb	w0, [x7]
   121e4:	d2800037 	mov	x23, #0x1                   	// #1
   121e8:	b0000040 	adrp	x0, 1b000 <_obstack_memory_used@@Base+0xe1c0>
   121ec:	aa1703f3 	mov	x19, x23
   121f0:	9129c000 	add	x0, x0, #0xa70
   121f4:	52800039 	mov	w25, #0x1                   	// #1
   121f8:	f9002be0 	str	x0, [sp, #80]
   121fc:	17fffc5d 	b	11370 <_obstack_memory_used@@Base+0x4530>
   12200:	51002060 	sub	w0, w3, #0x8
   12204:	7100081f 	cmp	w0, #0x2
   12208:	54002168 	b.hi	12634 <_obstack_memory_used@@Base+0x57f4>  // b.pmore
   1220c:	7100287f 	cmp	w3, #0xa
   12210:	540004e0 	b.eq	122ac <_obstack_memory_used@@Base+0x546c>  // b.none
   12214:	d0000053 	adrp	x19, 1c000 <_obstack_memory_used@@Base+0xf1c0>
   12218:	91284273 	add	x19, x19, #0xa10
   1221c:	aa1303e1 	mov	x1, x19
   12220:	528000a2 	mov	w2, #0x5                   	// #5
   12224:	d2800000 	mov	x0, #0x0                   	// #0
   12228:	f90007e4 	str	x4, [sp, #8]
   1222c:	b90013ec 	str	w12, [sp, #16]
   12230:	a9019be7 	stp	x7, x6, [sp, #24]
   12234:	b9002be3 	str	w3, [sp, #40]
   12238:	f9001bee 	str	x14, [sp, #48]
   1223c:	97ffc6c9 	bl	3d60 <dcgettext@plt>
   12240:	f94007e4 	ldr	x4, [sp, #8]
   12244:	aa0003f4 	mov	x20, x0
   12248:	a9419be7 	ldp	x7, x6, [sp, #24]
   1224c:	eb13001f 	cmp	x0, x19
   12250:	f9401bee 	ldr	x14, [sp, #48]
   12254:	b94013ec 	ldr	w12, [sp, #16]
   12258:	b9402be3 	ldr	w3, [sp, #40]
   1225c:	54001880 	b.eq	1256c <_obstack_memory_used@@Base+0x572c>  // b.none
   12260:	b0000053 	adrp	x19, 1b000 <_obstack_memory_used@@Base+0xe1c0>
   12264:	9129e273 	add	x19, x19, #0xa78
   12268:	aa1303e1 	mov	x1, x19
   1226c:	528000a2 	mov	w2, #0x5                   	// #5
   12270:	d2800000 	mov	x0, #0x0                   	// #0
   12274:	f90007e4 	str	x4, [sp, #8]
   12278:	b90013ec 	str	w12, [sp, #16]
   1227c:	a9019be7 	stp	x7, x6, [sp, #24]
   12280:	b9002be3 	str	w3, [sp, #40]
   12284:	f9001bee 	str	x14, [sp, #48]
   12288:	97ffc6b6 	bl	3d60 <dcgettext@plt>
   1228c:	f9004fe0 	str	x0, [sp, #152]
   12290:	eb13001f 	cmp	x0, x19
   12294:	f94007e4 	ldr	x4, [sp, #8]
   12298:	a9419be7 	ldp	x7, x6, [sp, #24]
   1229c:	f9401bee 	ldr	x14, [sp, #48]
   122a0:	b94013ec 	ldr	w12, [sp, #16]
   122a4:	b9402be3 	ldr	w3, [sp, #40]
   122a8:	54001480 	b.eq	12538 <_obstack_memory_used@@Base+0x56f8>  // b.none
   122ac:	d2800013 	mov	x19, #0x0                   	// #0
   122b0:	3600081a 	tbz	w26, #0, 123b0 <_obstack_memory_used@@Base+0x5570>
   122b4:	f9404ff6 	ldr	x22, [sp, #152]
   122b8:	f90007e4 	str	x4, [sp, #8]
   122bc:	b90013ec 	str	w12, [sp, #16]
   122c0:	52800039 	mov	w25, #0x1                   	// #1
   122c4:	aa1603e0 	mov	x0, x22
   122c8:	a9019be7 	stp	x7, x6, [sp, #24]
   122cc:	b9002be3 	str	w3, [sp, #40]
   122d0:	f9001bee 	str	x14, [sp, #48]
   122d4:	97ffc54b 	bl	3800 <strlen@plt>
   122d8:	f94007e4 	ldr	x4, [sp, #8]
   122dc:	aa0003f7 	mov	x23, x0
   122e0:	a9419be7 	ldp	x7, x6, [sp, #24]
   122e4:	f9002bf6 	str	x22, [sp, #80]
   122e8:	f9401bee 	ldr	x14, [sp, #48]
   122ec:	b94013ec 	ldr	w12, [sp, #16]
   122f0:	b9402be3 	ldr	w3, [sp, #40]
   122f4:	17fffc1f 	b	11370 <_obstack_memory_used@@Base+0x4530>
   122f8:	5280001a 	mov	w26, #0x0                   	// #0
   122fc:	52800039 	mov	w25, #0x1                   	// #1
   12300:	d2800013 	mov	x19, #0x0                   	// #0
   12304:	17fffc1b 	b	11370 <_obstack_memory_used@@Base+0x4530>
   12308:	910006d6 	add	x22, x22, #0x1
   1230c:	2a1803e5 	mov	w5, w24
   12310:	52800015 	mov	w21, #0x0                   	// #0
   12314:	52800b81 	mov	w1, #0x5c                  	// #92
   12318:	17fffc75 	b	114ec <_obstack_memory_used@@Base+0x46ac>
   1231c:	2a1703e0 	mov	w0, w23
   12320:	7101f83f 	cmp	w1, #0x7e
   12324:	54ff90a1 	b.ne	11538 <_obstack_memory_used@@Base+0x46f8>  // b.any
   12328:	b5000216 	cbnz	x22, 12368 <_obstack_memory_used@@Base+0x5528>
   1232c:	2a1703f5 	mov	w21, w23
   12330:	52800fc1 	mov	w1, #0x7e                  	// #126
   12334:	2a0003f7 	mov	w23, w0
   12338:	17fffc39 	b	1141c <_obstack_memory_used@@Base+0x45dc>
   1233c:	7101f43f 	cmp	w1, #0x7d
   12340:	54ffab00 	b.eq	118a0 <_obstack_memory_used@@Base+0x4a60>  // b.none
   12344:	54fffec8 	b.hi	1231c <_obstack_memory_used@@Base+0x54dc>  // b.pmore
   12348:	7101ec3f 	cmp	w1, #0x7b
   1234c:	54ffaaa0 	b.eq	118a0 <_obstack_memory_used@@Base+0x4a60>  // b.none
   12350:	52800f81 	mov	w1, #0x7c                  	// #124
   12354:	17ffff1d 	b	11fc8 <_obstack_memory_used@@Base+0x5188>
   12358:	52800017 	mov	w23, #0x0                   	// #0
   1235c:	17fffd51 	b	118a0 <_obstack_memory_used@@Base+0x4a60>
   12360:	2a0503f7 	mov	w23, w5
   12364:	17fffcc5 	b	11678 <_obstack_memory_used@@Base+0x4838>
   12368:	2a0003f7 	mov	w23, w0
   1236c:	52800015 	mov	w21, #0x0                   	// #0
   12370:	52800005 	mov	w5, #0x0                   	// #0
   12374:	52800fc1 	mov	w1, #0x7e                  	// #126
   12378:	17fffc2e 	b	11430 <_obstack_memory_used@@Base+0x45f0>
   1237c:	eb09037f 	cmp	x27, x9
   12380:	54000069 	b.ls	1238c <_obstack_memory_used@@Base+0x554c>  // b.plast
   12384:	52800600 	mov	w0, #0x30                  	// #48
   12388:	382968e0 	strb	w0, [x7, x9]
   1238c:	91000a60 	add	x0, x19, #0x2
   12390:	eb00037f 	cmp	x27, x0
   12394:	54000069 	b.ls	123a0 <_obstack_memory_used@@Base+0x5560>  // b.plast
   12398:	52800601 	mov	w1, #0x30                  	// #48
   1239c:	382068e1 	strb	w1, [x7, x0]
   123a0:	91000e69 	add	x9, x19, #0x3
   123a4:	17fffde2 	b	11b2c <_obstack_memory_used@@Base+0x4cec>
   123a8:	2a1703e0 	mov	w0, w23
   123ac:	17ffff6e 	b	12164 <_obstack_memory_used@@Base+0x5324>
   123b0:	39400280 	ldrb	w0, [x20]
   123b4:	34fff800 	cbz	w0, 122b4 <_obstack_memory_used@@Base+0x5474>
   123b8:	eb13037f 	cmp	x27, x19
   123bc:	54000049 	b.ls	123c4 <_obstack_memory_used@@Base+0x5584>  // b.plast
   123c0:	383368e0 	strb	w0, [x7, x19]
   123c4:	91000673 	add	x19, x19, #0x1
   123c8:	38736a80 	ldrb	w0, [x20, x19]
   123cc:	35ffff60 	cbnz	w0, 123b8 <_obstack_memory_used@@Base+0x5578>
   123d0:	17ffffb9 	b	122b4 <_obstack_memory_used@@Base+0x5474>
   123d4:	aa1903e4 	mov	x4, x25
   123d8:	b94013f9 	ldr	w25, [sp, #16]
   123dc:	a941efe7 	ldp	x7, x27, [sp, #24]
   123e0:	aa1303ea 	mov	x10, x19
   123e4:	f94017f4 	ldr	x20, [sp, #40]
   123e8:	aa1803e6 	mov	x6, x24
   123ec:	f9401fe2 	ldr	x2, [sp, #56]
   123f0:	2a1c03e3 	mov	w3, w28
   123f4:	a948bbf3 	ldp	x19, x14, [sp, #136]
   123f8:	2a1903e0 	mov	w0, w25
   123fc:	b9400be8 	ldr	w8, [sp, #8]
   12400:	52800015 	mov	w21, #0x0                   	// #0
   12404:	b94033fc 	ldr	w28, [sp, #48]
   12408:	b94043f8 	ldr	w24, [sp, #64]
   1240c:	b9404fe1 	ldr	w1, [sp, #76]
   12410:	29505fec 	ldp	w12, w23, [sp, #128]
   12414:	17fffede 	b	11f8c <_obstack_memory_used@@Base+0x514c>
   12418:	386068c9 	ldrb	w9, [x6, x0]
   1241c:	7100f93f 	cmp	w9, #0x3e
   12420:	54ffbde8 	b.hi	11bdc <_obstack_memory_used@@Base+0x4d9c>  // b.pmore
   12424:	d2d47045 	mov	x5, #0xa38200000000        	// #179778741075968
   12428:	f2ee0005 	movk	x5, #0x7000, lsl #48
   1242c:	9ac924a5 	lsr	x5, x5, x9
   12430:	120000b5 	and	w21, w5, #0x1
   12434:	36077f45 	tbz	w5, #0, 1141c <_obstack_memory_used@@Base+0x45dc>
   12438:	3707cd3a 	tbnz	w26, #0, 11ddc <_obstack_memory_used@@Base+0x4f9c>
   1243c:	eb13037f 	cmp	x27, x19
   12440:	54000049 	b.ls	12448 <_obstack_memory_used@@Base+0x5608>  // b.plast
   12444:	383368e1 	strb	w1, [x7, x19]
   12448:	91000661 	add	x1, x19, #0x1
   1244c:	eb01037f 	cmp	x27, x1
   12450:	54000069 	b.ls	1245c <_obstack_memory_used@@Base+0x561c>  // b.plast
   12454:	52800445 	mov	w5, #0x22                  	// #34
   12458:	382168e5 	strb	w5, [x7, x1]
   1245c:	91000a61 	add	x1, x19, #0x2
   12460:	eb01037f 	cmp	x27, x1
   12464:	54000069 	b.ls	12470 <_obstack_memory_used@@Base+0x5630>  // b.plast
   12468:	52800445 	mov	w5, #0x22                  	// #34
   1246c:	382168e5 	strb	w5, [x7, x1]
   12470:	91000e61 	add	x1, x19, #0x3
   12474:	eb01037f 	cmp	x27, x1
   12478:	54000069 	b.ls	12484 <_obstack_memory_used@@Base+0x5644>  // b.plast
   1247c:	528007e5 	mov	w5, #0x3f                  	// #63
   12480:	382168e5 	strb	w5, [x7, x1]
   12484:	91001273 	add	x19, x19, #0x4
   12488:	2a0903e1 	mov	w1, w9
   1248c:	aa0003f6 	mov	x22, x0
   12490:	2a1a03f5 	mov	w21, w26
   12494:	17fffbe2 	b	1141c <_obstack_memory_used@@Base+0x45dc>
   12498:	aa1b03e5 	mov	x5, x27
   1249c:	aa1903e4 	mov	x4, x25
   124a0:	a941efe7 	ldp	x7, x27, [sp, #24]
   124a4:	aa1303ea 	mov	x10, x19
   124a8:	f94017f4 	ldr	x20, [sp, #40]
   124ac:	aa1803e6 	mov	x6, x24
   124b0:	f9401fe2 	ldr	x2, [sp, #56]
   124b4:	2a1c03e3 	mov	w3, w28
   124b8:	a948bbf3 	ldp	x19, x14, [sp, #136]
   124bc:	b9400be8 	ldr	w8, [sp, #8]
   124c0:	b94013f9 	ldr	w25, [sp, #16]
   124c4:	b94033fc 	ldr	w28, [sp, #48]
   124c8:	b94043f8 	ldr	w24, [sp, #64]
   124cc:	b9404fe1 	ldr	w1, [sp, #76]
   124d0:	29505fec 	ldp	w12, w23, [sp, #128]
   124d4:	eb0400bf 	cmp	x5, x4
   124d8:	540000c3 	b.cc	124f0 <_obstack_memory_used@@Base+0x56b0>  // b.lo, b.ul, b.last
   124dc:	14000007 	b	124f8 <_obstack_memory_used@@Base+0x56b8>
   124e0:	9100054a 	add	x10, x10, #0x1
   124e4:	8b0a02c5 	add	x5, x22, x10
   124e8:	eb05009f 	cmp	x4, x5
   124ec:	54000069 	b.ls	124f8 <_obstack_memory_used@@Base+0x56b8>  // b.plast
   124f0:	386568c0 	ldrb	w0, [x6, x5]
   124f4:	35ffff60 	cbnz	w0, 124e0 <_obstack_memory_used@@Base+0x56a0>
   124f8:	2a1903e0 	mov	w0, w25
   124fc:	52800015 	mov	w21, #0x0                   	// #0
   12500:	17fffea3 	b	11f8c <_obstack_memory_used@@Base+0x514c>
   12504:	b0000040 	adrp	x0, 1b000 <_obstack_memory_used@@Base+0xe1c0>
   12508:	2a1a03f9 	mov	w25, w26
   1250c:	9129c000 	add	x0, x0, #0xa70
   12510:	d2800037 	mov	x23, #0x1                   	// #1
   12514:	d2800013 	mov	x19, #0x0                   	// #0
   12518:	f9002be0 	str	x0, [sp, #80]
   1251c:	17fffb95 	b	11370 <_obstack_memory_used@@Base+0x4530>
   12520:	2a1903eb 	mov	w11, w25
   12524:	aa0403f5 	mov	x21, x4
   12528:	aa0703f8 	mov	x24, x7
   1252c:	aa0603fa 	mov	x26, x6
   12530:	aa1403f7 	mov	x23, x20
   12534:	17fffcf1 	b	118f8 <_obstack_memory_used@@Base+0x4ab8>
   12538:	2a0303e1 	mov	w1, w3
   1253c:	b9000be3 	str	w3, [sp, #8]
   12540:	f9000be4 	str	x4, [sp, #16]
   12544:	b9001bec 	str	w12, [sp, #24]
   12548:	a9021be7 	stp	x7, x6, [sp, #32]
   1254c:	97ffea4d 	bl	ce80 <_obstack_memory_used@@Base+0x40>
   12550:	b9400be3 	ldr	w3, [sp, #8]
   12554:	f9400be4 	ldr	x4, [sp, #16]
   12558:	f9004fe0 	str	x0, [sp, #152]
   1255c:	a9421be7 	ldp	x7, x6, [sp, #32]
   12560:	f9401bee 	ldr	x14, [sp, #48]
   12564:	b9401bec 	ldr	w12, [sp, #24]
   12568:	17ffff51 	b	122ac <_obstack_memory_used@@Base+0x546c>
   1256c:	2a0303e1 	mov	w1, w3
   12570:	b9000be3 	str	w3, [sp, #8]
   12574:	f9000be4 	str	x4, [sp, #16]
   12578:	b9001bec 	str	w12, [sp, #24]
   1257c:	a9021be7 	stp	x7, x6, [sp, #32]
   12580:	97ffea40 	bl	ce80 <_obstack_memory_used@@Base+0x40>
   12584:	b9400be3 	ldr	w3, [sp, #8]
   12588:	f9400be4 	ldr	x4, [sp, #16]
   1258c:	aa0003f4 	mov	x20, x0
   12590:	a9421be7 	ldp	x7, x6, [sp, #32]
   12594:	f9401bee 	ldr	x14, [sp, #48]
   12598:	b9401bec 	ldr	w12, [sp, #24]
   1259c:	17ffff31 	b	12260 <_obstack_memory_used@@Base+0x5420>
   125a0:	38336b5f 	strb	wzr, [x26, x19]
   125a4:	17fffed3 	b	120f0 <_obstack_memory_used@@Base+0x52b0>
   125a8:	7100087f 	cmp	w3, #0x2
   125ac:	52800080 	mov	w0, #0x4                   	// #4
   125b0:	aa0403f5 	mov	x21, x4
   125b4:	aa0703f8 	mov	x24, x7
   125b8:	aa0603fa 	mov	x26, x6
   125bc:	aa1403f7 	mov	x23, x20
   125c0:	1a801063 	csel	w3, w3, w0, ne	// ne = any
   125c4:	17fffcd0 	b	11904 <_obstack_memory_used@@Base+0x4ac4>
   125c8:	b9405be0 	ldr	w0, [sp, #88]
   125cc:	aa0703fa 	mov	x26, x7
   125d0:	aa1b03fc 	mov	x28, x27
   125d4:	17fffeb7 	b	120b0 <_obstack_memory_used@@Base+0x5270>
   125d8:	f9403ff2 	ldr	x18, [sp, #120]
   125dc:	2a1803f6 	mov	w22, w24
   125e0:	aa0403f5 	mov	x21, x4
   125e4:	aa0603fa 	mov	x26, x6
   125e8:	aa1403f7 	mov	x23, x20
   125ec:	aa0703f8 	mov	x24, x7
   125f0:	aa1203fb 	mov	x27, x18
   125f4:	528000a3 	mov	w3, #0x5                   	// #5
   125f8:	17fffb38 	b	112d8 <_obstack_memory_used@@Base+0x4498>
   125fc:	aa0703fa 	mov	x26, x7
   12600:	aa1b03fc 	mov	x28, x27
   12604:	52800020 	mov	w0, #0x1                   	// #1
   12608:	17fffeaa 	b	120b0 <_obstack_memory_used@@Base+0x5270>
   1260c:	91000673 	add	x19, x19, #0x1
   12610:	17fffe47 	b	11f2c <_obstack_memory_used@@Base+0x50ec>
   12614:	97ffc53f 	bl	3b10 <__stack_chk_fail@plt>
   12618:	2a0503f7 	mov	w23, w5
   1261c:	aa0903f3 	mov	x19, x9
   12620:	2a1503e5 	mov	w5, w21
   12624:	52800601 	mov	w1, #0x30                  	// #48
   12628:	52800015 	mov	w21, #0x0                   	// #0
   1262c:	370770f7 	tbnz	w23, #0, 11448 <_obstack_memory_used@@Base+0x4608>
   12630:	17fffbab 	b	114dc <_obstack_memory_used@@Base+0x469c>
   12634:	97ffc553 	bl	3b80 <abort@plt>
   12638:	d503201f 	nop
   1263c:	d503201f 	nop
   12640:	d503233f 	paciasp
   12644:	d10203ff 	sub	sp, sp, #0x80
   12648:	b00000e3 	adrp	x3, 2f000 <_obstack_memory_used@@Base+0x221c0>
   1264c:	f947e863 	ldr	x3, [x3, #4048]
   12650:	a9027bfd 	stp	x29, x30, [sp, #32]
   12654:	910083fd 	add	x29, sp, #0x20
   12658:	a90353f3 	stp	x19, x20, [sp, #48]
   1265c:	2a0003f4 	mov	w20, w0
   12660:	aa0203f3 	mov	x19, x2
   12664:	a9045bf5 	stp	x21, x22, [sp, #64]
   12668:	a90563f7 	stp	x23, x24, [sp, #80]
   1266c:	aa0103f7 	mov	x23, x1
   12670:	a9066bf9 	stp	x25, x26, [sp, #96]
   12674:	d00000f9 	adrp	x25, 30000 <_obstack_memory_used@@Base+0x231c0>
   12678:	a90773fb 	stp	x27, x28, [sp, #112]
   1267c:	d00000fb 	adrp	x27, 30000 <_obstack_memory_used@@Base+0x231c0>
   12680:	f9400060 	ldr	x0, [x3]
   12684:	f9000fe0 	str	x0, [sp, #24]
   12688:	d2800000 	mov	x0, #0x0                   	// #0
   1268c:	97ffc5dd 	bl	3e00 <__errno_location@plt>
   12690:	aa0003f6 	mov	x22, x0
   12694:	b9427b60 	ldr	w0, [x27, #632]
   12698:	f9414335 	ldr	x21, [x25, #640]
   1269c:	b94002c1 	ldr	w1, [x22]
   126a0:	b9000fe1 	str	w1, [sp, #12]
   126a4:	6b00029f 	cmp	w20, w0
   126a8:	5400032b 	b.lt	1270c <_obstack_memory_used@@Base+0x58cc>  // b.tstop
   126ac:	4b000282 	sub	w2, w20, w0
   126b0:	910a033c 	add	x28, x25, #0x280
   126b4:	11000442 	add	w2, w2, #0x1
   126b8:	93407c18 	sxtw	x24, w0
   126bc:	91002380 	add	x0, x28, #0x8
   126c0:	f9000bf8 	str	x24, [sp, #16]
   126c4:	93407c42 	sxtw	x2, w2
   126c8:	eb0002bf 	cmp	x21, x0
   126cc:	540008e0 	b.eq	127e8 <_obstack_memory_used@@Base+0x59a8>  // b.none
   126d0:	aa1503e0 	mov	x0, x21
   126d4:	d2800204 	mov	x4, #0x10                  	// #16
   126d8:	b2407be3 	mov	x3, #0x7fffffff            	// #2147483647
   126dc:	8b2463e1 	add	x1, sp, x4
   126e0:	97fff3e8 	bl	f680 <_obstack_memory_used@@Base+0x2840>
   126e4:	aa0003f5 	mov	x21, x0
   126e8:	f9014320 	str	x0, [x25, #640]
   126ec:	f9400be2 	ldr	x2, [sp, #16]
   126f0:	8b1812a0 	add	x0, x21, x24, lsl #4
   126f4:	52800001 	mov	w1, #0x0                   	// #0
   126f8:	cb180042 	sub	x2, x2, x24
   126fc:	d37cec42 	lsl	x2, x2, #4
   12700:	97ffc4e4 	bl	3a90 <memset@plt>
   12704:	f9400be0 	ldr	x0, [sp, #16]
   12708:	b9027b60 	str	w0, [x27, #632]
   1270c:	937c7e9a 	sbfiz	x26, x20, #4, #32
   12710:	9100227b 	add	x27, x19, #0x8
   12714:	a9429e66 	ldp	x6, x7, [x19, #40]
   12718:	8b1a02b9 	add	x25, x21, x26
   1271c:	29406263 	ldp	w3, w24, [x19]
   12720:	aa1b03e5 	mov	x5, x27
   12724:	f87a6abc 	ldr	x28, [x21, x26]
   12728:	32000318 	orr	w24, w24, #0x1
   1272c:	f9400734 	ldr	x20, [x25, #8]
   12730:	aa1c03e1 	mov	x1, x28
   12734:	aa1703e2 	mov	x2, x23
   12738:	2a1803e4 	mov	w4, w24
   1273c:	aa1403e0 	mov	x0, x20
   12740:	97fffacc 	bl	11270 <_obstack_memory_used@@Base+0x4430>
   12744:	eb00039f 	cmp	x28, x0
   12748:	540002a8 	b.hi	1279c <_obstack_memory_used@@Base+0x595c>  // b.pmore
   1274c:	9100041c 	add	x28, x0, #0x1
   12750:	f00000e0 	adrp	x0, 31000 <obstack_alloc_failed_handler@@Base+0xd90>
   12754:	91114000 	add	x0, x0, #0x450
   12758:	f83a6abc 	str	x28, [x21, x26]
   1275c:	eb00029f 	cmp	x20, x0
   12760:	54000060 	b.eq	1276c <_obstack_memory_used@@Base+0x592c>  // b.none
   12764:	aa1403e0 	mov	x0, x20
   12768:	97ffc53e 	bl	3c60 <free@plt>
   1276c:	aa1c03e0 	mov	x0, x28
   12770:	97ffc4a0 	bl	39f0 <malloc@plt>
   12774:	aa0003f4 	mov	x20, x0
   12778:	b40004c0 	cbz	x0, 12810 <_obstack_memory_used@@Base+0x59d0>
   1277c:	a9429e66 	ldp	x6, x7, [x19, #40]
   12780:	aa1b03e5 	mov	x5, x27
   12784:	b9400263 	ldr	w3, [x19]
   12788:	2a1803e4 	mov	w4, w24
   1278c:	f9000720 	str	x0, [x25, #8]
   12790:	aa1703e2 	mov	x2, x23
   12794:	aa1c03e1 	mov	x1, x28
   12798:	97fffab6 	bl	11270 <_obstack_memory_used@@Base+0x4430>
   1279c:	b9400fe1 	ldr	w1, [sp, #12]
   127a0:	b00000e0 	adrp	x0, 2f000 <_obstack_memory_used@@Base+0x221c0>
   127a4:	f947e800 	ldr	x0, [x0, #4048]
   127a8:	b90002c1 	str	w1, [x22]
   127ac:	f9400fe2 	ldr	x2, [sp, #24]
   127b0:	f9400001 	ldr	x1, [x0]
   127b4:	eb010042 	subs	x2, x2, x1
   127b8:	d2800001 	mov	x1, #0x0                   	// #0
   127bc:	540002c1 	b.ne	12814 <_obstack_memory_used@@Base+0x59d4>  // b.any
   127c0:	a9427bfd 	ldp	x29, x30, [sp, #32]
   127c4:	aa1403e0 	mov	x0, x20
   127c8:	a94353f3 	ldp	x19, x20, [sp, #48]
   127cc:	a9445bf5 	ldp	x21, x22, [sp, #64]
   127d0:	a94563f7 	ldp	x23, x24, [sp, #80]
   127d4:	a9466bf9 	ldp	x25, x26, [sp, #96]
   127d8:	a94773fb 	ldp	x27, x28, [sp, #112]
   127dc:	910203ff 	add	sp, sp, #0x80
   127e0:	d50323bf 	autiasp
   127e4:	d65f03c0 	ret
   127e8:	d2800204 	mov	x4, #0x10                  	// #16
   127ec:	b2407be3 	mov	x3, #0x7fffffff            	// #2147483647
   127f0:	8b2463e1 	add	x1, sp, x4
   127f4:	d2800000 	mov	x0, #0x0                   	// #0
   127f8:	97fff3a2 	bl	f680 <_obstack_memory_used@@Base+0x2840>
   127fc:	aa0003f5 	mov	x21, x0
   12800:	f9014320 	str	x0, [x25, #640]
   12804:	a9408780 	ldp	x0, x1, [x28, #8]
   12808:	a90006a0 	stp	x0, x1, [x21]
   1280c:	17ffffb8 	b	126ec <_obstack_memory_used@@Base+0x58ac>
   12810:	97ffeb11 	bl	d454 <_obstack_memory_used@@Base+0x614>
   12814:	97ffc4bf 	bl	3b10 <__stack_chk_fail@plt>
   12818:	d503201f 	nop
   1281c:	d503201f 	nop
   12820:	d503233f 	paciasp
   12824:	a9b97bfd 	stp	x29, x30, [sp, #-112]!
   12828:	910003fd 	mov	x29, sp
   1282c:	a9025bf5 	stp	x21, x22, [sp, #32]
   12830:	aa0203f6 	mov	x22, x2
   12834:	aa0403f5 	mov	x21, x4
   12838:	a90363f7 	stp	x23, x24, [sp, #48]
   1283c:	aa0103f7 	mov	x23, x1
   12840:	aa0303e2 	mov	x2, x3
   12844:	aa1603e1 	mov	x1, x22
   12848:	a90153f3 	stp	x19, x20, [sp, #16]
   1284c:	aa0003f4 	mov	x20, x0
   12850:	aa0303f3 	mov	x19, x3
   12854:	aa1703e0 	mov	x0, x23
   12858:	97fff81b 	bl	108c4 <_obstack_memory_used@@Base+0x3a84>
   1285c:	b7f800e0 	tbnz	x0, #63, 12878 <_obstack_memory_used@@Base+0x5a38>
   12860:	a94153f3 	ldp	x19, x20, [sp, #16]
   12864:	a9425bf5 	ldp	x21, x22, [sp, #32]
   12868:	a94363f7 	ldp	x23, x24, [sp, #48]
   1286c:	a8c77bfd 	ldp	x29, x30, [sp], #112
   12870:	d50323bf 	autiasp
   12874:	d65f03c0 	ret
   12878:	b00000f8 	adrp	x24, 2f000 <_obstack_memory_used@@Base+0x221c0>
   1287c:	f947d318 	ldr	x24, [x24, #4000]
   12880:	aa0003e2 	mov	x2, x0
   12884:	aa1703e1 	mov	x1, x23
   12888:	aa1403e0 	mov	x0, x20
   1288c:	97ffe2a1 	bl	b310 <setlocale@plt+0x74b0>
   12890:	528000a2 	mov	w2, #0x5                   	// #5
   12894:	d0000041 	adrp	x1, 1c000 <_obstack_memory_used@@Base+0xf1c0>
   12898:	d2800000 	mov	x0, #0x0                   	// #0
   1289c:	91286021 	add	x1, x1, #0xa18
   128a0:	97ffc530 	bl	3d60 <dcgettext@plt>
   128a4:	f9400301 	ldr	x1, [x24]
   128a8:	97ffc532 	bl	3d70 <fputs_unlocked@plt>
   128ac:	f94002c1 	ldr	x1, [x22]
   128b0:	b4000581 	cbz	x1, 12960 <_obstack_memory_used@@Base+0x5b20>
   128b4:	f9400317 	ldr	x23, [x24]
   128b8:	aa1303f4 	mov	x20, x19
   128bc:	a9046bf9 	stp	x25, x26, [sp, #64]
   128c0:	d00000f9 	adrp	x25, 30000 <_obstack_memory_used@@Base+0x231c0>
   128c4:	d000005a 	adrp	x26, 1c000 <_obstack_memory_used@@Base+0xf1c0>
   128c8:	91022339 	add	x25, x25, #0x88
   128cc:	9128c35a 	add	x26, x26, #0xa30
   128d0:	a90573fb 	stp	x27, x28, [sp, #80]
   128d4:	d000005b 	adrp	x27, 1c000 <_obstack_memory_used@@Base+0xf1c0>
   128d8:	d280001c 	mov	x28, #0x0                   	// #0
   128dc:	9128e360 	add	x0, x27, #0xa38
   128e0:	f90037e0 	str	x0, [sp, #104]
   128e4:	d503201f 	nop
   128e8:	aa1303fb 	mov	x27, x19
   128ec:	aa1903e2 	mov	x2, x25
   128f0:	52800000 	mov	w0, #0x0                   	// #0
   128f4:	97ffff53 	bl	12640 <_obstack_memory_used@@Base+0x5800>
   128f8:	aa1a03e2 	mov	x2, x26
   128fc:	aa0003e3 	mov	x3, x0
   12900:	52800041 	mov	w1, #0x2                   	// #2
   12904:	aa1703e0 	mov	x0, x23
   12908:	97ffc4be 	bl	3c00 <__fprintf_chk@plt>
   1290c:	9100079c 	add	x28, x28, #0x1
   12910:	91001294 	add	x20, x20, #0x4
   12914:	aa1403f3 	mov	x19, x20
   12918:	f87c7ac1 	ldr	x1, [x22, x28, lsl #3]
   1291c:	b40001e1 	cbz	x1, 12958 <_obstack_memory_used@@Base+0x5b18>
   12920:	b9400280 	ldr	w0, [x20]
   12924:	b9400362 	ldr	w2, [x27]
   12928:	f9400317 	ldr	x23, [x24]
   1292c:	6b00005f 	cmp	w2, w0
   12930:	54fffdc1 	b.ne	128e8 <_obstack_memory_used@@Base+0x5aa8>  // b.any
   12934:	aa1903e2 	mov	x2, x25
   12938:	52800000 	mov	w0, #0x0                   	// #0
   1293c:	97ffff41 	bl	12640 <_obstack_memory_used@@Base+0x5800>
   12940:	aa0003e3 	mov	x3, x0
   12944:	f94037e2 	ldr	x2, [sp, #104]
   12948:	aa1703e0 	mov	x0, x23
   1294c:	52800041 	mov	w1, #0x2                   	// #2
   12950:	97ffc4ac 	bl	3c00 <__fprintf_chk@plt>
   12954:	17ffffee 	b	1290c <_obstack_memory_used@@Base+0x5acc>
   12958:	a9446bf9 	ldp	x25, x26, [sp, #64]
   1295c:	a94573fb 	ldp	x27, x28, [sp, #80]
   12960:	f9400300 	ldr	x0, [x24]
   12964:	a9428801 	ldp	x1, x2, [x0, #40]
   12968:	eb02003f 	cmp	x1, x2
   1296c:	54000102 	b.cs	1298c <_obstack_memory_used@@Base+0x5b4c>  // b.hs, b.nlast
   12970:	91000422 	add	x2, x1, #0x1
   12974:	f9001402 	str	x2, [x0, #40]
   12978:	52800140 	mov	w0, #0xa                   	// #10
   1297c:	39000020 	strb	w0, [x1]
   12980:	d63f02a0 	blr	x21
   12984:	92800000 	mov	x0, #0xffffffffffffffff    	// #-1
   12988:	17ffffb6 	b	12860 <_obstack_memory_used@@Base+0x5a20>
   1298c:	52800141 	mov	w1, #0xa                   	// #10
   12990:	97ffc488 	bl	3bb0 <__overflow@plt>
   12994:	17fffffb 	b	12980 <_obstack_memory_used@@Base+0x5b40>
   12998:	d503201f 	nop
   1299c:	d503201f 	nop
   129a0:	d503233f 	paciasp
   129a4:	d10243ff 	sub	sp, sp, #0x90
   129a8:	b00000e1 	adrp	x1, 2f000 <_obstack_memory_used@@Base+0x221c0>
   129ac:	f947e821 	ldr	x1, [x1, #4048]
   129b0:	910023e2 	add	x2, sp, #0x8
   129b4:	a9087bfd 	stp	x29, x30, [sp, #128]
   129b8:	910033e3 	add	x3, sp, #0xc
   129bc:	910203fd 	add	x29, sp, #0x80
   129c0:	4f000400 	movi	v0.4s, #0x0
   129c4:	f9400024 	ldr	x4, [x1]
   129c8:	f9003fe4 	str	x4, [sp, #120]
   129cc:	d2800004 	mov	x4, #0x0                   	// #0
   129d0:	52800061 	mov	w1, #0x3                   	// #3
   129d4:	b9000be1 	str	w1, [sp, #8]
   129d8:	910103e4 	add	x4, sp, #0x40
   129dc:	b9003fff 	str	wzr, [sp, #60]
   129e0:	52a08005 	mov	w5, #0x4000000             	// #67108864
   129e4:	aa0003e1 	mov	x1, x0
   129e8:	52800000 	mov	w0, #0x0                   	// #0
   129ec:	ad000060 	stp	q0, q0, [x3]
   129f0:	ad400841 	ldp	q1, q2, [x2]
   129f4:	3d800860 	str	q0, [x3, #32]
   129f8:	3dc00840 	ldr	q0, [x2, #32]
   129fc:	ad000841 	stp	q1, q2, [x2]
   12a00:	f9401843 	ldr	x3, [x2, #48]
   12a04:	ad000881 	stp	q1, q2, [x4]
   12a08:	b90017e5 	str	w5, [sp, #20]
   12a0c:	3d800880 	str	q0, [x4, #32]
   12a10:	f9001883 	str	x3, [x4, #48]
   12a14:	97ffff0b 	bl	12640 <_obstack_memory_used@@Base+0x5800>
   12a18:	b00000e1 	adrp	x1, 2f000 <_obstack_memory_used@@Base+0x221c0>
   12a1c:	f947e821 	ldr	x1, [x1, #4048]
   12a20:	f9403fe3 	ldr	x3, [sp, #120]
   12a24:	f9400022 	ldr	x2, [x1]
   12a28:	eb020063 	subs	x3, x3, x2
   12a2c:	d2800002 	mov	x2, #0x0                   	// #0
   12a30:	540000a1 	b.ne	12a44 <_obstack_memory_used@@Base+0x5c04>  // b.any
   12a34:	a9487bfd 	ldp	x29, x30, [sp, #128]
   12a38:	910243ff 	add	sp, sp, #0x90
   12a3c:	d50323bf 	autiasp
   12a40:	d65f03c0 	ret
   12a44:	97ffc433 	bl	3b10 <__stack_chk_fail@plt>
   12a48:	d503201f 	nop
   12a4c:	d503201f 	nop
   12a50:	d503233f 	paciasp
   12a54:	d101c3ff 	sub	sp, sp, #0x70
   12a58:	b00000e2 	adrp	x2, 2f000 <_obstack_memory_used@@Base+0x221c0>
   12a5c:	f947e842 	ldr	x2, [x2, #4048]
   12a60:	a9027bfd 	stp	x29, x30, [sp, #32]
   12a64:	910083fd 	add	x29, sp, #0x20
   12a68:	a90353f3 	stp	x19, x20, [sp, #48]
   12a6c:	aa0003f4 	mov	x20, x0
   12a70:	a9045bf5 	stp	x21, x22, [sp, #64]
   12a74:	8b010016 	add	x22, x0, x1
   12a78:	f9400040 	ldr	x0, [x2]
   12a7c:	f9000fe0 	str	x0, [sp, #24]
   12a80:	d2800000 	mov	x0, #0x0                   	// #0
   12a84:	97ffc47b 	bl	3c70 <__ctype_get_mb_cur_max@plt>
   12a88:	f100041f 	cmp	x0, #0x1
   12a8c:	540006c9 	b.ls	12b64 <_obstack_memory_used@@Base+0x5d24>  // b.plast
   12a90:	eb16029f 	cmp	x20, x22
   12a94:	54000ba2 	b.cs	12c08 <_obstack_memory_used@@Base+0x5dc8>  // b.hs, b.nlast
   12a98:	52800015 	mov	w21, #0x0                   	// #0
   12a9c:	a90563f7 	stp	x23, x24, [sp, #80]
   12aa0:	910043f7 	add	x23, sp, #0x10
   12aa4:	12b00018 	mov	w24, #0x7fffffff            	// #2147483647
   12aa8:	f90033f9 	str	x25, [sp, #96]
   12aac:	14000005 	b	12ac0 <_obstack_memory_used@@Base+0x5c80>
   12ab0:	91000694 	add	x20, x20, #0x1
   12ab4:	110006b5 	add	w21, w21, #0x1
   12ab8:	eb1402df 	cmp	x22, x20
   12abc:	54000a09 	b.ls	12bfc <_obstack_memory_used@@Base+0x5dbc>  // b.plast
   12ac0:	39400280 	ldrb	w0, [x20]
   12ac4:	51008000 	sub	w0, w0, #0x20
   12ac8:	7101781f 	cmp	w0, #0x5e
   12acc:	54ffff29 	b.ls	12ab0 <_obstack_memory_used@@Base+0x5c70>  // b.plast
   12ad0:	910033f9 	add	x25, sp, #0xc
   12ad4:	f90002ff 	str	xzr, [x23]
   12ad8:	1400000e 	b	12b10 <_obstack_memory_used@@Base+0x5cd0>
   12adc:	b1000c1f 	cmn	x0, #0x3
   12ae0:	9a9f1013 	csel	x19, x0, xzr, ne	// ne = any
   12ae4:	b9400fe0 	ldr	w0, [sp, #12]
   12ae8:	97ffc3ca 	bl	3a10 <wcwidth@plt>
   12aec:	37f802e0 	tbnz	w0, #31, 12b48 <_obstack_memory_used@@Base+0x5d08>
   12af0:	4b150301 	sub	w1, w24, w21
   12af4:	6b01001f 	cmp	w0, w1
   12af8:	540007ac 	b.gt	12bec <_obstack_memory_used@@Base+0x5dac>
   12afc:	0b0002b5 	add	w21, w21, w0
   12b00:	8b130294 	add	x20, x20, x19
   12b04:	aa1703e0 	mov	x0, x23
   12b08:	97ffc426 	bl	3ba0 <mbsinit@plt>
   12b0c:	35fffd60 	cbnz	w0, 12ab8 <_obstack_memory_used@@Base+0x5c78>
   12b10:	aa1703e3 	mov	x3, x23
   12b14:	cb1402c2 	sub	x2, x22, x20
   12b18:	aa1403e1 	mov	x1, x20
   12b1c:	aa1903e0 	mov	x0, x25
   12b20:	97fff60c 	bl	10350 <_obstack_memory_used@@Base+0x3510>
   12b24:	b100041f 	cmn	x0, #0x1
   12b28:	54fffc40 	b.eq	12ab0 <_obstack_memory_used@@Base+0x5c70>  // b.none
   12b2c:	b100081f 	cmn	x0, #0x2
   12b30:	54000560 	b.eq	12bdc <_obstack_memory_used@@Base+0x5d9c>  // b.none
   12b34:	b5fffd40 	cbnz	x0, 12adc <_obstack_memory_used@@Base+0x5c9c>
   12b38:	b9400fe0 	ldr	w0, [sp, #12]
   12b3c:	d2800033 	mov	x19, #0x1                   	// #1
   12b40:	97ffc3b4 	bl	3a10 <wcwidth@plt>
   12b44:	36fffd60 	tbz	w0, #31, 12af0 <_obstack_memory_used@@Base+0x5cb0>
   12b48:	b9400fe0 	ldr	w0, [sp, #12]
   12b4c:	97ffc371 	bl	3910 <iswcntrl@plt>
   12b50:	35fffd80 	cbnz	w0, 12b00 <_obstack_memory_used@@Base+0x5cc0>
   12b54:	6b1802bf 	cmp	w21, w24
   12b58:	540004a0 	b.eq	12bec <_obstack_memory_used@@Base+0x5dac>  // b.none
   12b5c:	110006b5 	add	w21, w21, #0x1
   12b60:	17ffffe8 	b	12b00 <_obstack_memory_used@@Base+0x5cc0>
   12b64:	eb16029f 	cmp	x20, x22
   12b68:	54000502 	b.cs	12c08 <_obstack_memory_used@@Base+0x5dc8>  // b.hs, b.nlast
   12b6c:	97ffc435 	bl	3c40 <__ctype_b_loc@plt>
   12b70:	52800015 	mov	w21, #0x0                   	// #0
   12b74:	f9400001 	ldr	x1, [x0]
   12b78:	12b00002 	mov	w2, #0x7fffffff            	// #2147483647
   12b7c:	d503201f 	nop
   12b80:	38401680 	ldrb	w0, [x20], #1
   12b84:	78607820 	ldrh	w0, [x1, x0, lsl #1]
   12b88:	37700040 	tbnz	w0, #14, 12b90 <_obstack_memory_used@@Base+0x5d50>
   12b8c:	37080080 	tbnz	w0, #1, 12b9c <_obstack_memory_used@@Base+0x5d5c>
   12b90:	6b0202bf 	cmp	w21, w2
   12b94:	54000300 	b.eq	12bf4 <_obstack_memory_used@@Base+0x5db4>  // b.none
   12b98:	110006b5 	add	w21, w21, #0x1
   12b9c:	eb1402df 	cmp	x22, x20
   12ba0:	54ffff01 	b.ne	12b80 <_obstack_memory_used@@Base+0x5d40>  // b.any
   12ba4:	b00000e0 	adrp	x0, 2f000 <_obstack_memory_used@@Base+0x221c0>
   12ba8:	f947e800 	ldr	x0, [x0, #4048]
   12bac:	f9400fe2 	ldr	x2, [sp, #24]
   12bb0:	f9400001 	ldr	x1, [x0]
   12bb4:	eb010042 	subs	x2, x2, x1
   12bb8:	d2800001 	mov	x1, #0x0                   	// #0
   12bbc:	540002a1 	b.ne	12c10 <_obstack_memory_used@@Base+0x5dd0>  // b.any
   12bc0:	a9427bfd 	ldp	x29, x30, [sp, #32]
   12bc4:	2a1503e0 	mov	w0, w21
   12bc8:	a94353f3 	ldp	x19, x20, [sp, #48]
   12bcc:	a9445bf5 	ldp	x21, x22, [sp, #64]
   12bd0:	9101c3ff 	add	sp, sp, #0x70
   12bd4:	d50323bf 	autiasp
   12bd8:	d65f03c0 	ret
   12bdc:	a94563f7 	ldp	x23, x24, [sp, #80]
   12be0:	110006b5 	add	w21, w21, #0x1
   12be4:	f94033f9 	ldr	x25, [sp, #96]
   12be8:	17ffffef 	b	12ba4 <_obstack_memory_used@@Base+0x5d64>
   12bec:	a94563f7 	ldp	x23, x24, [sp, #80]
   12bf0:	f94033f9 	ldr	x25, [sp, #96]
   12bf4:	12b00015 	mov	w21, #0x7fffffff            	// #2147483647
   12bf8:	17ffffeb 	b	12ba4 <_obstack_memory_used@@Base+0x5d64>
   12bfc:	a94563f7 	ldp	x23, x24, [sp, #80]
   12c00:	f94033f9 	ldr	x25, [sp, #96]
   12c04:	17ffffe8 	b	12ba4 <_obstack_memory_used@@Base+0x5d64>
   12c08:	52800015 	mov	w21, #0x0                   	// #0
   12c0c:	17ffffe6 	b	12ba4 <_obstack_memory_used@@Base+0x5d64>
   12c10:	a90563f7 	stp	x23, x24, [sp, #80]
   12c14:	f90033f9 	str	x25, [sp, #96]
   12c18:	97ffc3be 	bl	3b10 <__stack_chk_fail@plt>
   12c1c:	d503201f 	nop
   12c20:	d503233f 	paciasp
   12c24:	d10283ff 	sub	sp, sp, #0xa0
   12c28:	d00000e6 	adrp	x6, 30000 <_obstack_memory_used@@Base+0x231c0>
   12c2c:	a9047bfd 	stp	x29, x30, [sp, #64]
   12c30:	910103fd 	add	x29, sp, #0x40
   12c34:	a9065bf5 	stp	x21, x22, [sp, #96]
   12c38:	aa0203f5 	mov	x21, x2
   12c3c:	f10002bf 	cmp	x21, #0x0
   12c40:	913d20c2 	add	x2, x6, #0xf48
   12c44:	f00000e6 	adrp	x6, 31000 <obstack_alloc_failed_handler@@Base+0xd90>
   12c48:	9a950055 	csel	x21, x2, x21, eq	// eq = none
   12c4c:	a90553f3 	stp	x19, x20, [sp, #80]
   12c50:	aa0103f6 	mov	x22, x1
   12c54:	b00000e2 	adrp	x2, 2f000 <_obstack_memory_used@@Base+0x221c0>
   12c58:	f947e842 	ldr	x2, [x2, #4048]
   12c5c:	f9000be0 	str	x0, [sp, #16]
   12c60:	b94002b3 	ldr	w19, [x21]
   12c64:	a90763f7 	stp	x23, x24, [sp, #112]
   12c68:	aa0403f8 	mov	x24, x4
   12c6c:	71000a7f 	cmp	w19, #0x2
   12c70:	f9400017 	ldr	x23, [x0]
   12c74:	f9400048 	ldr	x8, [x2]
   12c78:	f9001fe8 	str	x8, [sp, #56]
   12c7c:	d2800008 	mov	x8, #0x0                   	// #0
   12c80:	3950c0c0 	ldrb	w0, [x6, #1072]
   12c84:	1a9f87e6 	cset	w6, ls	// ls = plast
   12c88:	f9000fe5 	str	x5, [sp, #24]
   12c8c:	0a0000c1 	and	w1, w6, w0
   12c90:	b9000fe1 	str	w1, [sp, #12]
   12c94:	6a0000df 	tst	w6, w0
   12c98:	54000761 	b.ne	12d84 <_obstack_memory_used@@Base+0x5f44>  // b.any
   12c9c:	35000ce3 	cbnz	w3, 12e38 <_obstack_memory_used@@Base+0x5ff8>
   12ca0:	aa1603e0 	mov	x0, x22
   12ca4:	aa1603f7 	mov	x23, x22
   12ca8:	97ffc2d6 	bl	3800 <strlen@plt>
   12cac:	aa0003f3 	mov	x19, x0
   12cb0:	b4000538 	cbz	x24, 12d54 <_obstack_memory_used@@Base+0x5f14>
   12cb4:	97ffc3ef 	bl	3c70 <__ctype_get_mb_cur_max@plt>
   12cb8:	f100041f 	cmp	x0, #0x1
   12cbc:	54001da8 	b.hi	13070 <_obstack_memory_used@@Base+0x6230>  // b.pmore
   12cc0:	8b1302f5 	add	x21, x23, x19
   12cc4:	eb1702bf 	cmp	x21, x23
   12cc8:	54002149 	b.ls	130f0 <_obstack_memory_used@@Base+0x62b0>  // b.plast
   12ccc:	97ffc3dd 	bl	3c40 <__ctype_b_loc@plt>
   12cd0:	d2800014 	mov	x20, #0x0                   	// #0
   12cd4:	f9400002 	ldr	x2, [x0]
   12cd8:	aa1703e1 	mov	x1, x23
   12cdc:	d503201f 	nop
   12ce0:	38401420 	ldrb	w0, [x1], #1
   12ce4:	78607840 	ldrh	w0, [x2, x0, lsl #1]
   12ce8:	d34e3800 	ubfx	x0, x0, #14, #1
   12cec:	8b000294 	add	x20, x20, x0
   12cf0:	eb0102bf 	cmp	x21, x1
   12cf4:	54ffff61 	b.ne	12ce0 <_obstack_memory_used@@Base+0x5ea0>  // b.any
   12cf8:	f00000e0 	adrp	x0, 31000 <obstack_alloc_failed_handler@@Base+0xd90>
   12cfc:	394a0000 	ldrb	w0, [x0, #640]
   12d00:	37000300 	tbnz	w0, #0, 12d60 <_obstack_memory_used@@Base+0x5f20>
   12d04:	f9400fe0 	ldr	x0, [sp, #24]
   12d08:	3900001f 	strb	wzr, [x0]
   12d0c:	f9000314 	str	x20, [x24]
   12d10:	f9400be1 	ldr	x1, [sp, #16]
   12d14:	b00000e0 	adrp	x0, 2f000 <_obstack_memory_used@@Base+0x221c0>
   12d18:	f947e800 	ldr	x0, [x0, #4048]
   12d1c:	f9000037 	str	x23, [x1]
   12d20:	f9401fe2 	ldr	x2, [sp, #56]
   12d24:	f9400001 	ldr	x1, [x0]
   12d28:	eb010042 	subs	x2, x2, x1
   12d2c:	d2800001 	mov	x1, #0x0                   	// #0
   12d30:	54001ea1 	b.ne	13104 <_obstack_memory_used@@Base+0x62c4>  // b.any
   12d34:	a9447bfd 	ldp	x29, x30, [sp, #64]
   12d38:	aa1303e0 	mov	x0, x19
   12d3c:	a94553f3 	ldp	x19, x20, [sp, #80]
   12d40:	a9465bf5 	ldp	x21, x22, [sp, #96]
   12d44:	a94763f7 	ldp	x23, x24, [sp, #112]
   12d48:	910283ff 	add	sp, sp, #0xa0
   12d4c:	d50323bf 	autiasp
   12d50:	d65f03c0 	ret
   12d54:	f00000e0 	adrp	x0, 31000 <obstack_alloc_failed_handler@@Base+0xd90>
   12d58:	394a0000 	ldrb	w0, [x0, #640]
   12d5c:	36000ac0 	tbz	w0, #0, 12eb4 <_obstack_memory_used@@Base+0x6074>
   12d60:	d00000e1 	adrp	x1, 30000 <_obstack_memory_used@@Base+0x231c0>
   12d64:	b9400fe0 	ldr	w0, [sp, #12]
   12d68:	397bc021 	ldrb	w1, [x1, #3824]
   12d6c:	52000000 	eor	w0, w0, #0x1
   12d70:	0a010000 	and	w0, w0, w1
   12d74:	f9400fe1 	ldr	x1, [sp, #24]
   12d78:	39000020 	strb	w0, [x1]
   12d7c:	b5fffc98 	cbnz	x24, 12d0c <_obstack_memory_used@@Base+0x5ecc>
   12d80:	17ffffe4 	b	12d10 <_obstack_memory_used@@Base+0x5ed0>
   12d84:	35000d83 	cbnz	w3, 12f34 <_obstack_memory_used@@Base+0x60f4>
   12d88:	aa1603e0 	mov	x0, x22
   12d8c:	97ffc29d 	bl	3800 <strlen@plt>
   12d90:	d283ffe1 	mov	x1, #0x1fff                	// #8191
   12d94:	aa0003f3 	mov	x19, x0
   12d98:	91000414 	add	x20, x0, #0x1
   12d9c:	eb01001f 	cmp	x0, x1
   12da0:	540017c8 	b.hi	13098 <_obstack_memory_used@@Base+0x6258>  // b.pmore
   12da4:	aa1403e2 	mov	x2, x20
   12da8:	aa1603e1 	mov	x1, x22
   12dac:	aa1703e0 	mov	x0, x23
   12db0:	97ffc280 	bl	37b0 <memcpy@plt>
   12db4:	b9000fff 	str	wzr, [sp, #12]
   12db8:	8b1302f6 	add	x22, x23, x19
   12dbc:	97ffc3ad 	bl	3c70 <__ctype_get_mb_cur_max@plt>
   12dc0:	f100041f 	cmp	x0, #0x1
   12dc4:	540007e9 	b.ls	12ec0 <_obstack_memory_used@@Base+0x6080>  // b.plast
   12dc8:	eb1602ff 	cmp	x23, x22
   12dcc:	54001962 	b.cs	130f8 <_obstack_memory_used@@Base+0x62b8>  // b.hs, b.nlast
   12dd0:	aa1703f3 	mov	x19, x23
   12dd4:	9100c3f5 	add	x21, sp, #0x30
   12dd8:	a90973fb 	stp	x27, x28, [sp, #144]
   12ddc:	aa1703fc 	mov	x28, x23
   12de0:	d2800014 	mov	x20, #0x0                   	// #0
   12de4:	d280003b 	mov	x27, #0x1                   	// #1
   12de8:	a9086bf9 	stp	x25, x26, [sp, #128]
   12dec:	d503201f 	nop
   12df0:	39400380 	ldrb	w0, [x28]
   12df4:	71017c1f 	cmp	w0, #0x5f
   12df8:	54000a68 	b.hi	12f44 <_obstack_memory_used@@Base+0x6104>  // b.pmore
   12dfc:	7101001f 	cmp	w0, #0x40
   12e00:	540000a8 	b.hi	12e14 <_obstack_memory_used@@Base+0x5fd4>  // b.pmore
   12e04:	71008c1f 	cmp	w0, #0x23
   12e08:	540012a8 	b.hi	1305c <_obstack_memory_used@@Base+0x621c>  // b.pmore
   12e0c:	71007c1f 	cmp	w0, #0x1f
   12e10:	54000a29 	b.ls	12f54 <_obstack_memory_used@@Base+0x6114>  // b.plast
   12e14:	9100079c 	add	x28, x28, #0x1
   12e18:	91000694 	add	x20, x20, #0x1
   12e1c:	38001660 	strb	w0, [x19], #1
   12e20:	eb16039f 	cmp	x28, x22
   12e24:	54fffe63 	b.cc	12df0 <_obstack_memory_used@@Base+0x5fb0>  // b.lo, b.ul, b.last
   12e28:	a9486bf9 	ldp	x25, x26, [sp, #128]
   12e2c:	cb170273 	sub	x19, x19, x23
   12e30:	a94973fb 	ldp	x27, x28, [sp, #144]
   12e34:	14000033 	b	12f00 <_obstack_memory_used@@Base+0x60c0>
   12e38:	a9086bf9 	stp	x25, x26, [sp, #128]
   12e3c:	5280001a 	mov	w26, #0x0                   	// #0
   12e40:	a90973fb 	stp	x27, x28, [sp, #144]
   12e44:	97ffc3ef 	bl	3e00 <__errno_location@plt>
   12e48:	a9429ea6 	ldp	x6, x7, [x21, #40]
   12e4c:	aa0003fc 	mov	x28, x0
   12e50:	b94006a4 	ldr	w4, [x21, #4]
   12e54:	2a1303e3 	mov	w3, w19
   12e58:	910022bb 	add	x27, x21, #0x8
   12e5c:	aa1603e2 	mov	x2, x22
   12e60:	b9400393 	ldr	w19, [x28]
   12e64:	aa1b03e5 	mov	x5, x27
   12e68:	aa1703e0 	mov	x0, x23
   12e6c:	d2840001 	mov	x1, #0x2000                	// #8192
   12e70:	97fff900 	bl	11270 <_obstack_memory_used@@Base+0x4430>
   12e74:	b9000393 	str	w19, [x28]
   12e78:	aa0003f3 	mov	x19, x0
   12e7c:	d283ffe0 	mov	x0, #0x1fff                	// #8191
   12e80:	eb00027f 	cmp	x19, x0
   12e84:	54001188 	b.hi	130b4 <_obstack_memory_used@@Base+0x6274>  // b.pmore
   12e88:	52800020 	mov	w0, #0x1                   	// #1
   12e8c:	394002c1 	ldrb	w1, [x22]
   12e90:	b9000fe0 	str	w0, [sp, #12]
   12e94:	394002e0 	ldrb	w0, [x23]
   12e98:	6b00003f 	cmp	w1, w0
   12e9c:	540003a0 	b.eq	12f10 <_obstack_memory_used@@Base+0x60d0>  // b.none
   12ea0:	3500045a 	cbnz	w26, 12f28 <_obstack_memory_used@@Base+0x60e8>
   12ea4:	a9486bf9 	ldp	x25, x26, [sp, #128]
   12ea8:	a94973fb 	ldp	x27, x28, [sp, #144]
   12eac:	b5fff058 	cbnz	x24, 12cb4 <_obstack_memory_used@@Base+0x5e74>
   12eb0:	17ffffa9 	b	12d54 <_obstack_memory_used@@Base+0x5f14>
   12eb4:	f9400fe0 	ldr	x0, [sp, #24]
   12eb8:	3900001f 	strb	wzr, [x0]
   12ebc:	17ffff95 	b	12d10 <_obstack_memory_used@@Base+0x5ed0>
   12ec0:	eb1602ff 	cmp	x23, x22
   12ec4:	540001a2 	b.cs	12ef8 <_obstack_memory_used@@Base+0x60b8>  // b.hs, b.nlast
   12ec8:	97ffc35e 	bl	3c40 <__ctype_b_loc@plt>
   12ecc:	aa1703e1 	mov	x1, x23
   12ed0:	528007e4 	mov	w4, #0x3f                  	// #63
   12ed4:	d503201f 	nop
   12ed8:	f9400002 	ldr	x2, [x0]
   12edc:	39400023 	ldrb	w3, [x1]
   12ee0:	78637842 	ldrh	w2, [x2, x3, lsl #1]
   12ee4:	37700042 	tbnz	w2, #14, 12eec <_obstack_memory_used@@Base+0x60ac>
   12ee8:	39000024 	strb	w4, [x1]
   12eec:	91000421 	add	x1, x1, #0x1
   12ef0:	eb16003f 	cmp	x1, x22
   12ef4:	54ffff21 	b.ne	12ed8 <_obstack_memory_used@@Base+0x6098>  // b.any
   12ef8:	aa1303f4 	mov	x20, x19
   12efc:	d503201f 	nop
   12f00:	f00000e0 	adrp	x0, 31000 <obstack_alloc_failed_handler@@Base+0xd90>
   12f04:	394a0000 	ldrb	w0, [x0, #640]
   12f08:	3607f360 	tbz	w0, #0, 12d74 <_obstack_memory_used@@Base+0x5f34>
   12f0c:	17ffff95 	b	12d60 <_obstack_memory_used@@Base+0x5f20>
   12f10:	aa1603e0 	mov	x0, x22
   12f14:	97ffc23b 	bl	3800 <strlen@plt>
   12f18:	eb13001f 	cmp	x0, x19
   12f1c:	1a9f07e0 	cset	w0, ne	// ne = any
   12f20:	b9000fe0 	str	w0, [sp, #12]
   12f24:	34fffc1a 	cbz	w26, 12ea4 <_obstack_memory_used@@Base+0x6064>
   12f28:	a9486bf9 	ldp	x25, x26, [sp, #128]
   12f2c:	a94973fb 	ldp	x27, x28, [sp, #144]
   12f30:	17ffffa2 	b	12db8 <_obstack_memory_used@@Base+0x5f78>
   12f34:	a9086bf9 	stp	x25, x26, [sp, #128]
   12f38:	5280003a 	mov	w26, #0x1                   	// #1
   12f3c:	a90973fb 	stp	x27, x28, [sp, #144]
   12f40:	17ffffc1 	b	12e44 <_obstack_memory_used@@Base+0x6004>
   12f44:	51018402 	sub	w2, w0, #0x61
   12f48:	12001c42 	and	w2, w2, #0xff
   12f4c:	7100745f 	cmp	w2, #0x1d
   12f50:	54fff629 	b.ls	12e14 <_obstack_memory_used@@Base+0x5fd4>  // b.plast
   12f54:	9100b3fa 	add	x26, sp, #0x2c
   12f58:	f9001bff 	str	xzr, [sp, #48]
   12f5c:	14000011 	b	12fa0 <_obstack_memory_used@@Base+0x6160>
   12f60:	b100041f 	cmn	x0, #0x1
   12f64:	54000960 	b.eq	13090 <_obstack_memory_used@@Base+0x6250>  // b.none
   12f68:	b100081f 	cmn	x0, #0x2
   12f6c:	540003c0 	b.eq	12fe4 <_obstack_memory_used@@Base+0x61a4>  // b.none
   12f70:	f100001f 	cmp	x0, #0x0
   12f74:	9a9b1019 	csel	x25, x0, x27, ne	// ne = any
   12f78:	b9402fe0 	ldr	w0, [sp, #44]
   12f7c:	97ffc2a5 	bl	3a10 <wcwidth@plt>
   12f80:	36f80400 	tbz	w0, #31, 13000 <_obstack_memory_used@@Base+0x61c0>
   12f84:	8b19039c 	add	x28, x28, x25
   12f88:	91000694 	add	x20, x20, #0x1
   12f8c:	528007e0 	mov	w0, #0x3f                  	// #63
   12f90:	38001660 	strb	w0, [x19], #1
   12f94:	aa1503e0 	mov	x0, x21
   12f98:	97ffc302 	bl	3ba0 <mbsinit@plt>
   12f9c:	35fff420 	cbnz	w0, 12e20 <_obstack_memory_used@@Base+0x5fe0>
   12fa0:	cb1c02c2 	sub	x2, x22, x28
   12fa4:	aa1503e3 	mov	x3, x21
   12fa8:	aa0203f9 	mov	x25, x2
   12fac:	aa1c03e1 	mov	x1, x28
   12fb0:	aa1a03e0 	mov	x0, x26
   12fb4:	97ffc1fb 	bl	37a0 <mbrtowc@plt>
   12fb8:	f100033f 	cmp	x25, #0x0
   12fbc:	aa0003e3 	mov	x3, x0
   12fc0:	ba431800 	ccmn	x0, #0x3, #0x0, ne	// ne = any
   12fc4:	54fffce9 	b.ls	12f60 <_obstack_memory_used@@Base+0x6120>  // b.plast
   12fc8:	52800000 	mov	w0, #0x0                   	// #0
   12fcc:	f90003e3 	str	x3, [sp]
   12fd0:	97ffe298 	bl	ba30 <setlocale@plt+0x7bd0>
   12fd4:	f94003e3 	ldr	x3, [sp]
   12fd8:	360002a0 	tbz	w0, #0, 1302c <_obstack_memory_used@@Base+0x61ec>
   12fdc:	b100047f 	cmn	x3, #0x1
   12fe0:	54000580 	b.eq	13090 <_obstack_memory_used@@Base+0x6250>  // b.none
   12fe4:	528007e0 	mov	w0, #0x3f                  	// #63
   12fe8:	38001660 	strb	w0, [x19], #1
   12fec:	91000694 	add	x20, x20, #0x1
   12ff0:	a9486bf9 	ldp	x25, x26, [sp, #128]
   12ff4:	cb170273 	sub	x19, x19, x23
   12ff8:	a94973fb 	ldp	x27, x28, [sp, #144]
   12ffc:	17ffffc1 	b	12f00 <_obstack_memory_used@@Base+0x60c0>
   13000:	d2800002 	mov	x2, #0x0                   	// #0
   13004:	d503201f 	nop
   13008:	38626b84 	ldrb	w4, [x28, x2]
   1300c:	38226a64 	strb	w4, [x19, x2]
   13010:	91000442 	add	x2, x2, #0x1
   13014:	eb19005f 	cmp	x2, x25
   13018:	54ffff81 	b.ne	13008 <_obstack_memory_used@@Base+0x61c8>  // b.any
   1301c:	8b19039c 	add	x28, x28, x25
   13020:	8b190273 	add	x19, x19, x25
   13024:	8b20c294 	add	x20, x20, w0, sxtw
   13028:	17ffffdb 	b	12f94 <_obstack_memory_used@@Base+0x6154>
   1302c:	39400380 	ldrb	w0, [x28]
   13030:	d2800039 	mov	x25, #0x1                   	// #1
   13034:	b9002fe0 	str	w0, [sp, #44]
   13038:	97ffc276 	bl	3a10 <wcwidth@plt>
   1303c:	37fffa40 	tbnz	w0, #31, 12f84 <_obstack_memory_used@@Base+0x6144>
   13040:	39400382 	ldrb	w2, [x28]
   13044:	d2800039 	mov	x25, #0x1                   	// #1
   13048:	8b20c294 	add	x20, x20, w0, sxtw
   1304c:	8b19039c 	add	x28, x28, x25
   13050:	39000262 	strb	w2, [x19]
   13054:	8b190273 	add	x19, x19, x25
   13058:	17ffffcf 	b	12f94 <_obstack_memory_used@@Base+0x6154>
   1305c:	51009402 	sub	w2, w0, #0x25
   13060:	12001c42 	and	w2, w2, #0xff
   13064:	7100685f 	cmp	w2, #0x1a
   13068:	54ffed69 	b.ls	12e14 <_obstack_memory_used@@Base+0x5fd4>  // b.plast
   1306c:	17ffffba 	b	12f54 <_obstack_memory_used@@Base+0x6114>
   13070:	aa1303e1 	mov	x1, x19
   13074:	aa1703e0 	mov	x0, x23
   13078:	97fffe76 	bl	12a50 <_obstack_memory_used@@Base+0x5c10>
   1307c:	93407c14 	sxtw	x20, w0
   13080:	d00000e1 	adrp	x1, 31000 <obstack_alloc_failed_handler@@Base+0xd90>
   13084:	394a0020 	ldrb	w0, [x1, #640]
   13088:	3707e6c0 	tbnz	w0, #0, 12d60 <_obstack_memory_used@@Base+0x5f20>
   1308c:	17ffff1e 	b	12d04 <_obstack_memory_used@@Base+0x5ec4>
   13090:	528007e0 	mov	w0, #0x3f                  	// #63
   13094:	17ffff60 	b	12e14 <_obstack_memory_used@@Base+0x5fd4>
   13098:	aa1403e0 	mov	x0, x20
   1309c:	97ffc255 	bl	39f0 <malloc@plt>
   130a0:	aa0003f7 	mov	x23, x0
   130a4:	b5ffe800 	cbnz	x0, 12da4 <_obstack_memory_used@@Base+0x5f64>
   130a8:	a9086bf9 	stp	x25, x26, [sp, #128]
   130ac:	a90973fb 	stp	x27, x28, [sp, #144]
   130b0:	97ffe8e9 	bl	d454 <_obstack_memory_used@@Base+0x614>
   130b4:	91000661 	add	x1, x19, #0x1
   130b8:	f90003e1 	str	x1, [sp]
   130bc:	aa0103e0 	mov	x0, x1
   130c0:	97ffc24c 	bl	39f0 <malloc@plt>
   130c4:	aa0003f7 	mov	x23, x0
   130c8:	f94003e1 	ldr	x1, [sp]
   130cc:	b4ffff20 	cbz	x0, 130b0 <_obstack_memory_used@@Base+0x6270>
   130d0:	a9429ea6 	ldp	x6, x7, [x21, #40]
   130d4:	aa1b03e5 	mov	x5, x27
   130d8:	294012a3 	ldp	w3, w4, [x21]
   130dc:	aa1603e2 	mov	x2, x22
   130e0:	b9400395 	ldr	w21, [x28]
   130e4:	97fff863 	bl	11270 <_obstack_memory_used@@Base+0x4430>
   130e8:	b9000395 	str	w21, [x28]
   130ec:	17ffff67 	b	12e88 <_obstack_memory_used@@Base+0x6048>
   130f0:	d2800014 	mov	x20, #0x0                   	// #0
   130f4:	17ffff01 	b	12cf8 <_obstack_memory_used@@Base+0x5eb8>
   130f8:	d2800013 	mov	x19, #0x0                   	// #0
   130fc:	d2800014 	mov	x20, #0x0                   	// #0
   13100:	17ffff80 	b	12f00 <_obstack_memory_used@@Base+0x60c0>
   13104:	a9086bf9 	stp	x25, x26, [sp, #128]
   13108:	a90973fb 	stp	x27, x28, [sp, #144]
   1310c:	97ffc281 	bl	3b10 <__stack_chk_fail@plt>
   13110:	d503233f 	paciasp
   13114:	a9ba7bfd 	stp	x29, x30, [sp, #-96]!
   13118:	910003fd 	mov	x29, sp
   1311c:	a90153f3 	stp	x19, x20, [sp, #16]
   13120:	a9025bf5 	stp	x21, x22, [sp, #32]
   13124:	a90363f7 	stp	x23, x24, [sp, #48]
   13128:	a9046bf9 	stp	x25, x26, [sp, #64]
   1312c:	a90573fb 	stp	x27, x28, [sp, #80]
   13130:	d11403ff 	sub	sp, sp, #0x500
   13134:	f90203ff 	str	xzr, [sp, #1024]
   13138:	900000e8 	adrp	x8, 2f000 <_obstack_memory_used@@Base+0x221c0>
   1313c:	f947e908 	ldr	x8, [x8, #4048]
   13140:	aa0003fa 	mov	x26, x0
   13144:	12001c80 	and	w0, w4, #0xff
   13148:	b9001fe0 	str	w0, [sp, #28]
   1314c:	f90013e7 	str	x7, [sp, #32]
   13150:	aa0303f4 	mov	x20, x3
   13154:	b9002fe5 	str	w5, [sp, #44]
   13158:	aa0103f5 	mov	x21, x1
   1315c:	aa0203fc 	mov	x28, x2
   13160:	2a0603f3 	mov	w19, w6
   13164:	f9400100 	ldr	x0, [x8]
   13168:	f9027fe0 	str	x0, [sp, #1272]
   1316c:	d2800000 	mov	x0, #0x0                   	// #0
   13170:	97ffc324 	bl	3e00 <__errno_location@plt>
   13174:	aa0003f7 	mov	x23, x0
   13178:	f9401a99 	ldr	x25, [x20, #48]
   1317c:	d0000020 	adrp	x0, 19000 <_obstack_memory_used@@Base+0xc1c0>
   13180:	b94002e1 	ldr	w1, [x23]
   13184:	912a0000 	add	x0, x0, #0xa80
   13188:	b9400a98 	ldr	w24, [x20, #8]
   1318c:	f100033f 	cmp	x25, #0x0
   13190:	b9002be1 	str	w1, [sp, #40]
   13194:	9a990019 	csel	x25, x0, x25, eq	// eq = none
   13198:	7100331f 	cmp	w24, #0xc
   1319c:	5400072d 	b.le	13280 <_obstack_memory_used@@Base+0x6440>
   131a0:	51003318 	sub	w24, w24, #0xc
   131a4:	39400380 	ldrb	w0, [x28]
   131a8:	d280001b 	mov	x27, #0x0                   	// #0
   131ac:	340002e0 	cbz	w0, 13208 <_obstack_memory_used@@Base+0x63c8>
   131b0:	d2800036 	mov	x22, #0x1                   	// #1
   131b4:	7100941f 	cmp	w0, #0x25
   131b8:	540007e0 	b.eq	132b4 <_obstack_memory_used@@Base+0x6474>  // b.none
   131bc:	7100027f 	cmp	w19, #0x0
   131c0:	cb1b02a0 	sub	x0, x21, x27
   131c4:	1a9fa264 	csel	w4, w19, wzr, ge	// ge = tcont
   131c8:	93407c84 	sxtw	x4, w4
   131cc:	f100009f 	cmp	x4, #0x0
   131d0:	9a961083 	csel	x3, x4, x22, ne	// ne = any
   131d4:	eb00007f 	cmp	x3, x0
   131d8:	540002c2 	b.cs	13230 <_obstack_memory_used@@Base+0x63f0>  // b.hs, b.nlast
   131dc:	b40000ba 	cbz	x26, 131f0 <_obstack_memory_used@@Base+0x63b0>
   131e0:	7100067f 	cmp	w19, #0x1
   131e4:	5400056c 	b.gt	13290 <_obstack_memory_used@@Base+0x6450>
   131e8:	39400380 	ldrb	w0, [x28]
   131ec:	38001740 	strb	w0, [x26], #1
   131f0:	8b03037b 	add	x27, x27, x3
   131f4:	aa1c03ec 	mov	x12, x28
   131f8:	39400580 	ldrb	w0, [x12, #1]
   131fc:	9100059c 	add	x28, x12, #0x1
   13200:	12800013 	mov	w19, #0xffffffff            	// #-1
   13204:	35fffd80 	cbnz	w0, 131b4 <_obstack_memory_used@@Base+0x6374>
   13208:	f100035f 	cmp	x26, #0x0
   1320c:	fa401aa4 	ccmp	x21, #0x0, #0x4, ne	// ne = any
   13210:	54000040 	b.eq	13218 <_obstack_memory_used@@Base+0x63d8>  // b.none
   13214:	3900035f 	strb	wzr, [x26]
   13218:	b9402be0 	ldr	w0, [sp, #40]
   1321c:	b90002e0 	str	w0, [x23]
   13220:	14000007 	b	1323c <_obstack_memory_used@@Base+0x63fc>
   13224:	cb1b02a0 	sub	x0, x21, x27
   13228:	eb07001f 	cmp	x0, x7
   1322c:	54003488 	b.hi	138bc <_obstack_memory_used@@Base+0x6a7c>  // b.pmore
   13230:	52800440 	mov	w0, #0x22                  	// #34
   13234:	b90002e0 	str	w0, [x23]
   13238:	d280001b 	mov	x27, #0x0                   	// #0
   1323c:	900000e0 	adrp	x0, 2f000 <_obstack_memory_used@@Base+0x221c0>
   13240:	f947e800 	ldr	x0, [x0, #4048]
   13244:	f9427fe2 	ldr	x2, [sp, #1272]
   13248:	f9400001 	ldr	x1, [x0]
   1324c:	eb010042 	subs	x2, x2, x1
   13250:	d2800001 	mov	x1, #0x0                   	// #0
   13254:	5400c601 	b.ne	14b14 <_obstack_memory_used@@Base+0x7cd4>  // b.any
   13258:	911403ff 	add	sp, sp, #0x500
   1325c:	aa1b03e0 	mov	x0, x27
   13260:	a94153f3 	ldp	x19, x20, [sp, #16]
   13264:	a9425bf5 	ldp	x21, x22, [sp, #32]
   13268:	a94363f7 	ldp	x23, x24, [sp, #48]
   1326c:	a9446bf9 	ldp	x25, x26, [sp, #64]
   13270:	a94573fb 	ldp	x27, x28, [sp, #80]
   13274:	a8c67bfd 	ldp	x29, x30, [sp], #96
   13278:	d50323bf 	autiasp
   1327c:	d65f03c0 	ret
   13280:	7100031f 	cmp	w24, #0x0
   13284:	52800180 	mov	w0, #0xc                   	// #12
   13288:	1a801318 	csel	w24, w24, w0, ne	// ne = any
   1328c:	17ffffc6 	b	131a4 <_obstack_memory_used@@Base+0x6364>
   13290:	d1000493 	sub	x19, x4, #0x1
   13294:	aa1a03e0 	mov	x0, x26
   13298:	aa1303e2 	mov	x2, x19
   1329c:	52800401 	mov	w1, #0x20                  	// #32
   132a0:	f9001be3 	str	x3, [sp, #48]
   132a4:	97ffc1fb 	bl	3a90 <memset@plt>
   132a8:	f9401be3 	ldr	x3, [sp, #48]
   132ac:	8b13035a 	add	x26, x26, x19
   132b0:	17ffffce 	b	131e8 <_obstack_memory_used@@Base+0x63a8>
   132b4:	b9401fed 	ldr	w13, [sp, #28]
   132b8:	d284a003 	mov	x3, #0x2500                	// #9472
   132bc:	aa1c03ec 	mov	x12, x28
   132c0:	52800004 	mov	w4, #0x0                   	// #0
   132c4:	52800005 	mov	w5, #0x0                   	// #0
   132c8:	d2800026 	mov	x6, #0x1                   	// #1
   132cc:	f2e20003 	movk	x3, #0x1000, lsl #48
   132d0:	38401d81 	ldrb	w1, [x12, #1]!
   132d4:	51008c20 	sub	w0, w1, #0x23
   132d8:	12001c00 	and	w0, w0, #0xff
   132dc:	7100f01f 	cmp	w0, #0x3c
   132e0:	540001c8 	b.hi	13318 <_obstack_memory_used@@Base+0x64d8>  // b.pmore
   132e4:	9ac020c2 	lsl	x2, x6, x0
   132e8:	ea03005f 	tst	x2, x3
   132ec:	54000821 	b.ne	133f0 <_obstack_memory_used@@Base+0x65b0>  // b.any
   132f0:	7100ec1f 	cmp	w0, #0x3b
   132f4:	54000820 	b.eq	133f8 <_obstack_memory_used@@Base+0x65b8>  // b.none
   132f8:	12000040 	and	w0, w2, #0x1
   132fc:	360009a2 	tbz	w2, #0, 13430 <_obstack_memory_used@@Base+0x65f0>
   13300:	38401d81 	ldrb	w1, [x12, #1]!
   13304:	2a0003e4 	mov	w4, w0
   13308:	51008c20 	sub	w0, w1, #0x23
   1330c:	12001c00 	and	w0, w0, #0xff
   13310:	7100f01f 	cmp	w0, #0x3c
   13314:	54fffe89 	b.ls	132e4 <_obstack_memory_used@@Base+0x64a4>  // b.plast
   13318:	52800003 	mov	w3, #0x0                   	// #0
   1331c:	7101e83f 	cmp	w1, #0x7a
   13320:	540007c9 	b.ls	13418 <_obstack_memory_used@@Base+0x65d8>  // b.plast
   13324:	d503249f 	bti	j
   13328:	cb1c0183 	sub	x3, x12, x28
   1332c:	cb1b02a0 	sub	x0, x21, x27
   13330:	91000464 	add	x4, x3, #0x1
   13334:	7100b4bf 	cmp	w5, #0x2d
   13338:	54000640 	b.eq	13400 <_obstack_memory_used@@Base+0x65c0>  // b.none
   1333c:	37f80633 	tbnz	w19, #31, 13400 <_obstack_memory_used@@Base+0x65c0>
   13340:	93407e73 	sxtw	x19, w19
   13344:	eb13009f 	cmp	x4, x19
   13348:	9a932086 	csel	x6, x4, x19, cs	// cs = hs, nlast
   1334c:	eb0000df 	cmp	x6, x0
   13350:	54fff702 	b.cs	13230 <_obstack_memory_used@@Base+0x63f0>  // b.hs, b.nlast
   13354:	b40004ba 	cbz	x26, 133e8 <_obstack_memory_used@@Base+0x65a8>
   13358:	eb13009f 	cmp	x4, x19
   1335c:	54000262 	b.cs	133a8 <_obstack_memory_used@@Base+0x6568>  // b.hs, b.nlast
   13360:	a9030fec 	stp	x12, x3, [sp, #48]
   13364:	7100c0bf 	cmp	w5, #0x30
   13368:	cb040273 	sub	x19, x19, x4
   1336c:	f90023e4 	str	x4, [sp, #64]
   13370:	52800560 	mov	w0, #0x2b                  	// #43
   13374:	b9004bed 	str	w13, [sp, #72]
   13378:	7a4010a4 	ccmp	w5, w0, #0x4, ne	// ne = any
   1337c:	f9002be6 	str	x6, [sp, #80]
   13380:	aa1303e2 	mov	x2, x19
   13384:	540089c1 	b.ne	144bc <_obstack_memory_used@@Base+0x767c>  // b.any
   13388:	aa1a03e0 	mov	x0, x26
   1338c:	52800601 	mov	w1, #0x30                  	// #48
   13390:	97ffc1c0 	bl	3a90 <memset@plt>
   13394:	8b13035a 	add	x26, x26, x19
   13398:	a9430fec 	ldp	x12, x3, [sp, #48]
   1339c:	f94023e4 	ldr	x4, [sp, #64]
   133a0:	f9402be6 	ldr	x6, [sp, #80]
   133a4:	b9404bed 	ldr	w13, [sp, #72]
   133a8:	360007ad 	tbz	w13, #0, 1349c <_obstack_memory_used@@Base+0x665c>
   133ac:	aa0303f3 	mov	x19, x3
   133b0:	b40001a4 	cbz	x4, 133e4 <_obstack_memory_used@@Base+0x65a4>
   133b4:	a90313ec 	stp	x12, x4, [sp, #48]
   133b8:	f90023e6 	str	x6, [sp, #64]
   133bc:	97ffc1cd 	bl	3af0 <__ctype_toupper_loc@plt>
   133c0:	a94313ec 	ldp	x12, x4, [sp, #48]
   133c4:	f94023e6 	ldr	x6, [sp, #64]
   133c8:	f9400001 	ldr	x1, [x0]
   133cc:	38736b82 	ldrb	w2, [x28, x19]
   133d0:	b8627821 	ldr	w1, [x1, x2, lsl #2]
   133d4:	38336b41 	strb	w1, [x26, x19]
   133d8:	d1000673 	sub	x19, x19, #0x1
   133dc:	b100067f 	cmn	x19, #0x1
   133e0:	54ffff41 	b.ne	133c8 <_obstack_memory_used@@Base+0x6588>  // b.any
   133e4:	8b04035a 	add	x26, x26, x4
   133e8:	8b06037b 	add	x27, x27, x6
   133ec:	17ffff83 	b	131f8 <_obstack_memory_used@@Base+0x63b8>
   133f0:	2a0103e5 	mov	w5, w1
   133f4:	17ffffb7 	b	132d0 <_obstack_memory_used@@Base+0x6490>
   133f8:	5280002d 	mov	w13, #0x1                   	// #1
   133fc:	17ffffb5 	b	132d0 <_obstack_memory_used@@Base+0x6490>
   13400:	eb00009f 	cmp	x4, x0
   13404:	54fff162 	b.cs	13230 <_obstack_memory_used@@Base+0x63f0>  // b.hs, b.nlast
   13408:	aa0403e6 	mov	x6, x4
   1340c:	b4fffefa 	cbz	x26, 133e8 <_obstack_memory_used@@Base+0x65a8>
   13410:	3600046d 	tbz	w13, #0, 1349c <_obstack_memory_used@@Base+0x665c>
   13414:	17ffffe6 	b	133ac <_obstack_memory_used@@Base+0x656c>
   13418:	b0000040 	adrp	x0, 1c000 <_obstack_memory_used@@Base+0xf1c0>
   1341c:	91357000 	add	x0, x0, #0xd5c
   13420:	78615800 	ldrh	w0, [x0, w1, uxtw #1]
   13424:	10000062 	adr	x2, 13430 <_obstack_memory_used@@Base+0x65f0>
   13428:	8b20a840 	add	x0, x2, w0, sxth #2
   1342c:	d61f0000 	br	x0
   13430:	5100c020 	sub	w0, w1, #0x30
   13434:	7100241f 	cmp	w0, #0x9
   13438:	54000228 	b.hi	1347c <_obstack_memory_used@@Base+0x663c>  // b.pmore
   1343c:	52800013 	mov	w19, #0x0                   	// #0
   13440:	52800142 	mov	w2, #0xa                   	// #10
   13444:	d503201f 	nop
   13448:	9b227e60 	smull	x0, w19, w2
   1344c:	2a0003f3 	mov	w19, w0
   13450:	9360fc01 	asr	x1, x0, #32
   13454:	6b807c3f 	cmp	w1, w0, asr #31
   13458:	5400b4a1 	b.ne	14aec <_obstack_memory_used@@Base+0x7cac>  // b.any
   1345c:	39400180 	ldrb	w0, [x12]
   13460:	5100c000 	sub	w0, w0, #0x30
   13464:	2b000273 	adds	w19, w19, w0
   13468:	5400b426 	b.vs	14aec <_obstack_memory_used@@Base+0x7cac>
   1346c:	38401d81 	ldrb	w1, [x12, #1]!
   13470:	5100c020 	sub	w0, w1, #0x30
   13474:	7100241f 	cmp	w0, #0x9
   13478:	54fffe89 	b.ls	13448 <_obstack_memory_used@@Base+0x6608>  // b.plast
   1347c:	7101143f 	cmp	w1, #0x45
   13480:	54000060 	b.eq	1348c <_obstack_memory_used@@Base+0x664c>  // b.none
   13484:	71013c3f 	cmp	w1, #0x4f
   13488:	54fff481 	b.ne	13318 <_obstack_memory_used@@Base+0x64d8>  // b.any
   1348c:	2a0103e3 	mov	w3, w1
   13490:	9100058c 	add	x12, x12, #0x1
   13494:	39400181 	ldrb	w1, [x12]
   13498:	17ffffa1 	b	1331c <_obstack_memory_used@@Base+0x64dc>
   1349c:	aa0403e2 	mov	x2, x4
   134a0:	aa1a03e0 	mov	x0, x26
   134a4:	aa1c03e1 	mov	x1, x28
   134a8:	a90333e4 	stp	x4, x12, [sp, #48]
   134ac:	f90023e6 	str	x6, [sp, #64]
   134b0:	97ffc0c0 	bl	37b0 <memcpy@plt>
   134b4:	a94333e4 	ldp	x4, x12, [sp, #48]
   134b8:	f94023e6 	ldr	x6, [sp, #64]
   134bc:	8b04035a 	add	x26, x26, x4
   134c0:	17ffffca 	b	133e8 <_obstack_memory_used@@Base+0x65a8>
   134c4:	d503249f 	bti	j
   134c8:	71013c7f 	cmp	w3, #0x4f
   134cc:	54fff2c0 	b.eq	13324 <_obstack_memory_used@@Base+0x64e4>  // b.none
   134d0:	d503249f 	bti	j
   134d4:	52800004 	mov	w4, #0x0                   	// #0
   134d8:	5284a400 	mov	w0, #0x2520                	// #9504
   134dc:	7901e3e0 	strh	w0, [sp, #240]
   134e0:	9103cbe7 	add	x7, sp, #0xf2
   134e4:	35002243 	cbnz	w3, 1392c <_obstack_memory_used@@Base+0x6aec>
   134e8:	9103e3e6 	add	x6, sp, #0xf8
   134ec:	390000e1 	strb	w1, [x7]
   134f0:	390004ff 	strb	wzr, [x7, #1]
   134f4:	aa1403e3 	mov	x3, x20
   134f8:	aa0603e0 	mov	x0, x6
   134fc:	9103c3e2 	add	x2, sp, #0xf0
   13500:	d2808001 	mov	x1, #0x400                 	// #1024
   13504:	a9031bec 	stp	x12, x6, [sp, #48]
   13508:	b90043e4 	str	w4, [sp, #64]
   1350c:	b9004be5 	str	w5, [sp, #72]
   13510:	b90053ed 	str	w13, [sp, #80]
   13514:	97ffc0f7 	bl	38f0 <strftime@plt>
   13518:	f9401bec 	ldr	x12, [sp, #48]
   1351c:	aa0003fc 	mov	x28, x0
   13520:	b4ffe6c0 	cbz	x0, 131f8 <_obstack_memory_used@@Base+0x63b8>
   13524:	b9404be5 	ldr	w5, [sp, #72]
   13528:	d1000403 	sub	x3, x0, #0x1
   1352c:	f9401fe6 	ldr	x6, [sp, #56]
   13530:	cb1b02a0 	sub	x0, x21, x27
   13534:	b94043e4 	ldr	w4, [sp, #64]
   13538:	7100b4bf 	cmp	w5, #0x2d
   1353c:	b94053ed 	ldr	w13, [sp, #80]
   13540:	54007500 	b.eq	143e0 <_obstack_memory_used@@Base+0x75a0>  // b.none
   13544:	37f874f3 	tbnz	w19, #31, 143e0 <_obstack_memory_used@@Base+0x75a0>
   13548:	93407e73 	sxtw	x19, w19
   1354c:	eb13007f 	cmp	x3, x19
   13550:	9a932067 	csel	x7, x3, x19, cs	// cs = hs, nlast
   13554:	eb0000ff 	cmp	x7, x0
   13558:	54ffe6c2 	b.cs	13230 <_obstack_memory_used@@Base+0x63f0>  // b.hs, b.nlast
   1355c:	b400051a 	cbz	x26, 135fc <_obstack_memory_used@@Base+0x67bc>
   13560:	eb13007f 	cmp	x3, x19
   13564:	54000262 	b.cs	135b0 <_obstack_memory_used@@Base+0x6770>  // b.hs, b.nlast
   13568:	a9030fec 	stp	x12, x3, [sp, #48]
   1356c:	7100c0bf 	cmp	w5, #0x30
   13570:	cb030273 	sub	x19, x19, x3
   13574:	b90043e4 	str	w4, [sp, #64]
   13578:	52800560 	mov	w0, #0x2b                  	// #43
   1357c:	b9004bed 	str	w13, [sp, #72]
   13580:	7a4010a4 	ccmp	w5, w0, #0x4, ne	// ne = any
   13584:	a9051be7 	stp	x7, x6, [sp, #80]
   13588:	aa1303e2 	mov	x2, x19
   1358c:	54008221 	b.ne	145d0 <_obstack_memory_used@@Base+0x7790>  // b.any
   13590:	aa1a03e0 	mov	x0, x26
   13594:	52800601 	mov	w1, #0x30                  	// #48
   13598:	97ffc13e 	bl	3a90 <memset@plt>
   1359c:	8b13035a 	add	x26, x26, x19
   135a0:	a9430fec 	ldp	x12, x3, [sp, #48]
   135a4:	a9451be7 	ldp	x7, x6, [sp, #80]
   135a8:	b94043e4 	ldr	w4, [sp, #64]
   135ac:	b9404bed 	ldr	w13, [sp, #72]
   135b0:	37007e24 	tbnz	w4, #0, 14574 <_obstack_memory_used@@Base+0x7734>
   135b4:	f9001be6 	str	x6, [sp, #48]
   135b8:	3600794d 	tbz	w13, #0, 144e0 <_obstack_memory_used@@Base+0x76a0>
   135bc:	d1000b9c 	sub	x28, x28, #0x2
   135c0:	b40001c3 	cbz	x3, 135f8 <_obstack_memory_used@@Base+0x67b8>
   135c4:	a9038fec 	stp	x12, x3, [sp, #56]
   135c8:	f90027e7 	str	x7, [sp, #72]
   135cc:	97ffc149 	bl	3af0 <__ctype_toupper_loc@plt>
   135d0:	a94333e6 	ldp	x6, x12, [sp, #48]
   135d4:	a9441fe3 	ldp	x3, x7, [sp, #64]
   135d8:	8b1c00c2 	add	x2, x6, x28
   135dc:	f9400001 	ldr	x1, [x0]
   135e0:	39400442 	ldrb	w2, [x2, #1]
   135e4:	b8627821 	ldr	w1, [x1, x2, lsl #2]
   135e8:	383c6b41 	strb	w1, [x26, x28]
   135ec:	d100079c 	sub	x28, x28, #0x1
   135f0:	b100079f 	cmn	x28, #0x1
   135f4:	54ffff21 	b.ne	135d8 <_obstack_memory_used@@Base+0x6798>  // b.any
   135f8:	8b03035a 	add	x26, x26, x3
   135fc:	8b07037b 	add	x27, x27, x7
   13600:	17fffefe 	b	131f8 <_obstack_memory_used@@Base+0x63b8>
   13604:	d503249f 	bti	j
   13608:	7101147f 	cmp	w3, #0x45
   1360c:	54ffe8c0 	b.eq	13324 <_obstack_memory_used@@Base+0x64e4>  // b.none
   13610:	29429a82 	ldp	w2, w6, [x20, #20]
   13614:	52849260 	mov	w0, #0x2493                	// #9363
   13618:	b9401e8e 	ldr	w14, [x20, #28]
   1361c:	72b24920 	movk	w0, #0x9249, lsl #16
   13620:	7100005f 	cmp	w2, #0x0
   13624:	5280258f 	mov	w15, #0x12c                 	// #300
   13628:	4b0601c4 	sub	w4, w14, w6
   1362c:	12800c67 	mov	w7, #0xffffff9c            	// #-100
   13630:	1105f884 	add	w4, w4, #0x17e
   13634:	1a8fa0e7 	csel	w7, w7, w15, ge	// ge = tcont
   13638:	0b070047 	add	w7, w2, w7
   1363c:	9b207c80 	smull	x0, w4, w0
   13640:	d360fc00 	lsr	x0, x0, #32
   13644:	0b000080 	add	w0, w4, w0
   13648:	13027c00 	asr	w0, w0, #2
   1364c:	4b847c00 	sub	w0, w0, w4, asr #31
   13650:	531d700f 	lsl	w15, w0, #3
   13654:	4b0001e0 	sub	w0, w15, w0
   13658:	4b000080 	sub	w0, w4, w0
   1365c:	4b0001c0 	sub	w0, w14, w0
   13660:	31000c04 	adds	w4, w0, #0x3
   13664:	54008f04 	b.mi	14844 <_obstack_memory_used@@Base+0x7a04>  // b.first
   13668:	52802da0 	mov	w0, #0x16d                 	// #365
   1366c:	f24004ff 	tst	x7, #0x3
   13670:	54000241 	b.ne	136b8 <_obstack_memory_used@@Base+0x6878>  // b.any
   13674:	528b852f 	mov	w15, #0x5c29                	// #23593
   13678:	52970a11 	mov	w17, #0xb850                	// #47184
   1367c:	72b851ef 	movk	w15, #0xc28f, lsl #16
   13680:	72a0a3d1 	movk	w17, #0x51e, lsl #16
   13684:	528b8510 	mov	w16, #0x5c28                	// #23592
   13688:	52802dc0 	mov	w0, #0x16e                 	// #366
   1368c:	1b0f44ef 	madd	w15, w7, w15, w17
   13690:	72a051f0 	movk	w16, #0x28f, lsl #16
   13694:	138f09ef 	ror	w15, w15, #2
   13698:	6b1001ff 	cmp	w15, w16
   1369c:	540000e8 	b.hi	136b8 <_obstack_memory_used@@Base+0x6878>  // b.pmore
   136a0:	5280320f 	mov	w15, #0x190                 	// #400
   136a4:	1acf0ce0 	sdiv	w0, w7, w15
   136a8:	1b0f9c00 	msub	w0, w0, w15, w7
   136ac:	7100001f 	cmp	w0, #0x0
   136b0:	1a9f17e0 	cset	w0, eq	// eq = none
   136b4:	1105b400 	add	w0, w0, #0x16d
   136b8:	4b0001c0 	sub	w0, w14, w0
   136bc:	52849267 	mov	w7, #0x2493                	// #9363
   136c0:	4b060006 	sub	w6, w0, w6
   136c4:	72b24927 	movk	w7, #0x9249, lsl #16
   136c8:	1105f8c6 	add	w6, w6, #0x17e
   136cc:	9b277cc7 	smull	x7, w6, w7
   136d0:	d360fce7 	lsr	x7, x7, #32
   136d4:	0b0700c7 	add	w7, w6, w7
   136d8:	13027ce7 	asr	w7, w7, #2
   136dc:	4b867ce7 	sub	w7, w7, w6, asr #31
   136e0:	531d70ee 	lsl	w14, w7, #3
   136e4:	4b0701c7 	sub	w7, w14, w7
   136e8:	4b0700c6 	sub	w6, w6, w7
   136ec:	4b060000 	sub	w0, w0, w6
   136f0:	31000c00 	adds	w0, w0, #0x3
   136f4:	1a845000 	csel	w0, w0, w4, pl	// pl = nfrst
   136f8:	1a9f47e7 	cset	w7, pl	// pl = nfrst
   136fc:	71011c3f 	cmp	w1, #0x47
   13700:	54009140 	b.eq	14928 <_obstack_memory_used@@Base+0x7ae8>  // b.none
   13704:	71019c3f 	cmp	w1, #0x67
   13708:	54008fc1 	b.ne	14900 <_obstack_memory_used@@Base+0x7ac0>  // b.any
   1370c:	5290a3e0 	mov	w0, #0x851f                	// #34079
   13710:	52800c86 	mov	w6, #0x64                  	// #100
   13714:	72aa3d60 	movk	w0, #0x51eb, lsl #16
   13718:	9b207c44 	smull	x4, w2, w0
   1371c:	9365fc84 	asr	x4, x4, #37
   13720:	4b827c84 	sub	w4, w4, w2, asr #31
   13724:	1b068884 	msub	w4, w4, w6, w2
   13728:	0b070084 	add	w4, w4, w7
   1372c:	9b207c91 	smull	x17, w4, w0
   13730:	9365fe31 	asr	x17, x17, #37
   13734:	4b847e31 	sub	w17, w17, w4, asr #31
   13738:	1b069231 	msub	w17, w17, w6, w4
   1373c:	37f860d1 	tbnz	w17, #31, 14354 <_obstack_memory_used@@Base+0x7514>
   13740:	35006165 	cbnz	w5, 1436c <_obstack_memory_used@@Base+0x752c>
   13744:	b9402fe0 	ldr	w0, [sp, #44]
   13748:	7100ac1f 	cmp	w0, #0x2b
   1374c:	54006140 	b.eq	14374 <_obstack_memory_used@@Base+0x7534>  // b.none
   13750:	2a0003e5 	mov	w5, w0
   13754:	52800020 	mov	w0, #0x1                   	// #1
   13758:	5280000f 	mov	w15, #0x0                   	// #0
   1375c:	52800006 	mov	w6, #0x0                   	// #0
   13760:	5280005c 	mov	w28, #0x2                   	// #2
   13764:	52800002 	mov	w2, #0x0                   	// #0
   13768:	14000126 	b	13c00 <_obstack_memory_used@@Base+0x6dc0>
   1376c:	d503249f 	bti	j
   13770:	35ffdda3 	cbnz	w3, 13324 <_obstack_memory_used@@Base+0x64e4>
   13774:	36007c44 	tbz	w4, #0, 146fc <_obstack_memory_used@@Base+0x78bc>
   13778:	2a0403ed 	mov	w13, w4
   1377c:	5284a400 	mov	w0, #0x2520                	// #9504
   13780:	9103cbe7 	add	x7, sp, #0xf2
   13784:	52800004 	mov	w4, #0x0                   	// #0
   13788:	7901e3e0 	strh	w0, [sp, #240]
   1378c:	17ffff57 	b	134e8 <_obstack_memory_used@@Base+0x66a8>
   13790:	d503249f 	bti	j
   13794:	f240009f 	tst	x4, #0x1
   13798:	1a8401ad 	csel	w13, w13, w4, eq	// eq = none
   1379c:	7101147f 	cmp	w3, #0x45
   137a0:	54ffe981 	b.ne	134d0 <_obstack_memory_used@@Base+0x6690>  // b.any
   137a4:	17fffee0 	b	13324 <_obstack_memory_used@@Base+0x64e4>
   137a8:	d503249f 	bti	j
   137ac:	7101147f 	cmp	w3, #0x45
   137b0:	54000b80 	b.eq	13920 <_obstack_memory_used@@Base+0x6ae0>  // b.none
   137b4:	71013c7f 	cmp	w3, #0x4f
   137b8:	54ffdb60 	b.eq	13324 <_obstack_memory_used@@Base+0x64e4>  // b.none
   137bc:	b9401691 	ldr	w17, [x20, #20]
   137c0:	311db231 	adds	w17, w17, #0x76c
   137c4:	1a9fa7e6 	cset	w6, lt	// lt = tstop
   137c8:	35000045 	cbnz	w5, 137d0 <_obstack_memory_used@@Base+0x6990>
   137cc:	b9402fe5 	ldr	w5, [sp, #44]
   137d0:	7100acbf 	cmp	w5, #0x2b
   137d4:	54008ce0 	b.eq	14970 <_obstack_memory_used@@Base+0x7b30>  // b.none
   137d8:	52800002 	mov	w2, #0x0                   	// #0
   137dc:	5280000f 	mov	w15, #0x0                   	// #0
   137e0:	5280009c 	mov	w28, #0x4                   	// #4
   137e4:	d503201f 	nop
   137e8:	720000c6 	ands	w6, w6, #0x1
   137ec:	5a910631 	cneg	w17, w17, ne	// ne = any
   137f0:	91043fe7 	add	x7, sp, #0x10f
   137f4:	529999ae 	mov	w14, #0xcccd                	// #52429
   137f8:	aa0703e4 	mov	x4, x7
   137fc:	52800750 	mov	w16, #0x3a                  	// #58
   13800:	72b9998e 	movk	w14, #0xcccc, lsl #16
   13804:	14000002 	b	1380c <_obstack_memory_used@@Base+0x69cc>
   13808:	2a0103f1 	mov	w17, w1
   1380c:	aa0403e3 	mov	x3, x4
   13810:	36000062 	tbz	w2, #0, 1381c <_obstack_memory_used@@Base+0x69dc>
   13814:	d1000483 	sub	x3, x4, #0x1
   13818:	381ff090 	sturb	w16, [x4, #-1]
   1381c:	9bae7e21 	umull	x1, w17, w14
   13820:	13017c42 	asr	w2, w2, #1
   13824:	7100005f 	cmp	w2, #0x0
   13828:	d1000464 	sub	x4, x3, #0x1
   1382c:	7a490a22 	ccmp	w17, #0x9, #0x2, eq	// eq = none
   13830:	d363fc21 	lsr	x1, x1, #35
   13834:	0b010820 	add	w0, w1, w1, lsl #2
   13838:	4b000620 	sub	w0, w17, w0, lsl #1
   1383c:	1100c000 	add	w0, w0, #0x30
   13840:	381ff060 	sturb	w0, [x3, #-1]
   13844:	54fffe28 	b.hi	13808 <_obstack_memory_used@@Base+0x69c8>  // b.pmore
   13848:	34005e65 	cbz	w5, 14414 <_obstack_memory_used@@Base+0x75d4>
   1384c:	7100b4bf 	cmp	w5, #0x2d
   13850:	1a9f07e3 	cset	w3, ne	// ne = any
   13854:	7100027f 	cmp	w19, #0x0
   13858:	cb0400e7 	sub	x7, x7, x4
   1385c:	1a93b39c 	csel	w28, w28, w19, lt	// lt = tstop
   13860:	35005cc6 	cbnz	w6, 143f8 <_obstack_memory_used@@Base+0x75b8>
   13864:	34005def 	cbz	w15, 14420 <_obstack_memory_used@@Base+0x75e0>
   13868:	51000780 	sub	w0, w28, #0x1
   1386c:	52800573 	mov	w19, #0x2b                  	// #43
   13870:	4b070000 	sub	w0, w0, w7
   13874:	7100001f 	cmp	w0, #0x0
   13878:	7a40c864 	ccmp	w3, #0x0, #0x4, gt
   1387c:	1a9f1000 	csel	w0, w0, wzr, ne	// ne = any
   13880:	71017cbf 	cmp	w5, #0x5f
   13884:	54006b80 	b.eq	145f4 <_obstack_memory_used@@Base+0x77b4>  // b.none
   13888:	cb1b02a0 	sub	x0, x21, x27
   1388c:	f100041f 	cmp	x0, #0x1
   13890:	54ffcd09 	b.ls	13230 <_obstack_memory_used@@Base+0x63f0>  // b.plast
   13894:	b400005a 	cbz	x26, 1389c <_obstack_memory_used@@Base+0x6a5c>
   13898:	38001753 	strb	w19, [x26], #1
   1389c:	9100077b 	add	x27, x27, #0x1
   138a0:	93407ce7 	sxtw	x7, w7
   138a4:	5100079c 	sub	w28, w28, #0x1
   138a8:	34ffcbe3 	cbz	w3, 13224 <_obstack_memory_used@@Base+0x63e4>
   138ac:	cb1b02a3 	sub	x3, x21, x27
   138b0:	36f85c5c 	tbz	w28, #31, 14438 <_obstack_memory_used@@Base+0x75f8>
   138b4:	eb0300ff 	cmp	x7, x3
   138b8:	54ffcbc2 	b.cs	13230 <_obstack_memory_used@@Base+0x63f0>  // b.hs, b.nlast
   138bc:	aa0703fc 	mov	x28, x7
   138c0:	b400025a 	cbz	x26, 13908 <_obstack_memory_used@@Base+0x6ac8>
   138c4:	36005ecd 	tbz	w13, #0, 1449c <_obstack_memory_used@@Base+0x765c>
   138c8:	f9001be4 	str	x4, [sp, #48]
   138cc:	d10004f3 	sub	x19, x7, #0x1
   138d0:	b40001a7 	cbz	x7, 13904 <_obstack_memory_used@@Base+0x6ac4>
   138d4:	a9039fec 	stp	x12, x7, [sp, #56]
   138d8:	97ffc086 	bl	3af0 <__ctype_toupper_loc@plt>
   138dc:	a94333e4 	ldp	x4, x12, [sp, #48]
   138e0:	f94023e7 	ldr	x7, [sp, #64]
   138e4:	d503201f 	nop
   138e8:	f9400001 	ldr	x1, [x0]
   138ec:	38736882 	ldrb	w2, [x4, x19]
   138f0:	b8627821 	ldr	w1, [x1, x2, lsl #2]
   138f4:	38336b41 	strb	w1, [x26, x19]
   138f8:	d1000673 	sub	x19, x19, #0x1
   138fc:	b100067f 	cmn	x19, #0x1
   13900:	54ffff41 	b.ne	138e8 <_obstack_memory_used@@Base+0x6aa8>  // b.any
   13904:	8b07035a 	add	x26, x26, x7
   13908:	8b1c037b 	add	x27, x27, x28
   1390c:	17fffe3b 	b	131f8 <_obstack_memory_used@@Base+0x63b8>
   13910:	d503249f 	bti	j
   13914:	71013c7f 	cmp	w3, #0x4f
   13918:	54007341 	b.ne	14780 <_obstack_memory_used@@Base+0x7940>  // b.any
   1391c:	d503201f 	nop
   13920:	5284a400 	mov	w0, #0x2520                	// #9504
   13924:	52800004 	mov	w4, #0x0                   	// #0
   13928:	7901e3e0 	strh	w0, [sp, #240]
   1392c:	9103cfe7 	add	x7, sp, #0xf3
   13930:	3903cbe3 	strb	w3, [sp, #242]
   13934:	17fffeed 	b	134e8 <_obstack_memory_used@@Base+0x66a8>
   13938:	d503249f 	bti	j
   1393c:	cb1b02a0 	sub	x0, x21, x27
   13940:	7100b4bf 	cmp	w5, #0x2d
   13944:	54006980 	b.eq	14674 <_obstack_memory_used@@Base+0x7834>  // b.none
   13948:	37f86973 	tbnz	w19, #31, 14674 <_obstack_memory_used@@Base+0x7834>
   1394c:	93407e73 	sxtw	x19, w19
   13950:	d2800021 	mov	x1, #0x1                   	// #1
   13954:	f100027f 	cmp	x19, #0x0
   13958:	9a81127c 	csel	x28, x19, x1, ne	// ne = any
   1395c:	eb00039f 	cmp	x28, x0
   13960:	54ffc682 	b.cs	13230 <_obstack_memory_used@@Base+0x63f0>  // b.hs, b.nlast
   13964:	b4fffd3a 	cbz	x26, 13908 <_obstack_memory_used@@Base+0x6ac8>
   13968:	f100067f 	cmp	x19, #0x1
   1396c:	54008dc9 	b.ls	14b24 <_obstack_memory_used@@Base+0x7ce4>  // b.plast
   13970:	f9001bec 	str	x12, [sp, #48]
   13974:	7100c0bf 	cmp	w5, #0x30
   13978:	d1000673 	sub	x19, x19, #0x1
   1397c:	52800560 	mov	w0, #0x2b                  	// #43
   13980:	aa1303e2 	mov	x2, x19
   13984:	7a4010a4 	ccmp	w5, w0, #0x4, ne	// ne = any
   13988:	540084c1 	b.ne	14a20 <_obstack_memory_used@@Base+0x7be0>  // b.any
   1398c:	aa1a03e0 	mov	x0, x26
   13990:	52800601 	mov	w1, #0x30                  	// #48
   13994:	97ffc03f 	bl	3a90 <memset@plt>
   13998:	f9401bec 	ldr	x12, [sp, #48]
   1399c:	8b13035a 	add	x26, x26, x19
   139a0:	52800120 	mov	w0, #0x9                   	// #9
   139a4:	8b1c037b 	add	x27, x27, x28
   139a8:	38001740 	strb	w0, [x26], #1
   139ac:	17fffe13 	b	131f8 <_obstack_memory_used@@Base+0x63b8>
   139b0:	d503249f 	bti	j
   139b4:	ad400a81 	ldp	q1, q2, [x20]
   139b8:	9101c3e2 	add	x2, sp, #0x70
   139bc:	3dc00a80 	ldr	q0, [x20, #32]
   139c0:	1280001c 	mov	w28, #0xffffffff            	// #-1
   139c4:	f9401a80 	ldr	x0, [x20, #48]
   139c8:	f9001840 	str	x0, [x2, #48]
   139cc:	f94013e0 	ldr	x0, [sp, #32]
   139d0:	ad000841 	stp	q1, q2, [x2]
   139d4:	b9008ffc 	str	w28, [sp, #140]
   139d8:	3d800840 	str	q0, [x2, #32]
   139dc:	b40084c0 	cbz	x0, 14a74 <_obstack_memory_used@@Base+0x7c34>
   139e0:	f94013e0 	ldr	x0, [sp, #32]
   139e4:	f9001bec 	str	x12, [sp, #48]
   139e8:	b9003be5 	str	w5, [sp, #56]
   139ec:	b90043ed 	str	w13, [sp, #64]
   139f0:	f9002fe2 	str	x2, [sp, #88]
   139f4:	97ffe5fc 	bl	d1e4 <_obstack_memory_used@@Base+0x3a4>
   139f8:	f9002be0 	str	x0, [sp, #80]
   139fc:	f9401bec 	ldr	x12, [sp, #48]
   13a00:	b9403be5 	ldr	w5, [sp, #56]
   13a04:	b94043ed 	ldr	w13, [sp, #64]
   13a08:	b40003c0 	cbz	x0, 13a80 <_obstack_memory_used@@Base+0x6c40>
   13a0c:	3dc01fe1 	ldr	q1, [sp, #112]
   13a10:	9102c3e1 	add	x1, sp, #0xb0
   13a14:	b94093e4 	ldr	w4, [sp, #144]
   13a18:	aa0103e0 	mov	x0, x1
   13a1c:	fd4043e0 	ldr	d0, [sp, #128]
   13a20:	a90333e1 	stp	x1, x12, [sp, #48]
   13a24:	b90043e5 	str	w5, [sp, #64]
   13a28:	b9004bed 	str	w13, [sp, #72]
   13a2c:	3d802fe1 	str	q1, [sp, #176]
   13a30:	fd0063e0 	str	d0, [sp, #192]
   13a34:	291993fc 	stp	w28, w4, [sp, #204]
   13a38:	97ffc04e 	bl	3b70 <mktime@plt>
   13a3c:	b940cfe4 	ldr	w4, [sp, #204]
   13a40:	aa0003fc 	mov	x28, x0
   13a44:	a94333e1 	ldp	x1, x12, [sp, #48]
   13a48:	a9450be3 	ldp	x3, x2, [sp, #80]
   13a4c:	b94043e5 	ldr	w5, [sp, #64]
   13a50:	b9404bed 	ldr	w13, [sp, #72]
   13a54:	36f86ba4 	tbz	w4, #31, 147c8 <_obstack_memory_used@@Base+0x7988>
   13a58:	f100047f 	cmp	x3, #0x1
   13a5c:	54000120 	b.eq	13a80 <_obstack_memory_used@@Base+0x6c40>  // b.none
   13a60:	aa0303e0 	mov	x0, x3
   13a64:	f9001bec 	str	x12, [sp, #48]
   13a68:	b9003be5 	str	w5, [sp, #56]
   13a6c:	b90043ed 	str	w13, [sp, #64]
   13a70:	97ffe625 	bl	d304 <_obstack_memory_used@@Base+0x4c4>
   13a74:	f9401bec 	ldr	x12, [sp, #48]
   13a78:	b9403be5 	ldr	w5, [sp, #56]
   13a7c:	b94043ed 	ldr	w13, [sp, #64]
   13a80:	9280001c 	mov	x28, #0xffffffffffffffff    	// #-1
   13a84:	b9408fe0 	ldr	w0, [sp, #140]
   13a88:	37f88480 	tbnz	w0, #31, 14b18 <_obstack_memory_used@@Base+0x7cd8>
   13a8c:	d37fff86 	lsr	x6, x28, #63
   13a90:	91043fe7 	add	x7, sp, #0x10f
   13a94:	b203e7ef 	mov	x15, #0x6666666666666666    	// #7378697629483820646
   13a98:	12001cc6 	and	w6, w6, #0xff
   13a9c:	aa0703e4 	mov	x4, x7
   13aa0:	aa1c03e1 	mov	x1, x28
   13aa4:	f28cccef 	movk	x15, #0x6667
   13aa8:	5280060e 	mov	w14, #0x30                  	// #48
   13aac:	d503201f 	nop
   13ab0:	9b4f7c22 	smulh	x2, x1, x15
   13ab4:	937ffc23 	asr	x3, x1, #63
   13ab8:	f100039f 	cmp	x28, #0x0
   13abc:	9342fc42 	asr	x2, x2, #2
   13ac0:	cb030040 	sub	x0, x2, x3
   13ac4:	8b000800 	add	x0, x0, x0, lsl #2
   13ac8:	cb000420 	sub	x0, x1, x0, lsl #1
   13acc:	12001c01 	and	w1, w0, #0xff
   13ad0:	1100c021 	add	w1, w1, #0x30
   13ad4:	4b2001c0 	sub	w0, w14, w0, uxtb
   13ad8:	12001c21 	and	w1, w1, #0xff
   13adc:	12001c00 	and	w0, w0, #0xff
   13ae0:	1a80a020 	csel	w0, w1, w0, ge	// ge = tcont
   13ae4:	381ffc80 	strb	w0, [x4, #-1]!
   13ae8:	eb030041 	subs	x1, x2, x3
   13aec:	54fffe21 	b.ne	13ab0 <_obstack_memory_used@@Base+0x6c70>  // b.any
   13af0:	120000c6 	and	w6, w6, #0x1
   13af4:	5280000f 	mov	w15, #0x0                   	// #0
   13af8:	5280003c 	mov	w28, #0x1                   	// #1
   13afc:	17ffff53 	b	13848 <_obstack_memory_used@@Base+0x6a08>
   13b00:	d503249f 	bti	j
   13b04:	7101147f 	cmp	w3, #0x45
   13b08:	54ffc0e0 	b.eq	13324 <_obstack_memory_used@@Base+0x64e4>  // b.none
   13b0c:	72000080 	ands	w0, w4, #0x1
   13b10:	1a8d108d 	csel	w13, w4, w13, ne	// ne = any
   13b14:	1a9f0084 	csel	w4, w4, wzr, eq	// eq = none
   13b18:	17fffe70 	b	134d8 <_obstack_memory_used@@Base+0x6698>
   13b1c:	d503249f 	bti	j
   13b20:	39400580 	ldrb	w0, [x12, #1]
   13b24:	91000582 	add	x2, x12, #0x1
   13b28:	d2800027 	mov	x7, #0x1                   	// #1
   13b2c:	7100e81f 	cmp	w0, #0x3a
   13b30:	540044c0 	b.eq	143c8 <_obstack_memory_used@@Base+0x7588>  // b.none
   13b34:	7101e81f 	cmp	w0, #0x7a
   13b38:	54ffbf61 	b.ne	13324 <_obstack_memory_used@@Base+0x64e4>  // b.any
   13b3c:	aa0203ec 	mov	x12, x2
   13b40:	b9402280 	ldr	w0, [x20, #32]
   13b44:	37ffb5a0 	tbnz	w0, #31, 131f8 <_obstack_memory_used@@Base+0x63b8>
   13b48:	f940168e 	ldr	x14, [x20, #40]
   13b4c:	52800026 	mov	w6, #0x1                   	// #1
   13b50:	710001df 	cmp	w14, #0x0
   13b54:	540000cb 	b.lt	13b6c <_obstack_memory_used@@Base+0x6d2c>  // b.tstop
   13b58:	52800006 	mov	w6, #0x0                   	// #0
   13b5c:	54000081 	b.ne	13b6c <_obstack_memory_used@@Base+0x6d2c>  // b.any
   13b60:	39400320 	ldrb	w0, [x25]
   13b64:	7100b41f 	cmp	w0, #0x2d
   13b68:	1a9f17e6 	cset	w6, eq	// eq = none
   13b6c:	52911122 	mov	w2, #0x8889                	// #34953
   13b70:	131f7dc4 	asr	w4, w14, #31
   13b74:	72b11102 	movk	w2, #0x8888, lsl #16
   13b78:	529678b1 	mov	w17, #0xb3c5                	// #46021
   13b7c:	72b23451 	movk	w17, #0x91a2, lsl #16
   13b80:	9b227dc0 	smull	x0, w14, w2
   13b84:	9b317dd1 	smull	x17, w14, w17
   13b88:	d360fc00 	lsr	x0, x0, #32
   13b8c:	0b0e0000 	add	w0, w0, w14
   13b90:	d360fe31 	lsr	x17, x17, #32
   13b94:	0b0e0231 	add	w17, w17, w14
   13b98:	13057c00 	asr	w0, w0, #5
   13b9c:	4b040000 	sub	w0, w0, w4
   13ba0:	130b7e31 	asr	w17, w17, #11
   13ba4:	4b040231 	sub	w17, w17, w4
   13ba8:	531c6c04 	lsl	w4, w0, #4
   13bac:	9b227c02 	smull	x2, w0, w2
   13bb0:	4b000084 	sub	w4, w4, w0
   13bb4:	4b0409c4 	sub	w4, w14, w4, lsl #2
   13bb8:	d360fc42 	lsr	x2, x2, #32
   13bbc:	0b020002 	add	w2, w0, w2
   13bc0:	13057c42 	asr	w2, w2, #5
   13bc4:	4b807c42 	sub	w2, w2, w0, asr #31
   13bc8:	531c6c4e 	lsl	w14, w2, #4
   13bcc:	4b0201c2 	sub	w2, w14, w2
   13bd0:	4b020802 	sub	w2, w0, w2, lsl #2
   13bd4:	f10008ff 	cmp	x7, #0x2
   13bd8:	54006e20 	b.eq	1499c <_obstack_memory_used@@Base+0x7b5c>  // b.none
   13bdc:	54006d08 	b.hi	1497c <_obstack_memory_used@@Base+0x7b3c>  // b.pmore
   13be0:	b40076e7 	cbz	x7, 14abc <_obstack_memory_used@@Base+0x7c7c>
   13be4:	52800c84 	mov	w4, #0x64                  	// #100
   13be8:	520000c0 	eor	w0, w6, #0x1
   13bec:	5280002f 	mov	w15, #0x1                   	// #1
   13bf0:	528000dc 	mov	w28, #0x6                   	// #6
   13bf4:	1b040a31 	madd	w17, w17, w4, w2
   13bf8:	52800082 	mov	w2, #0x4                   	// #4
   13bfc:	d503201f 	nop
   13c00:	71013c7f 	cmp	w3, #0x4f
   13c04:	7a400804 	ccmp	w0, #0x0, #0x4, eq	// eq = none
   13c08:	54ffe8c1 	b.ne	13920 <_obstack_memory_used@@Base+0x6ae0>  // b.any
   13c0c:	17fffef7 	b	137e8 <_obstack_memory_used@@Base+0x69a8>
   13c10:	d503249f 	bti	j
   13c14:	d1000580 	sub	x0, x12, #0x1
   13c18:	eb1c001f 	cmp	x0, x28
   13c1c:	54005780 	b.eq	1470c <_obstack_memory_used@@Base+0x78cc>  // b.none
   13c20:	aa0003ec 	mov	x12, x0
   13c24:	17fffdc0 	b	13324 <_obstack_memory_used@@Base+0x64e4>
   13c28:	d503249f 	bti	j
   13c2c:	cb1b02a0 	sub	x0, x21, x27
   13c30:	7100b4bf 	cmp	w5, #0x2d
   13c34:	54005380 	b.eq	146a4 <_obstack_memory_used@@Base+0x7864>  // b.none
   13c38:	37f85373 	tbnz	w19, #31, 146a4 <_obstack_memory_used@@Base+0x7864>
   13c3c:	93407e73 	sxtw	x19, w19
   13c40:	d2800021 	mov	x1, #0x1                   	// #1
   13c44:	f100027f 	cmp	x19, #0x0
   13c48:	9a81127c 	csel	x28, x19, x1, ne	// ne = any
   13c4c:	eb00039f 	cmp	x28, x0
   13c50:	54ffaf02 	b.cs	13230 <_obstack_memory_used@@Base+0x63f0>  // b.hs, b.nlast
   13c54:	b4ffe5ba 	cbz	x26, 13908 <_obstack_memory_used@@Base+0x6ac8>
   13c58:	f100067f 	cmp	x19, #0x1
   13c5c:	540076c9 	b.ls	14b34 <_obstack_memory_used@@Base+0x7cf4>  // b.plast
   13c60:	f9001bec 	str	x12, [sp, #48]
   13c64:	7100c0bf 	cmp	w5, #0x30
   13c68:	d1000673 	sub	x19, x19, #0x1
   13c6c:	52800560 	mov	w0, #0x2b                  	// #43
   13c70:	aa1303e2 	mov	x2, x19
   13c74:	7a4010a4 	ccmp	w5, w0, #0x4, ne	// ne = any
   13c78:	54006e41 	b.ne	14a40 <_obstack_memory_used@@Base+0x7c00>  // b.any
   13c7c:	aa1a03e0 	mov	x0, x26
   13c80:	52800601 	mov	w1, #0x30                  	// #48
   13c84:	97ffbf83 	bl	3a90 <memset@plt>
   13c88:	f9401bec 	ldr	x12, [sp, #48]
   13c8c:	8b13035a 	add	x26, x26, x19
   13c90:	52800140 	mov	w0, #0xa                   	// #10
   13c94:	8b1c037b 	add	x27, x27, x28
   13c98:	38001740 	strb	w0, [x26], #1
   13c9c:	17fffd57 	b	131f8 <_obstack_memory_used@@Base+0x63b8>
   13ca0:	d503249f 	bti	j
   13ca4:	7101147f 	cmp	w3, #0x45
   13ca8:	54ffb3e0 	b.eq	13324 <_obstack_memory_used@@Base+0x64e4>  // b.none
   13cac:	b9401291 	ldr	w17, [x20, #16]
   13cb0:	52800002 	mov	w2, #0x0                   	// #0
   13cb4:	5280000f 	mov	w15, #0x0                   	// #0
   13cb8:	5280005c 	mov	w28, #0x2                   	// #2
   13cbc:	31000631 	adds	w17, w17, #0x1
   13cc0:	1a9fa7e6 	cset	w6, lt	// lt = tstop
   13cc4:	1a9fb7e0 	cset	w0, ge	// ge = tcont
   13cc8:	17ffffce 	b	13c00 <_obstack_memory_used@@Base+0x6dc0>
   13ccc:	d503249f 	bti	j
   13cd0:	2a1803e6 	mov	w6, w24
   13cd4:	7101147f 	cmp	w3, #0x45
   13cd8:	54ffb260 	b.eq	13324 <_obstack_memory_used@@Base+0x64e4>  // b.none
   13cdc:	5280005c 	mov	w28, #0x2                   	// #2
   13ce0:	35000045 	cbnz	w5, 13ce8 <_obstack_memory_used@@Base+0x6ea8>
   13ce4:	52800be5 	mov	w5, #0x5f                  	// #95
   13ce8:	2a0603f1 	mov	w17, w6
   13cec:	52800002 	mov	w2, #0x0                   	// #0
   13cf0:	2a3103e0 	mvn	w0, w17
   13cf4:	531f7cc6 	lsr	w6, w6, #31
   13cf8:	5280000f 	mov	w15, #0x0                   	// #0
   13cfc:	531f7c00 	lsr	w0, w0, #31
   13d00:	17ffffc0 	b	13c00 <_obstack_memory_used@@Base+0x6dc0>
   13d04:	d503249f 	bti	j
   13d08:	35ffb0e3 	cbnz	w3, 13324 <_obstack_memory_used@@Base+0x64e4>
   13d0c:	710000bf 	cmp	w5, #0x0
   13d10:	7a400a60 	ccmp	w19, #0x0, #0x0, eq	// eq = none
   13d14:	54003fab 	b.lt	14508 <_obstack_memory_used@@Base+0x76c8>  // b.tstop
   13d18:	71001a66 	subs	w6, w19, #0x6
   13d1c:	b000005c 	adrp	x28, 1c000 <_obstack_memory_used@@Base+0xf1c0>
   13d20:	1a9f50c6 	csel	w6, w6, wzr, pl	// pl = nfrst
   13d24:	9129439c 	add	x28, x28, #0xa50
   13d28:	f94013e7 	ldr	x7, [sp, #32]
   13d2c:	2a0d03e4 	mov	w4, w13
   13d30:	b94563e0 	ldr	w0, [sp, #1376]
   13d34:	aa1403e3 	mov	x3, x20
   13d38:	b90003e0 	str	w0, [sp]
   13d3c:	aa1c03e2 	mov	x2, x28
   13d40:	92800001 	mov	x1, #0xffffffffffffffff    	// #-1
   13d44:	d2800000 	mov	x0, #0x0                   	// #0
   13d48:	b90033ed 	str	w13, [sp, #48]
   13d4c:	b9003be5 	str	w5, [sp, #56]
   13d50:	b90043e6 	str	w6, [sp, #64]
   13d54:	f90027ec 	str	x12, [sp, #72]
   13d58:	97fffcee 	bl	13110 <_obstack_memory_used@@Base+0x62d0>
   13d5c:	b9403be5 	ldr	w5, [sp, #56]
   13d60:	cb1b02a3 	sub	x3, x21, x27
   13d64:	f94027ec 	ldr	x12, [sp, #72]
   13d68:	aa0003ee 	mov	x14, x0
   13d6c:	b94033ed 	ldr	w13, [sp, #48]
   13d70:	7100b4bf 	cmp	w5, #0x2d
   13d74:	b94043e6 	ldr	w6, [sp, #64]
   13d78:	54003f20 	b.eq	1455c <_obstack_memory_used@@Base+0x771c>  // b.none
   13d7c:	37f83f13 	tbnz	w19, #31, 1455c <_obstack_memory_used@@Base+0x771c>
   13d80:	93407e60 	sxtw	x0, w19
   13d84:	eb0001df 	cmp	x14, x0
   13d88:	9a8021d3 	csel	x19, x14, x0, cs	// cs = hs, nlast
   13d8c:	eb03027f 	cmp	x19, x3
   13d90:	54ffa502 	b.cs	13230 <_obstack_memory_used@@Base+0x63f0>  // b.hs, b.nlast
   13d94:	b400049a 	cbz	x26, 13e24 <_obstack_memory_used@@Base+0x6fe4>
   13d98:	eb0001df 	cmp	x14, x0
   13d9c:	540002c2 	b.cs	13df4 <_obstack_memory_used@@Base+0x6fb4>  // b.hs, b.nlast
   13da0:	cb0e0002 	sub	x2, x0, x14
   13da4:	a90333e2 	stp	x2, x12, [sp, #48]
   13da8:	7100c0bf 	cmp	w5, #0x30
   13dac:	b90043e6 	str	w6, [sp, #64]
   13db0:	52800560 	mov	w0, #0x2b                  	// #43
   13db4:	f90027ee 	str	x14, [sp, #72]
   13db8:	7a4010a4 	ccmp	w5, w0, #0x4, ne	// ne = any
   13dbc:	b90053e5 	str	w5, [sp, #80]
   13dc0:	b9005bed 	str	w13, [sp, #88]
   13dc4:	f90033e3 	str	x3, [sp, #96]
   13dc8:	54004861 	b.ne	146d4 <_obstack_memory_used@@Base+0x7894>  // b.any
   13dcc:	aa1a03e0 	mov	x0, x26
   13dd0:	52800601 	mov	w1, #0x30                  	// #48
   13dd4:	97ffbf2f 	bl	3a90 <memset@plt>
   13dd8:	a94333e2 	ldp	x2, x12, [sp, #48]
   13ddc:	f94027ee 	ldr	x14, [sp, #72]
   13de0:	f94033e3 	ldr	x3, [sp, #96]
   13de4:	b94043e6 	ldr	w6, [sp, #64]
   13de8:	b94053e5 	ldr	w5, [sp, #80]
   13dec:	b9405bed 	ldr	w13, [sp, #88]
   13df0:	8b02035a 	add	x26, x26, x2
   13df4:	f94013e7 	ldr	x7, [sp, #32]
   13df8:	aa0303e1 	mov	x1, x3
   13dfc:	b94563e0 	ldr	w0, [sp, #1376]
   13e00:	2a0d03e4 	mov	w4, w13
   13e04:	b90003e0 	str	w0, [sp]
   13e08:	aa1c03e2 	mov	x2, x28
   13e0c:	aa1a03e0 	mov	x0, x26
   13e10:	aa1403e3 	mov	x3, x20
   13e14:	a9033bec 	stp	x12, x14, [sp, #48]
   13e18:	97fffcbe 	bl	13110 <_obstack_memory_used@@Base+0x62d0>
   13e1c:	a9433bec 	ldp	x12, x14, [sp, #48]
   13e20:	8b0e035a 	add	x26, x26, x14
   13e24:	8b13037b 	add	x27, x27, x19
   13e28:	17fffcf4 	b	131f8 <_obstack_memory_used@@Base+0x63b8>
   13e2c:	d503249f 	bti	j
   13e30:	35ffa7a3 	cbnz	w3, 13324 <_obstack_memory_used@@Base+0x64e4>
   13e34:	b000005c 	adrp	x28, 1c000 <_obstack_memory_used@@Base+0xf1c0>
   13e38:	12800006 	mov	w6, #0xffffffff            	// #-1
   13e3c:	9129039c 	add	x28, x28, #0xa40
   13e40:	17ffffba 	b	13d28 <_obstack_memory_used@@Base+0x6ee8>
   13e44:	d503249f 	bti	j
   13e48:	7101147f 	cmp	w3, #0x45
   13e4c:	54ffd6a0 	b.eq	13920 <_obstack_memory_used@@Base+0x6ae0>  // b.none
   13e50:	b9401680 	ldr	w0, [x20, #20]
   13e54:	12800c42 	mov	w2, #0xffffff9d            	// #-99
   13e58:	311db004 	adds	w4, w0, #0x76c
   13e5c:	1a9fa7e6 	cset	w6, lt	// lt = tstop
   13e60:	711dac9f 	cmp	w4, #0x76b
   13e64:	1a9f9042 	csel	w2, w2, wzr, ls	// ls = plast
   13e68:	5290a3e4 	mov	w4, #0x851f                	// #34079
   13e6c:	0b000042 	add	w2, w2, w0
   13e70:	72aa3d64 	movk	w4, #0x51eb, lsl #16
   13e74:	311db01f 	cmn	w0, #0x76c
   13e78:	1a9fb7e0 	cset	w0, ge	// ge = tcont
   13e7c:	9b247c44 	smull	x4, w2, w4
   13e80:	9365fc84 	asr	x4, x4, #37
   13e84:	4b827c82 	sub	w2, w4, w2, asr #31
   13e88:	11004c51 	add	w17, w2, #0x13
   13e8c:	35004945 	cbnz	w5, 147b4 <_obstack_memory_used@@Base+0x7974>
   13e90:	b9402fe2 	ldr	w2, [sp, #44]
   13e94:	7100ac5f 	cmp	w2, #0x2b
   13e98:	54004920 	b.eq	147bc <_obstack_memory_used@@Base+0x797c>  // b.none
   13e9c:	b9402fe5 	ldr	w5, [sp, #44]
   13ea0:	5280000f 	mov	w15, #0x0                   	// #0
   13ea4:	5280005c 	mov	w28, #0x2                   	// #2
   13ea8:	52800002 	mov	w2, #0x0                   	// #0
   13eac:	17ffff55 	b	13c00 <_obstack_memory_used@@Base+0x6dc0>
   13eb0:	d503249f 	bti	j
   13eb4:	7101147f 	cmp	w3, #0x45
   13eb8:	54ffa360 	b.eq	13324 <_obstack_memory_used@@Base+0x64e4>  // b.none
   13ebc:	7100027f 	cmp	w19, #0x0
   13ec0:	528ccce2 	mov	w2, #0x6667                	// #26215
   13ec4:	5280013c 	mov	w28, #0x9                   	// #9
   13ec8:	b94563e1 	ldr	w1, [sp, #1376]
   13ecc:	1a9cc273 	csel	w19, w19, w28, gt
   13ed0:	72acccc2 	movk	w2, #0x6666, lsl #16
   13ed4:	14000005 	b	13ee8 <_obstack_memory_used@@Base+0x70a8>
   13ed8:	9b227c20 	smull	x0, w1, w2
   13edc:	5100079c 	sub	w28, w28, #0x1
   13ee0:	9362fc00 	asr	x0, x0, #34
   13ee4:	4b030001 	sub	w1, w0, w3
   13ee8:	131f7c23 	asr	w3, w1, #31
   13eec:	6b13039f 	cmp	w28, w19
   13ef0:	54ffff4c 	b.gt	13ed8 <_obstack_memory_used@@Base+0x7098>
   13ef4:	9b227c20 	smull	x0, w1, w2
   13ef8:	9362fc00 	asr	x0, x0, #34
   13efc:	4b030000 	sub	w0, w0, w3
   13f00:	0b000800 	add	w0, w0, w0, lsl #2
   13f04:	4b000420 	sub	w0, w1, w0, lsl #1
   13f08:	7100079f 	cmp	w28, #0x1
   13f0c:	540044e0 	b.eq	147a8 <_obstack_memory_used@@Base+0x7968>  // b.none
   13f10:	34fffe40 	cbz	w0, 13ed8 <_obstack_memory_used@@Base+0x7098>
   13f14:	93407f84 	sxtw	x4, w28
   13f18:	aa0403e2 	mov	x2, x4
   13f1c:	528cccee 	mov	w14, #0x6667                	// #26215
   13f20:	9103e3e6 	add	x6, sp, #0xf8
   13f24:	72acccce 	movk	w14, #0x6666, lsl #16
   13f28:	14000002 	b	13f30 <_obstack_memory_used@@Base+0x70f0>
   13f2c:	131f7c23 	asr	w3, w1, #31
   13f30:	9b2e7c20 	smull	x0, w1, w14
   13f34:	8b0400c7 	add	x7, x6, x4
   13f38:	d1000484 	sub	x4, x4, #0x1
   13f3c:	9362fc00 	asr	x0, x0, #34
   13f40:	4b030000 	sub	w0, w0, w3
   13f44:	0b000803 	add	w3, w0, w0, lsl #2
   13f48:	4b030423 	sub	w3, w1, w3, lsl #1
   13f4c:	2a0003e1 	mov	w1, w0
   13f50:	1100c060 	add	w0, w3, #0x30
   13f54:	381ff0e0 	sturb	w0, [x7, #-1]
   13f58:	35fffea4 	cbnz	w4, 13f2c <_obstack_memory_used@@Base+0x70ec>
   13f5c:	cb1b02a0 	sub	x0, x21, x27
   13f60:	eb00005f 	cmp	x2, x0
   13f64:	35004bc5 	cbnz	w5, 148dc <_obstack_memory_used@@Base+0x7a9c>
   13f68:	54ff9642 	b.cs	13230 <_obstack_memory_used@@Base+0x63f0>  // b.hs, b.nlast
   13f6c:	52800605 	mov	w5, #0x30                  	// #48
   13f70:	b40021ba 	cbz	x26, 143a4 <_obstack_memory_used@@Base+0x7564>
   13f74:	3600570d 	tbz	w13, #0, 14a54 <_obstack_memory_used@@Base+0x7c14>
   13f78:	f9001bec 	str	x12, [sp, #48]
   13f7c:	b9003be5 	str	w5, [sp, #56]
   13f80:	a9041be2 	stp	x2, x6, [sp, #64]
   13f84:	97ffbedb 	bl	3af0 <__ctype_toupper_loc@plt>
   13f88:	b9403be5 	ldr	w5, [sp, #56]
   13f8c:	a9441be2 	ldp	x2, x6, [sp, #64]
   13f90:	aa0003e4 	mov	x4, x0
   13f94:	f9401bec 	ldr	x12, [sp, #48]
   13f98:	91000747 	add	x7, x26, #0x1
   13f9c:	d1000840 	sub	x0, x2, #0x2
   13fa0:	8b0000c3 	add	x3, x6, x0
   13fa4:	f9400081 	ldr	x1, [x4]
   13fa8:	39400463 	ldrb	w3, [x3, #1]
   13fac:	b8637821 	ldr	w1, [x1, x3, lsl #2]
   13fb0:	382068e1 	strb	w1, [x7, x0]
   13fb4:	d1000400 	sub	x0, x0, #0x1
   13fb8:	b100081f 	cmn	x0, #0x2
   13fbc:	54ffff21 	b.ne	13fa0 <_obstack_memory_used@@Base+0x7160>  // b.any
   13fc0:	8b02035a 	add	x26, x26, x2
   13fc4:	8b02037b 	add	x27, x27, x2
   13fc8:	7100b4bf 	cmp	w5, #0x2d
   13fcc:	54005340 	b.eq	14a34 <_obstack_memory_used@@Base+0x7bf4>  // b.none
   13fd0:	4b1c027c 	sub	w28, w19, w28
   13fd4:	cb1b02a3 	sub	x3, x21, x27
   13fd8:	93407f9c 	sxtw	x28, w28
   13fdc:	eb03039f 	cmp	x28, x3
   13fe0:	54ff9282 	b.cs	13230 <_obstack_memory_used@@Base+0x63f0>  // b.hs, b.nlast
   13fe4:	b4001eda 	cbz	x26, 143bc <_obstack_memory_used@@Base+0x757c>
   13fe8:	b4ff909c 	cbz	x28, 131f8 <_obstack_memory_used@@Base+0x63b8>
   13fec:	f9001bec 	str	x12, [sp, #48]
   13ff0:	7100c0bf 	cmp	w5, #0x30
   13ff4:	52800560 	mov	w0, #0x2b                  	// #43
   13ff8:	aa1c03e2 	mov	x2, x28
   13ffc:	7a4010a4 	ccmp	w5, w0, #0x4, ne	// ne = any
   14000:	540056c1 	b.ne	14ad8 <_obstack_memory_used@@Base+0x7c98>  // b.any
   14004:	aa1a03e0 	mov	x0, x26
   14008:	52800601 	mov	w1, #0x30                  	// #48
   1400c:	97ffbea1 	bl	3a90 <memset@plt>
   14010:	f9401bec 	ldr	x12, [sp, #48]
   14014:	8b1c035a 	add	x26, x26, x28
   14018:	8b1c037b 	add	x27, x27, x28
   1401c:	17fffc77 	b	131f8 <_obstack_memory_used@@Base+0x63b8>
   14020:	d503249f 	bti	j
   14024:	7101147f 	cmp	w3, #0x45
   14028:	54ff97e0 	b.eq	13324 <_obstack_memory_used@@Base+0x64e4>  // b.none
   1402c:	b9400686 	ldr	w6, [x20, #4]
   14030:	5280005c 	mov	w28, #0x2                   	// #2
   14034:	17ffff2d 	b	13ce8 <_obstack_memory_used@@Base+0x6ea8>
   14038:	d503249f 	bti	j
   1403c:	7101147f 	cmp	w3, #0x45
   14040:	54ff9720 	b.eq	13324 <_obstack_memory_used@@Base+0x64e4>  // b.none
   14044:	2a1803e6 	mov	w6, w24
   14048:	5280005c 	mov	w28, #0x2                   	// #2
   1404c:	17ffff27 	b	13ce8 <_obstack_memory_used@@Base+0x6ea8>
   14050:	d503249f 	bti	j
   14054:	7101147f 	cmp	w3, #0x45
   14058:	54ff9660 	b.eq	13324 <_obstack_memory_used@@Base+0x64e4>  // b.none
   1405c:	b9400a86 	ldr	w6, [x20, #8]
   14060:	5280005c 	mov	w28, #0x2                   	// #2
   14064:	17ffff21 	b	13ce8 <_obstack_memory_used@@Base+0x6ea8>
   14068:	d503249f 	bti	j
   1406c:	7101147f 	cmp	w3, #0x45
   14070:	54ff95a0 	b.eq	13324 <_obstack_memory_used@@Base+0x64e4>  // b.none
   14074:	b9401a86 	ldr	w6, [x20, #24]
   14078:	5280003c 	mov	w28, #0x1                   	// #1
   1407c:	17ffff1b 	b	13ce8 <_obstack_memory_used@@Base+0x6ea8>
   14080:	d503249f 	bti	j
   14084:	b9401a80 	ldr	w0, [x20, #24]
   14088:	52849262 	mov	w2, #0x2493                	// #9363
   1408c:	72b24922 	movk	w2, #0x9249, lsl #16
   14090:	5280003c 	mov	w28, #0x1                   	// #1
   14094:	11001800 	add	w0, w0, #0x6
   14098:	9b227c02 	smull	x2, w0, w2
   1409c:	d360fc42 	lsr	x2, x2, #32
   140a0:	0b020002 	add	w2, w0, w2
   140a4:	13027c42 	asr	w2, w2, #2
   140a8:	4b807c42 	sub	w2, w2, w0, asr #31
   140ac:	531d7044 	lsl	w4, w2, #3
   140b0:	4b020082 	sub	w2, w4, w2
   140b4:	4b020006 	sub	w6, w0, w2
   140b8:	0b1c00c6 	add	w6, w6, w28
   140bc:	17ffff0b 	b	13ce8 <_obstack_memory_used@@Base+0x6ea8>
   140c0:	d503249f 	bti	j
   140c4:	d100058c 	sub	x12, x12, #0x1
   140c8:	17fffc97 	b	13324 <_obstack_memory_used@@Base+0x64e4>
   140cc:	d503249f 	bti	j
   140d0:	7101147f 	cmp	w3, #0x45
   140d4:	54ff9280 	b.eq	13324 <_obstack_memory_used@@Base+0x64e4>  // b.none
   140d8:	29431a84 	ldp	w4, w6, [x20, #24]
   140dc:	52849260 	mov	w0, #0x2493                	// #9363
   140e0:	72b24920 	movk	w0, #0x9249, lsl #16
   140e4:	5280005c 	mov	w28, #0x2                   	// #2
   140e8:	11001884 	add	w4, w4, #0x6
   140ec:	9b207c82 	smull	x2, w4, w0
   140f0:	d360fc42 	lsr	x2, x2, #32
   140f4:	0b020082 	add	w2, w4, w2
   140f8:	13027c42 	asr	w2, w2, #2
   140fc:	4b847c42 	sub	w2, w2, w4, asr #31
   14100:	531d7047 	lsl	w7, w2, #3
   14104:	4b0200e2 	sub	w2, w7, w2
   14108:	4b020084 	sub	w4, w4, w2
   1410c:	4b0400c6 	sub	w6, w6, w4
   14110:	11001cc6 	add	w6, w6, #0x7
   14114:	9b207cc0 	smull	x0, w6, w0
   14118:	d360fc00 	lsr	x0, x0, #32
   1411c:	0b0000c0 	add	w0, w6, w0
   14120:	13027c00 	asr	w0, w0, #2
   14124:	4b867c06 	sub	w6, w0, w6, asr #31
   14128:	17fffef0 	b	13ce8 <_obstack_memory_used@@Base+0x6ea8>
   1412c:	d503249f 	bti	j
   14130:	7101147f 	cmp	w3, #0x45
   14134:	54ff8f80 	b.eq	13324 <_obstack_memory_used@@Base+0x64e4>  // b.none
   14138:	29431a82 	ldp	w2, w6, [x20, #24]
   1413c:	52849260 	mov	w0, #0x2493                	// #9363
   14140:	72b24920 	movk	w0, #0x9249, lsl #16
   14144:	5280005c 	mov	w28, #0x2                   	// #2
   14148:	4b0200c6 	sub	w6, w6, w2
   1414c:	17fffff1 	b	14110 <_obstack_memory_used@@Base+0x72d0>
   14150:	d503249f 	bti	j
   14154:	7101147f 	cmp	w3, #0x45
   14158:	54ff8e60 	b.eq	13324 <_obstack_memory_used@@Base+0x64e4>  // b.none
   1415c:	b9400286 	ldr	w6, [x20]
   14160:	5280005c 	mov	w28, #0x2                   	// #2
   14164:	17fffee1 	b	13ce8 <_obstack_memory_used@@Base+0x6ea8>
   14168:	d503249f 	bti	j
   1416c:	7101147f 	cmp	w3, #0x45
   14170:	54ff8da0 	b.eq	13324 <_obstack_memory_used@@Base+0x64e4>  // b.none
   14174:	b9400a86 	ldr	w6, [x20, #8]
   14178:	17fffed9 	b	13cdc <_obstack_memory_used@@Base+0x6e9c>
   1417c:	d503249f 	bti	j
   14180:	7101147f 	cmp	w3, #0x45
   14184:	54ff8d00 	b.eq	13324 <_obstack_memory_used@@Base+0x64e4>  // b.none
   14188:	b9401e91 	ldr	w17, [x20, #28]
   1418c:	52800002 	mov	w2, #0x0                   	// #0
   14190:	5280000f 	mov	w15, #0x0                   	// #0
   14194:	5280007c 	mov	w28, #0x3                   	// #3
   14198:	31000631 	adds	w17, w17, #0x1
   1419c:	1a9fa7e6 	cset	w6, lt	// lt = tstop
   141a0:	1a9fb7e0 	cset	w0, ge	// ge = tcont
   141a4:	17fffe97 	b	13c00 <_obstack_memory_used@@Base+0x6dc0>
   141a8:	d503249f 	bti	j
   141ac:	7101147f 	cmp	w3, #0x45
   141b0:	54ff8ba0 	b.eq	13324 <_obstack_memory_used@@Base+0x64e4>  // b.none
   141b4:	b9400e86 	ldr	w6, [x20, #12]
   141b8:	17fffec9 	b	13cdc <_obstack_memory_used@@Base+0x6e9c>
   141bc:	d503249f 	bti	j
   141c0:	7101147f 	cmp	w3, #0x45
   141c4:	54ff8b00 	b.eq	13324 <_obstack_memory_used@@Base+0x64e4>  // b.none
   141c8:	b9400e86 	ldr	w6, [x20, #12]
   141cc:	5280005c 	mov	w28, #0x2                   	// #2
   141d0:	17fffec6 	b	13ce8 <_obstack_memory_used@@Base+0x6ea8>
   141d4:	d503249f 	bti	j
   141d8:	7101147f 	cmp	w3, #0x45
   141dc:	54ffba20 	b.eq	13920 <_obstack_memory_used@@Base+0x6ae0>  // b.none
   141e0:	b9401680 	ldr	w0, [x20, #20]
   141e4:	5290a3f1 	mov	w17, #0x851f                	// #34079
   141e8:	72aa3d71 	movk	w17, #0x51eb, lsl #16
   141ec:	52800c82 	mov	w2, #0x64                  	// #100
   141f0:	9b317c11 	smull	x17, w0, w17
   141f4:	9365fe31 	asr	x17, x17, #37
   141f8:	4b807e31 	sub	w17, w17, w0, asr #31
   141fc:	1b028231 	msub	w17, w17, w2, w0
   14200:	36ffaa11 	tbz	w17, #31, 13740 <_obstack_memory_used@@Base+0x6900>
   14204:	311db41f 	cmn	w0, #0x76d
   14208:	0b020220 	add	w0, w17, w2
   1420c:	5a91c411 	csneg	w17, w0, w17, gt
   14210:	17fffd4c 	b	13740 <_obstack_memory_used@@Base+0x6900>
   14214:	d503249f 	bti	j
   14218:	7200009c 	ands	w28, w4, #0x1
   1421c:	aa1903e0 	mov	x0, x25
   14220:	1a9f01ad 	csel	w13, w13, wzr, eq	// eq = none
   14224:	b90033ed 	str	w13, [sp, #48]
   14228:	f9001fec 	str	x12, [sp, #56]
   1422c:	b90043e5 	str	w5, [sp, #64]
   14230:	97ffbd74 	bl	3800 <strlen@plt>
   14234:	aa0003e3 	mov	x3, x0
   14238:	b94043e5 	ldr	w5, [sp, #64]
   1423c:	cb1b02a1 	sub	x1, x21, x27
   14240:	f9401fec 	ldr	x12, [sp, #56]
   14244:	7100b4bf 	cmp	w5, #0x2d
   14248:	b94033ed 	ldr	w13, [sp, #48]
   1424c:	54002200 	b.eq	1468c <_obstack_memory_used@@Base+0x784c>  // b.none
   14250:	37f821f3 	tbnz	w19, #31, 1468c <_obstack_memory_used@@Base+0x784c>
   14254:	93407e60 	sxtw	x0, w19
   14258:	eb00007f 	cmp	x3, x0
   1425c:	9a802073 	csel	x19, x3, x0, cs	// cs = hs, nlast
   14260:	eb01027f 	cmp	x19, x1
   14264:	54ff7e62 	b.cs	13230 <_obstack_memory_used@@Base+0x63f0>  // b.hs, b.nlast
   14268:	b4ffddfa 	cbz	x26, 13e24 <_obstack_memory_used@@Base+0x6fe4>
   1426c:	eb00007f 	cmp	x3, x0
   14270:	54000202 	b.cs	142b0 <_obstack_memory_used@@Base+0x7470>  // b.hs, b.nlast
   14274:	cb030002 	sub	x2, x0, x3
   14278:	a90333e2 	stp	x2, x12, [sp, #48]
   1427c:	7100c0bf 	cmp	w5, #0x30
   14280:	f90023e3 	str	x3, [sp, #64]
   14284:	52800560 	mov	w0, #0x2b                  	// #43
   14288:	b9004bed 	str	w13, [sp, #72]
   1428c:	7a4010a4 	ccmp	w5, w0, #0x4, ne	// ne = any
   14290:	54004061 	b.ne	14a9c <_obstack_memory_used@@Base+0x7c5c>  // b.any
   14294:	aa1a03e0 	mov	x0, x26
   14298:	52800601 	mov	w1, #0x30                  	// #48
   1429c:	97ffbdfd 	bl	3a90 <memset@plt>
   142a0:	a94333e2 	ldp	x2, x12, [sp, #48]
   142a4:	f94023e3 	ldr	x3, [sp, #64]
   142a8:	b9404bed 	ldr	w13, [sp, #72]
   142ac:	8b02035a 	add	x26, x26, x2
   142b0:	350038bc 	cbnz	w28, 149c4 <_obstack_memory_used@@Base+0x7b84>
   142b4:	36003a6d 	tbz	w13, #0, 14a00 <_obstack_memory_used@@Base+0x7bc0>
   142b8:	d100047c 	sub	x28, x3, #0x1
   142bc:	b4000183 	cbz	x3, 142ec <_obstack_memory_used@@Base+0x74ac>
   142c0:	a9030fec 	stp	x12, x3, [sp, #48]
   142c4:	97ffbe0b 	bl	3af0 <__ctype_toupper_loc@plt>
   142c8:	aa0003e2 	mov	x2, x0
   142cc:	a9430fec 	ldp	x12, x3, [sp, #48]
   142d0:	f9400040 	ldr	x0, [x2]
   142d4:	387c6b21 	ldrb	w1, [x25, x28]
   142d8:	b8617800 	ldr	w0, [x0, x1, lsl #2]
   142dc:	383c6b40 	strb	w0, [x26, x28]
   142e0:	d100079c 	sub	x28, x28, #0x1
   142e4:	b100079f 	cmn	x28, #0x1
   142e8:	54ffff41 	b.ne	142d0 <_obstack_memory_used@@Base+0x7490>  // b.any
   142ec:	8b03035a 	add	x26, x26, x3
   142f0:	8b13037b 	add	x27, x27, x19
   142f4:	17fffbc1 	b	131f8 <_obstack_memory_used@@Base+0x63b8>
   142f8:	d503249f 	bti	j
   142fc:	d2800007 	mov	x7, #0x0                   	// #0
   14300:	17fffe10 	b	13b40 <_obstack_memory_used@@Base+0x6d00>
   14304:	d503249f 	bti	j
   14308:	9000005c 	adrp	x28, 1c000 <_obstack_memory_used@@Base+0xf1c0>
   1430c:	12800006 	mov	w6, #0xffffffff            	// #-1
   14310:	9129a39c 	add	x28, x28, #0xa68
   14314:	17fffe85 	b	13d28 <_obstack_memory_used@@Base+0x6ee8>
   14318:	d503249f 	bti	j
   1431c:	52800022 	mov	w2, #0x1                   	// #1
   14320:	72000080 	ands	w0, w4, #0x1
   14324:	52800e01 	mov	w1, #0x70                  	// #112
   14328:	1a821084 	csel	w4, w4, w2, ne	// ne = any
   1432c:	1a9f01ad 	csel	w13, w13, wzr, eq	// eq = none
   14330:	17fffc6a 	b	134d8 <_obstack_memory_used@@Base+0x6698>
   14334:	d503249f 	bti	j
   14338:	9000005c 	adrp	x28, 1c000 <_obstack_memory_used@@Base+0xf1c0>
   1433c:	12800006 	mov	w6, #0xffffffff            	// #-1
   14340:	9129839c 	add	x28, x28, #0xa60
   14344:	17fffe79 	b	13d28 <_obstack_memory_used@@Base+0x6ee8>
   14348:	d503249f 	bti	j
   1434c:	52800002 	mov	w2, #0x0                   	// #0
   14350:	17fffff4 	b	14320 <_obstack_memory_used@@Base+0x74e0>
   14354:	1280ed60 	mov	w0, #0xfffff894            	// #-1900
   14358:	4b070000 	sub	w0, w0, w7
   1435c:	6b00005f 	cmp	w2, w0
   14360:	54003d4a 	b.ge	14b08 <_obstack_memory_used@@Base+0x7cc8>  // b.tcont
   14364:	4b1103f1 	neg	w17, w17
   14368:	34ff9ee5 	cbz	w5, 13744 <_obstack_memory_used@@Base+0x6904>
   1436c:	7100acbf 	cmp	w5, #0x2b
   14370:	54ff9f21 	b.ne	13754 <_obstack_memory_used@@Base+0x6914>  // b.any
   14374:	52800006 	mov	w6, #0x0                   	// #0
   14378:	5280005c 	mov	w28, #0x2                   	// #2
   1437c:	52800c60 	mov	w0, #0x63                  	// #99
   14380:	6b11001f 	cmp	w0, w17
   14384:	52800565 	mov	w5, #0x2b                  	// #43
   14388:	1a9f27ef 	cset	w15, cc	// cc = lo, ul, last
   1438c:	6b1c027f 	cmp	w19, w28
   14390:	1a9fd7e2 	cset	w2, gt
   14394:	520000c0 	eor	w0, w6, #0x1
   14398:	2a0201ef 	orr	w15, w15, w2
   1439c:	52800002 	mov	w2, #0x0                   	// #0
   143a0:	17fffe18 	b	13c00 <_obstack_memory_used@@Base+0x6dc0>
   143a4:	8b02037b 	add	x27, x27, x2
   143a8:	4b1c0273 	sub	w19, w19, w28
   143ac:	cb1b02a0 	sub	x0, x21, x27
   143b0:	93407e7c 	sxtw	x28, w19
   143b4:	eb33c01f 	cmp	x0, w19, sxtw
   143b8:	54ff73c9 	b.ls	13230 <_obstack_memory_used@@Base+0x63f0>  // b.plast
   143bc:	8b1c037b 	add	x27, x27, x28
   143c0:	d280001a 	mov	x26, #0x0                   	// #0
   143c4:	17fffb8d 	b	131f8 <_obstack_memory_used@@Base+0x63b8>
   143c8:	910004e7 	add	x7, x7, #0x1
   143cc:	38676980 	ldrb	w0, [x12, x7]
   143d0:	7100e81f 	cmp	w0, #0x3a
   143d4:	54ffffa0 	b.eq	143c8 <_obstack_memory_used@@Base+0x7588>  // b.none
   143d8:	8b070182 	add	x2, x12, x7
   143dc:	17fffdd6 	b	13b34 <_obstack_memory_used@@Base+0x6cf4>
   143e0:	eb00007f 	cmp	x3, x0
   143e4:	54ff7262 	b.cs	13230 <_obstack_memory_used@@Base+0x63f0>  // b.hs, b.nlast
   143e8:	aa0303e7 	mov	x7, x3
   143ec:	b5ff8e3a 	cbnz	x26, 135b0 <_obstack_memory_used@@Base+0x6770>
   143f0:	8b07037b 	add	x27, x27, x7
   143f4:	17fffb81 	b	131f8 <_obstack_memory_used@@Base+0x63b8>
   143f8:	51000780 	sub	w0, w28, #0x1
   143fc:	528005b3 	mov	w19, #0x2d                  	// #45
   14400:	4b070000 	sub	w0, w0, w7
   14404:	7100001f 	cmp	w0, #0x0
   14408:	7a40c864 	ccmp	w3, #0x0, #0x4, gt
   1440c:	1a9f1000 	csel	w0, w0, wzr, ne	// ne = any
   14410:	17fffd1c 	b	13880 <_obstack_memory_used@@Base+0x6a40>
   14414:	52800023 	mov	w3, #0x1                   	// #1
   14418:	52800605 	mov	w5, #0x30                  	// #48
   1441c:	17fffd0e 	b	13854 <_obstack_memory_used@@Base+0x6a14>
   14420:	4b070380 	sub	w0, w28, w7
   14424:	7100001f 	cmp	w0, #0x0
   14428:	7a40c864 	ccmp	w3, #0x0, #0x4, gt
   1442c:	54000ca0 	b.eq	145c0 <_obstack_memory_used@@Base+0x7780>  // b.none
   14430:	93407ce7 	sxtw	x7, w7
   14434:	cb1b02a3 	sub	x3, x21, x27
   14438:	93407f80 	sxtw	x0, w28
   1443c:	eb07001f 	cmp	x0, x7
   14440:	9a87201c 	csel	x28, x0, x7, cs	// cs = hs, nlast
   14444:	eb03039f 	cmp	x28, x3
   14448:	54ff6f42 	b.cs	13230 <_obstack_memory_used@@Base+0x63f0>  // b.hs, b.nlast
   1444c:	b4ffa5fa 	cbz	x26, 13908 <_obstack_memory_used@@Base+0x6ac8>
   14450:	eb07001f 	cmp	x0, x7
   14454:	54ffa389 	b.ls	138c4 <_obstack_memory_used@@Base+0x6a84>  // b.plast
   14458:	a90313ec 	stp	x12, x4, [sp, #48]
   1445c:	cb070013 	sub	x19, x0, x7
   14460:	7100c0bf 	cmp	w5, #0x30
   14464:	b90043ed 	str	w13, [sp, #64]
   14468:	52800560 	mov	w0, #0x2b                  	// #43
   1446c:	f90027e7 	str	x7, [sp, #72]
   14470:	7a4010a4 	ccmp	w5, w0, #0x4, ne	// ne = any
   14474:	aa1303e2 	mov	x2, x19
   14478:	54000ee1 	b.ne	14654 <_obstack_memory_used@@Base+0x7814>  // b.any
   1447c:	aa1a03e0 	mov	x0, x26
   14480:	52800601 	mov	w1, #0x30                  	// #48
   14484:	97ffbd83 	bl	3a90 <memset@plt>
   14488:	8b13035a 	add	x26, x26, x19
   1448c:	a94313ec 	ldp	x12, x4, [sp, #48]
   14490:	f94027e7 	ldr	x7, [sp, #72]
   14494:	b94043ed 	ldr	w13, [sp, #64]
   14498:	17fffd0b 	b	138c4 <_obstack_memory_used@@Base+0x6a84>
   1449c:	aa0703e2 	mov	x2, x7
   144a0:	aa1a03e0 	mov	x0, x26
   144a4:	aa0403e1 	mov	x1, x4
   144a8:	a90333e7 	stp	x7, x12, [sp, #48]
   144ac:	97ffbcc1 	bl	37b0 <memcpy@plt>
   144b0:	a94333e7 	ldp	x7, x12, [sp, #48]
   144b4:	8b07035a 	add	x26, x26, x7
   144b8:	17fffd14 	b	13908 <_obstack_memory_used@@Base+0x6ac8>
   144bc:	aa1a03e0 	mov	x0, x26
   144c0:	52800401 	mov	w1, #0x20                  	// #32
   144c4:	97ffbd73 	bl	3a90 <memset@plt>
   144c8:	8b13035a 	add	x26, x26, x19
   144cc:	a9430fec 	ldp	x12, x3, [sp, #48]
   144d0:	f94023e4 	ldr	x4, [sp, #64]
   144d4:	f9402be6 	ldr	x6, [sp, #80]
   144d8:	b9404bed 	ldr	w13, [sp, #72]
   144dc:	17fffbb3 	b	133a8 <_obstack_memory_used@@Base+0x6568>
   144e0:	aa0303e2 	mov	x2, x3
   144e4:	aa1a03e0 	mov	x0, x26
   144e8:	9103e7e1 	add	x1, sp, #0xf9
   144ec:	a90333e3 	stp	x3, x12, [sp, #48]
   144f0:	f90023e7 	str	x7, [sp, #64]
   144f4:	97ffbcaf 	bl	37b0 <memcpy@plt>
   144f8:	a94333e3 	ldp	x3, x12, [sp, #48]
   144fc:	f94023e7 	ldr	x7, [sp, #64]
   14500:	8b03035a 	add	x26, x26, x3
   14504:	17fffc3e 	b	135fc <_obstack_memory_used@@Base+0x67bc>
   14508:	f94013e7 	ldr	x7, [sp, #32]
   1450c:	9000005c 	adrp	x28, 1c000 <_obstack_memory_used@@Base+0xf1c0>
   14510:	b94563e0 	ldr	w0, [sp, #1376]
   14514:	9129439c 	add	x28, x28, #0xa50
   14518:	b90003e0 	str	w0, [sp]
   1451c:	2a0d03e4 	mov	w4, w13
   14520:	aa1403e3 	mov	x3, x20
   14524:	52800086 	mov	w6, #0x4                   	// #4
   14528:	52800565 	mov	w5, #0x2b                  	// #43
   1452c:	aa1c03e2 	mov	x2, x28
   14530:	92800001 	mov	x1, #0xffffffffffffffff    	// #-1
   14534:	d2800000 	mov	x0, #0x0                   	// #0
   14538:	b90033ed 	str	w13, [sp, #48]
   1453c:	f9001fec 	str	x12, [sp, #56]
   14540:	97fffaf4 	bl	13110 <_obstack_memory_used@@Base+0x62d0>
   14544:	f9401fec 	ldr	x12, [sp, #56]
   14548:	aa0003ee 	mov	x14, x0
   1454c:	b94033ed 	ldr	w13, [sp, #48]
   14550:	cb1b02a3 	sub	x3, x21, x27
   14554:	52800086 	mov	w6, #0x4                   	// #4
   14558:	52800565 	mov	w5, #0x2b                  	// #43
   1455c:	eb0301df 	cmp	x14, x3
   14560:	54ff6682 	b.cs	13230 <_obstack_memory_used@@Base+0x63f0>  // b.hs, b.nlast
   14564:	aa0e03f3 	mov	x19, x14
   14568:	b5ffc47a 	cbnz	x26, 13df4 <_obstack_memory_used@@Base+0x6fb4>
   1456c:	8b13037b 	add	x27, x27, x19
   14570:	17fffb22 	b	131f8 <_obstack_memory_used@@Base+0x63b8>
   14574:	f90027e6 	str	x6, [sp, #72]
   14578:	d1000b9c 	sub	x28, x28, #0x2
   1457c:	b4ff83e3 	cbz	x3, 135f8 <_obstack_memory_used@@Base+0x67b8>
   14580:	a9030fec 	stp	x12, x3, [sp, #48]
   14584:	f90023e7 	str	x7, [sp, #64]
   14588:	97ffbcf6 	bl	3960 <__ctype_tolower_loc@plt>
   1458c:	a9430fec 	ldp	x12, x3, [sp, #48]
   14590:	a9441be7 	ldp	x7, x6, [sp, #64]
   14594:	d503201f 	nop
   14598:	8b1c00c2 	add	x2, x6, x28
   1459c:	f9400001 	ldr	x1, [x0]
   145a0:	39400442 	ldrb	w2, [x2, #1]
   145a4:	b8627821 	ldr	w1, [x1, x2, lsl #2]
   145a8:	383c6b41 	strb	w1, [x26, x28]
   145ac:	d100079c 	sub	x28, x28, #0x1
   145b0:	b100079f 	cmn	x28, #0x1
   145b4:	54ffff21 	b.ne	14598 <_obstack_memory_used@@Base+0x7758>  // b.any
   145b8:	8b03035a 	add	x26, x26, x3
   145bc:	17fffc10 	b	135fc <_obstack_memory_used@@Base+0x67bc>
   145c0:	93407ce7 	sxtw	x7, w7
   145c4:	34ff6303 	cbz	w3, 13224 <_obstack_memory_used@@Base+0x63e4>
   145c8:	cb1b02a3 	sub	x3, x21, x27
   145cc:	17ffff9b 	b	14438 <_obstack_memory_used@@Base+0x75f8>
   145d0:	aa1a03e0 	mov	x0, x26
   145d4:	52800401 	mov	w1, #0x20                  	// #32
   145d8:	97ffbd2e 	bl	3a90 <memset@plt>
   145dc:	8b13035a 	add	x26, x26, x19
   145e0:	a9430fec 	ldp	x12, x3, [sp, #48]
   145e4:	a9451be7 	ldp	x7, x6, [sp, #80]
   145e8:	b94043e4 	ldr	w4, [sp, #64]
   145ec:	b9404bed 	ldr	w13, [sp, #72]
   145f0:	17fffbf0 	b	135b0 <_obstack_memory_used@@Base+0x6770>
   145f4:	93407c02 	sxtw	x2, w0
   145f8:	b90033e3 	str	w3, [sp, #48]
   145fc:	8b02037b 	add	x27, x27, x2
   14600:	4b00039c 	sub	w28, w28, w0
   14604:	cb1b02a6 	sub	x6, x21, x27
   14608:	b40005ba 	cbz	x26, 146bc <_obstack_memory_used@@Base+0x787c>
   1460c:	aa1a03e0 	mov	x0, x26
   14610:	52800401 	mov	w1, #0x20                  	// #32
   14614:	a903b3e2 	stp	x2, x12, [sp, #56]
   14618:	f90027e4 	str	x4, [sp, #72]
   1461c:	b90053e5 	str	w5, [sp, #80]
   14620:	b9005bed 	str	w13, [sp, #88]
   14624:	a9061fe6 	stp	x6, x7, [sp, #96]
   14628:	97ffbd1a 	bl	3a90 <memset@plt>
   1462c:	b94033e3 	ldr	w3, [sp, #48]
   14630:	a943b3e2 	ldp	x2, x12, [sp, #56]
   14634:	a9461fe6 	ldp	x6, x7, [sp, #96]
   14638:	f94027e4 	ldr	x4, [sp, #72]
   1463c:	b94053e5 	ldr	w5, [sp, #80]
   14640:	8b02035a 	add	x26, x26, x2
   14644:	b9405bed 	ldr	w13, [sp, #88]
   14648:	f10004df 	cmp	x6, #0x1
   1464c:	54ff9268 	b.hi	13898 <_obstack_memory_used@@Base+0x6a58>  // b.pmore
   14650:	17fffaf8 	b	13230 <_obstack_memory_used@@Base+0x63f0>
   14654:	aa1a03e0 	mov	x0, x26
   14658:	52800401 	mov	w1, #0x20                  	// #32
   1465c:	97ffbd0d 	bl	3a90 <memset@plt>
   14660:	8b13035a 	add	x26, x26, x19
   14664:	a94313ec 	ldp	x12, x4, [sp, #48]
   14668:	f94027e7 	ldr	x7, [sp, #72]
   1466c:	b94043ed 	ldr	w13, [sp, #64]
   14670:	17fffc95 	b	138c4 <_obstack_memory_used@@Base+0x6a84>
   14674:	f100041f 	cmp	x0, #0x1
   14678:	54ff5dc9 	b.ls	13230 <_obstack_memory_used@@Base+0x63f0>  // b.plast
   1467c:	d280003c 	mov	x28, #0x1                   	// #1
   14680:	b5ff991a 	cbnz	x26, 139a0 <_obstack_memory_used@@Base+0x6b60>
   14684:	8b1c037b 	add	x27, x27, x28
   14688:	17fffadc 	b	131f8 <_obstack_memory_used@@Base+0x63b8>
   1468c:	eb01007f 	cmp	x3, x1
   14690:	54ff5d02 	b.cs	13230 <_obstack_memory_used@@Base+0x63f0>  // b.hs, b.nlast
   14694:	aa0303f3 	mov	x19, x3
   14698:	b5ffe0da 	cbnz	x26, 142b0 <_obstack_memory_used@@Base+0x7470>
   1469c:	8b13037b 	add	x27, x27, x19
   146a0:	17fffad6 	b	131f8 <_obstack_memory_used@@Base+0x63b8>
   146a4:	f100041f 	cmp	x0, #0x1
   146a8:	54ff5c49 	b.ls	13230 <_obstack_memory_used@@Base+0x63f0>  // b.plast
   146ac:	d280003c 	mov	x28, #0x1                   	// #1
   146b0:	b5ffaf1a 	cbnz	x26, 13c90 <_obstack_memory_used@@Base+0x6e50>
   146b4:	8b1c037b 	add	x27, x27, x28
   146b8:	17fffad0 	b	131f8 <_obstack_memory_used@@Base+0x63b8>
   146bc:	f10004df 	cmp	x6, #0x1
   146c0:	54ff5b89 	b.ls	13230 <_obstack_memory_used@@Base+0x63f0>  // b.plast
   146c4:	9100077b 	add	x27, x27, #0x1
   146c8:	5100079c 	sub	w28, w28, #0x1
   146cc:	93407ce7 	sxtw	x7, w7
   146d0:	17fffc77 	b	138ac <_obstack_memory_used@@Base+0x6a6c>
   146d4:	aa1a03e0 	mov	x0, x26
   146d8:	52800401 	mov	w1, #0x20                  	// #32
   146dc:	97ffbced 	bl	3a90 <memset@plt>
   146e0:	a94333e2 	ldp	x2, x12, [sp, #48]
   146e4:	f94027ee 	ldr	x14, [sp, #72]
   146e8:	f94033e3 	ldr	x3, [sp, #96]
   146ec:	b94043e6 	ldr	w6, [sp, #64]
   146f0:	b94053e5 	ldr	w5, [sp, #80]
   146f4:	b9405bed 	ldr	w13, [sp, #88]
   146f8:	17fffdbe 	b	13df0 <_obstack_memory_used@@Base+0x6fb0>
   146fc:	5284a400 	mov	w0, #0x2520                	// #9504
   14700:	9103cbe7 	add	x7, sp, #0xf2
   14704:	7901e3e0 	strh	w0, [sp, #240]
   14708:	17fffb78 	b	134e8 <_obstack_memory_used@@Base+0x66a8>
   1470c:	cb1b02a0 	sub	x0, x21, x27
   14710:	7100b4bf 	cmp	w5, #0x2d
   14714:	54000ea0 	b.eq	148e8 <_obstack_memory_used@@Base+0x7aa8>  // b.none
   14718:	37f80e93 	tbnz	w19, #31, 148e8 <_obstack_memory_used@@Base+0x7aa8>
   1471c:	93407e73 	sxtw	x19, w19
   14720:	d2800021 	mov	x1, #0x1                   	// #1
   14724:	f100027f 	cmp	x19, #0x0
   14728:	9a81127c 	csel	x28, x19, x1, ne	// ne = any
   1472c:	eb00039f 	cmp	x28, x0
   14730:	54ff5802 	b.cs	13230 <_obstack_memory_used@@Base+0x63f0>  // b.hs, b.nlast
   14734:	b4ff8eba 	cbz	x26, 13908 <_obstack_memory_used@@Base+0x6ac8>
   14738:	f100067f 	cmp	x19, #0x1
   1473c:	54001f89 	b.ls	14b2c <_obstack_memory_used@@Base+0x7cec>  // b.plast
   14740:	f9001bec 	str	x12, [sp, #48]
   14744:	7100c0bf 	cmp	w5, #0x30
   14748:	d1000673 	sub	x19, x19, #0x1
   1474c:	52800560 	mov	w0, #0x2b                  	// #43
   14750:	aa1303e2 	mov	x2, x19
   14754:	7a4010a4 	ccmp	w5, w0, #0x4, ne	// ne = any
   14758:	54001ce1 	b.ne	14af4 <_obstack_memory_used@@Base+0x7cb4>  // b.any
   1475c:	aa1a03e0 	mov	x0, x26
   14760:	52800601 	mov	w1, #0x30                  	// #48
   14764:	97ffbccb 	bl	3a90 <memset@plt>
   14768:	f9401bec 	ldr	x12, [sp, #48]
   1476c:	8b13035a 	add	x26, x26, x19
   14770:	39400180 	ldrb	w0, [x12]
   14774:	8b1c037b 	add	x27, x27, x28
   14778:	38001740 	strb	w0, [x26], #1
   1477c:	17fffa9f 	b	131f8 <_obstack_memory_used@@Base+0x63b8>
   14780:	b9401291 	ldr	w17, [x20, #16]
   14784:	52800160 	mov	w0, #0xb                   	// #11
   14788:	5280003c 	mov	w28, #0x1                   	// #1
   1478c:	52800002 	mov	w2, #0x0                   	// #0
   14790:	5280000f 	mov	w15, #0x0                   	// #0
   14794:	52800006 	mov	w6, #0x0                   	// #0
   14798:	1b007e31 	mul	w17, w17, w0
   1479c:	13057e31 	asr	w17, w17, #5
   147a0:	0b1c0231 	add	w17, w17, w28
   147a4:	17fffc13 	b	137f0 <_obstack_memory_used@@Base+0x69b0>
   147a8:	d2800022 	mov	x2, #0x1                   	// #1
   147ac:	aa0203e4 	mov	x4, x2
   147b0:	17fffddb 	b	13f1c <_obstack_memory_used@@Base+0x70dc>
   147b4:	7100acbf 	cmp	w5, #0x2b
   147b8:	54ffb741 	b.ne	13ea0 <_obstack_memory_used@@Base+0x7060>  // b.any
   147bc:	5280005c 	mov	w28, #0x2                   	// #2
   147c0:	52800c60 	mov	w0, #0x63                  	// #99
   147c4:	17fffeef 	b	14380 <_obstack_memory_used@@Base+0x7540>
   147c8:	f94013e0 	ldr	x0, [sp, #32]
   147cc:	a90333e1 	stp	x1, x12, [sp, #48]
   147d0:	b90043e5 	str	w5, [sp, #64]
   147d4:	b9004bed 	str	w13, [sp, #72]
   147d8:	a9050be3 	stp	x3, x2, [sp, #80]
   147dc:	97ffe229 	bl	d080 <_obstack_memory_used@@Base+0x240>
   147e0:	b94043e5 	ldr	w5, [sp, #64]
   147e4:	a94333e1 	ldp	x1, x12, [sp, #48]
   147e8:	a9450be3 	ldp	x3, x2, [sp, #80]
   147ec:	b9404bed 	ldr	w13, [sp, #72]
   147f0:	36079340 	tbz	w0, #0, 13a58 <_obstack_memory_used@@Base+0x6c18>
   147f4:	f100047f 	cmp	x3, #0x1
   147f8:	54000180 	b.eq	14828 <_obstack_memory_used@@Base+0x79e8>  // b.none
   147fc:	aa0303e0 	mov	x0, x3
   14800:	f9001bec 	str	x12, [sp, #48]
   14804:	b9003be5 	str	w5, [sp, #56]
   14808:	b90043ed 	str	w13, [sp, #64]
   1480c:	a90487e2 	stp	x2, x1, [sp, #72]
   14810:	97ffe2bd 	bl	d304 <_obstack_memory_used@@Base+0x4c4>
   14814:	b9403be5 	ldr	w5, [sp, #56]
   14818:	f9401bec 	ldr	x12, [sp, #48]
   1481c:	a94487e2 	ldp	x2, x1, [sp, #72]
   14820:	b94043ed 	ldr	w13, [sp, #64]
   14824:	360792e0 	tbz	w0, #0, 13a80 <_obstack_memory_used@@Base+0x6c40>
   14828:	ad400821 	ldp	q1, q2, [x1]
   1482c:	3dc00820 	ldr	q0, [x1, #32]
   14830:	f9401820 	ldr	x0, [x1, #48]
   14834:	ad000841 	stp	q1, q2, [x2]
   14838:	3d800840 	str	q0, [x2, #32]
   1483c:	f9001840 	str	x0, [x2, #48]
   14840:	17fffc91 	b	13a84 <_obstack_memory_used@@Base+0x6c44>
   14844:	510004e7 	sub	w7, w7, #0x1
   14848:	52802da0 	mov	w0, #0x16d                 	// #365
   1484c:	f24004ff 	tst	x7, #0x3
   14850:	54000241 	b.ne	14898 <_obstack_memory_used@@Base+0x7a58>  // b.any
   14854:	528b8524 	mov	w4, #0x5c29                	// #23593
   14858:	52970a10 	mov	w16, #0xb850                	// #47184
   1485c:	72b851e4 	movk	w4, #0xc28f, lsl #16
   14860:	72a0a3d0 	movk	w16, #0x51e, lsl #16
   14864:	528b850f 	mov	w15, #0x5c28                	// #23592
   14868:	52802dc0 	mov	w0, #0x16e                 	// #366
   1486c:	1b0440e4 	madd	w4, w7, w4, w16
   14870:	72a051ef 	movk	w15, #0x28f, lsl #16
   14874:	13840884 	ror	w4, w4, #2
   14878:	6b0f009f 	cmp	w4, w15
   1487c:	540000e8 	b.hi	14898 <_obstack_memory_used@@Base+0x7a58>  // b.pmore
   14880:	52803204 	mov	w4, #0x190                 	// #400
   14884:	1ac40ce0 	sdiv	w0, w7, w4
   14888:	1b049c00 	msub	w0, w0, w4, w7
   1488c:	7100001f 	cmp	w0, #0x0
   14890:	1a9f17e0 	cset	w0, eq	// eq = none
   14894:	1105b400 	add	w0, w0, #0x16d
   14898:	0b0001c0 	add	w0, w14, w0
   1489c:	52849264 	mov	w4, #0x2493                	// #9363
   148a0:	4b060006 	sub	w6, w0, w6
   148a4:	72b24924 	movk	w4, #0x9249, lsl #16
   148a8:	1105f8c6 	add	w6, w6, #0x17e
   148ac:	12800007 	mov	w7, #0xffffffff            	// #-1
   148b0:	9b247cc4 	smull	x4, w6, w4
   148b4:	d360fc84 	lsr	x4, x4, #32
   148b8:	0b0400c4 	add	w4, w6, w4
   148bc:	13027c84 	asr	w4, w4, #2
   148c0:	4b867c84 	sub	w4, w4, w6, asr #31
   148c4:	531d708e 	lsl	w14, w4, #3
   148c8:	4b0401c4 	sub	w4, w14, w4
   148cc:	4b0400c6 	sub	w6, w6, w4
   148d0:	4b060000 	sub	w0, w0, w6
   148d4:	11000c00 	add	w0, w0, #0x3
   148d8:	17fffb89 	b	136fc <_obstack_memory_used@@Base+0x68bc>
   148dc:	54ff4aa2 	b.cs	13230 <_obstack_memory_used@@Base+0x63f0>  // b.hs, b.nlast
   148e0:	b5ffb4ba 	cbnz	x26, 13f74 <_obstack_memory_used@@Base+0x7134>
   148e4:	17fffdb8 	b	13fc4 <_obstack_memory_used@@Base+0x7184>
   148e8:	f100041f 	cmp	x0, #0x1
   148ec:	54ff4a29 	b.ls	13230 <_obstack_memory_used@@Base+0x63f0>  // b.plast
   148f0:	d280003c 	mov	x28, #0x1                   	// #1
   148f4:	b5fff3fa 	cbnz	x26, 14770 <_obstack_memory_used@@Base+0x7930>
   148f8:	8b1c037b 	add	x27, x27, x28
   148fc:	17fffa3f 	b	131f8 <_obstack_memory_used@@Base+0x63b8>
   14900:	52849262 	mov	w2, #0x2493                	// #9363
   14904:	5280005c 	mov	w28, #0x2                   	// #2
   14908:	72b24922 	movk	w2, #0x9249, lsl #16
   1490c:	9b227c02 	smull	x2, w0, w2
   14910:	d360fc42 	lsr	x2, x2, #32
   14914:	0b020002 	add	w2, w0, w2
   14918:	13027c42 	asr	w2, w2, #2
   1491c:	4b807c46 	sub	w6, w2, w0, asr #31
   14920:	110004c6 	add	w6, w6, #0x1
   14924:	17fffcf1 	b	13ce8 <_obstack_memory_used@@Base+0x6ea8>
   14928:	1280ed60 	mov	w0, #0xfffff894            	// #-1900
   1492c:	4b070000 	sub	w0, w0, w7
   14930:	6b00005f 	cmp	w2, w0
   14934:	111db042 	add	w2, w2, #0x76c
   14938:	0b070051 	add	w17, w2, w7
   1493c:	1a9fa7e6 	cset	w6, lt	// lt = tstop
   14940:	1a9fb7e0 	cset	w0, ge	// ge = tcont
   14944:	35000125 	cbnz	w5, 14968 <_obstack_memory_used@@Base+0x7b28>
   14948:	b9402fe2 	ldr	w2, [sp, #44]
   1494c:	7100ac5f 	cmp	w2, #0x2b
   14950:	54000100 	b.eq	14970 <_obstack_memory_used@@Base+0x7b30>  // b.none
   14954:	2a0203e5 	mov	w5, w2
   14958:	5280000f 	mov	w15, #0x0                   	// #0
   1495c:	5280009c 	mov	w28, #0x4                   	// #4
   14960:	52800002 	mov	w2, #0x0                   	// #0
   14964:	17fffca7 	b	13c00 <_obstack_memory_used@@Base+0x6dc0>
   14968:	7100acbf 	cmp	w5, #0x2b
   1496c:	54ffff61 	b.ne	14958 <_obstack_memory_used@@Base+0x7b18>  // b.any
   14970:	5280009c 	mov	w28, #0x4                   	// #4
   14974:	5284e1e0 	mov	w0, #0x270f                	// #9999
   14978:	17fffe82 	b	14380 <_obstack_memory_used@@Base+0x7540>
   1497c:	f1000cff 	cmp	x7, #0x3
   14980:	54ff4d21 	b.ne	13324 <_obstack_memory_used@@Base+0x64e4>  // b.any
   14984:	350000c4 	cbnz	w4, 1499c <_obstack_memory_used@@Base+0x7b5c>
   14988:	35ff92e2 	cbnz	w2, 13be4 <_obstack_memory_used@@Base+0x6da4>
   1498c:	2a0703fc 	mov	w28, w7
   14990:	520000c0 	eor	w0, w6, #0x1
   14994:	5280002f 	mov	w15, #0x1                   	// #1
   14998:	17fffc9a 	b	13c00 <_obstack_memory_used@@Base+0x6dc0>
   1499c:	52800c8e 	mov	w14, #0x64                  	// #100
   149a0:	5284e207 	mov	w7, #0x2710                	// #10000
   149a4:	520000c0 	eor	w0, w6, #0x1
   149a8:	5280002f 	mov	w15, #0x1                   	// #1
   149ac:	1b0e7c42 	mul	w2, w2, w14
   149b0:	5280013c 	mov	w28, #0x9                   	// #9
   149b4:	1b070a27 	madd	w7, w17, w7, w2
   149b8:	52800282 	mov	w2, #0x14                  	// #20
   149bc:	0b0400f1 	add	w17, w7, w4
   149c0:	17fffc90 	b	13c00 <_obstack_memory_used@@Base+0x6dc0>
   149c4:	d100047c 	sub	x28, x3, #0x1
   149c8:	b4ffc923 	cbz	x3, 142ec <_obstack_memory_used@@Base+0x74ac>
   149cc:	a9030fec 	stp	x12, x3, [sp, #48]
   149d0:	97ffbbe4 	bl	3960 <__ctype_tolower_loc@plt>
   149d4:	aa0003e2 	mov	x2, x0
   149d8:	a9430fec 	ldp	x12, x3, [sp, #48]
   149dc:	f9400040 	ldr	x0, [x2]
   149e0:	387c6b21 	ldrb	w1, [x25, x28]
   149e4:	b8617800 	ldr	w0, [x0, x1, lsl #2]
   149e8:	383c6b40 	strb	w0, [x26, x28]
   149ec:	d100079c 	sub	x28, x28, #0x1
   149f0:	b100079f 	cmn	x28, #0x1
   149f4:	54ffff41 	b.ne	149dc <_obstack_memory_used@@Base+0x7b9c>  // b.any
   149f8:	8b03035a 	add	x26, x26, x3
   149fc:	17fffe3d 	b	142f0 <_obstack_memory_used@@Base+0x74b0>
   14a00:	aa0303e2 	mov	x2, x3
   14a04:	aa1a03e0 	mov	x0, x26
   14a08:	aa1903e1 	mov	x1, x25
   14a0c:	a90333e3 	stp	x3, x12, [sp, #48]
   14a10:	97ffbb68 	bl	37b0 <memcpy@plt>
   14a14:	a94333e3 	ldp	x3, x12, [sp, #48]
   14a18:	8b03035a 	add	x26, x26, x3
   14a1c:	17fffe35 	b	142f0 <_obstack_memory_used@@Base+0x74b0>
   14a20:	aa1a03e0 	mov	x0, x26
   14a24:	52800401 	mov	w1, #0x20                  	// #32
   14a28:	97ffbc1a 	bl	3a90 <memset@plt>
   14a2c:	f9401bec 	ldr	x12, [sp, #48]
   14a30:	17fffbdb 	b	1399c <_obstack_memory_used@@Base+0x6b5c>
   14a34:	eb1b02bf 	cmp	x21, x27
   14a38:	54ff3e01 	b.ne	131f8 <_obstack_memory_used@@Base+0x63b8>  // b.any
   14a3c:	17fff9fd 	b	13230 <_obstack_memory_used@@Base+0x63f0>
   14a40:	aa1a03e0 	mov	x0, x26
   14a44:	52800401 	mov	w1, #0x20                  	// #32
   14a48:	97ffbc12 	bl	3a90 <memset@plt>
   14a4c:	f9401bec 	ldr	x12, [sp, #48]
   14a50:	17fffc8f 	b	13c8c <_obstack_memory_used@@Base+0x6e4c>
   14a54:	aa0603e1 	mov	x1, x6
   14a58:	aa1a03e0 	mov	x0, x26
   14a5c:	a90333e2 	stp	x2, x12, [sp, #48]
   14a60:	b90043e5 	str	w5, [sp, #64]
   14a64:	97ffbb53 	bl	37b0 <memcpy@plt>
   14a68:	a94333e2 	ldp	x2, x12, [sp, #48]
   14a6c:	b94043e5 	ldr	w5, [sp, #64]
   14a70:	17fffd54 	b	13fc0 <_obstack_memory_used@@Base+0x7180>
   14a74:	aa0203e0 	mov	x0, x2
   14a78:	f9001bec 	str	x12, [sp, #48]
   14a7c:	b9003be5 	str	w5, [sp, #56]
   14a80:	b90043ed 	str	w13, [sp, #64]
   14a84:	97ffbcef 	bl	3e40 <timegm@plt>
   14a88:	f9401bec 	ldr	x12, [sp, #48]
   14a8c:	aa0003fc 	mov	x28, x0
   14a90:	b9403be5 	ldr	w5, [sp, #56]
   14a94:	b94043ed 	ldr	w13, [sp, #64]
   14a98:	17fffbfb 	b	13a84 <_obstack_memory_used@@Base+0x6c44>
   14a9c:	aa1a03e0 	mov	x0, x26
   14aa0:	52800401 	mov	w1, #0x20                  	// #32
   14aa4:	97ffbbfb 	bl	3a90 <memset@plt>
   14aa8:	a94333e2 	ldp	x2, x12, [sp, #48]
   14aac:	f94023e3 	ldr	x3, [sp, #64]
   14ab0:	b9404bed 	ldr	w13, [sp, #72]
   14ab4:	8b02035a 	add	x26, x26, x2
   14ab8:	17fffdfe 	b	142b0 <_obstack_memory_used@@Base+0x7470>
   14abc:	52800c84 	mov	w4, #0x64                  	// #100
   14ac0:	520000c0 	eor	w0, w6, #0x1
   14ac4:	5280002f 	mov	w15, #0x1                   	// #1
   14ac8:	528000bc 	mov	w28, #0x5                   	// #5
   14acc:	1b040a31 	madd	w17, w17, w4, w2
   14ad0:	52800002 	mov	w2, #0x0                   	// #0
   14ad4:	17fffc4b 	b	13c00 <_obstack_memory_used@@Base+0x6dc0>
   14ad8:	aa1a03e0 	mov	x0, x26
   14adc:	52800401 	mov	w1, #0x20                  	// #32
   14ae0:	97ffbbec 	bl	3a90 <memset@plt>
   14ae4:	f9401bec 	ldr	x12, [sp, #48]
   14ae8:	17fffd4b 	b	14014 <_obstack_memory_used@@Base+0x71d4>
   14aec:	12b00013 	mov	w19, #0x7fffffff            	// #2147483647
   14af0:	17fffa5f 	b	1346c <_obstack_memory_used@@Base+0x662c>
   14af4:	aa1a03e0 	mov	x0, x26
   14af8:	52800401 	mov	w1, #0x20                  	// #32
   14afc:	97ffbbe5 	bl	3a90 <memset@plt>
   14b00:	f9401bec 	ldr	x12, [sp, #48]
   14b04:	17ffff1a 	b	1476c <_obstack_memory_used@@Base+0x792c>
   14b08:	11019231 	add	w17, w17, #0x64
   14b0c:	34ff61c5 	cbz	w5, 13744 <_obstack_memory_used@@Base+0x6904>
   14b10:	17fffe17 	b	1436c <_obstack_memory_used@@Base+0x752c>
   14b14:	97ffbbff 	bl	3b10 <__stack_chk_fail@plt>
   14b18:	52800960 	mov	w0, #0x4b                  	// #75
   14b1c:	b90002e0 	str	w0, [x23]
   14b20:	17fff9c6 	b	13238 <_obstack_memory_used@@Base+0x63f8>
   14b24:	aa0103fc 	mov	x28, x1
   14b28:	17fffb9e 	b	139a0 <_obstack_memory_used@@Base+0x6b60>
   14b2c:	aa0103fc 	mov	x28, x1
   14b30:	17ffff10 	b	14770 <_obstack_memory_used@@Base+0x7930>
   14b34:	aa0103fc 	mov	x28, x1
   14b38:	17fffc56 	b	13c90 <_obstack_memory_used@@Base+0x6e50>
   14b3c:	d503201f 	nop
   14b40:	d503245f 	bti	c
   14b44:	37000101 	tbnz	w1, #0, 14b64 <_obstack_memory_used@@Base+0x7d24>
   14b48:	9e230001 	ucvtf	s1, x0
   14b4c:	52abf000 	mov	w0, #0x5f800000            	// #1602224128
   14b50:	1e270002 	fmov	s2, w0
   14b54:	1e201820 	fdiv	s0, s1, s0
   14b58:	1e222010 	fcmpe	s0, s2
   14b5c:	540004ea 	b.ge	14bf8 <_obstack_memory_used@@Base+0x7db8>  // b.tcont
   14b60:	9e390000 	fcvtzu	x0, s0
   14b64:	f100281f 	cmp	x0, #0xa
   14b68:	d2800141 	mov	x1, #0xa                   	// #10
   14b6c:	9a812000 	csel	x0, x0, x1, cs	// cs = hs, nlast
   14b70:	b201f3e5 	mov	x5, #0xaaaaaaaaaaaaaaaa    	// #-6148914691236517206
   14b74:	b2400000 	orr	x0, x0, #0x1
   14b78:	f2955565 	movk	x5, #0xaaab
   14b7c:	b100041f 	cmn	x0, #0x1
   14b80:	54000320 	b.eq	14be4 <_obstack_memory_used@@Base+0x7da4>  // b.none
   14b84:	d503201f 	nop
   14b88:	9bc57c01 	umulh	x1, x0, x5
   14b8c:	927ff822 	and	x2, x1, #0xfffffffffffffffe
   14b90:	8b410441 	add	x1, x2, x1, lsr #1
   14b94:	cb010001 	sub	x1, x0, x1
   14b98:	f100241f 	cmp	x0, #0x9
   14b9c:	54000449 	b.ls	14c24 <_obstack_memory_used@@Base+0x7de4>  // b.plast
   14ba0:	b40001c1 	cbz	x1, 14bd8 <_obstack_memory_used@@Base+0x7d98>
   14ba4:	d2800204 	mov	x4, #0x10                  	// #16
   14ba8:	d2800123 	mov	x3, #0x9                   	// #9
   14bac:	d2800061 	mov	x1, #0x3                   	// #3
   14bb0:	14000002 	b	14bb8 <_obstack_memory_used@@Base+0x7d78>
   14bb4:	b4000122 	cbz	x2, 14bd8 <_obstack_memory_used@@Base+0x7d98>
   14bb8:	91000821 	add	x1, x1, #0x2
   14bbc:	8b040063 	add	x3, x3, x4
   14bc0:	91002084 	add	x4, x4, #0x8
   14bc4:	9ac10802 	udiv	x2, x0, x1
   14bc8:	9b018042 	msub	x2, x2, x1, x0
   14bcc:	eb03001f 	cmp	x0, x3
   14bd0:	54ffff28 	b.hi	14bb4 <_obstack_memory_used@@Base+0x7d74>  // b.pmore
   14bd4:	b5000082 	cbnz	x2, 14be4 <_obstack_memory_used@@Base+0x7da4>
   14bd8:	91000800 	add	x0, x0, #0x2
   14bdc:	b100041f 	cmn	x0, #0x1
   14be0:	54fffd41 	b.ne	14b88 <_obstack_memory_used@@Base+0x7d48>  // b.any
   14be4:	eb40f7ff 	cmp	xzr, x0, lsr #61
   14be8:	9a9f07e1 	cset	x1, ne	// ne = any
   14bec:	b7e00060 	tbnz	x0, #60, 14bf8 <_obstack_memory_used@@Base+0x7db8>
   14bf0:	b5000041 	cbnz	x1, 14bf8 <_obstack_memory_used@@Base+0x7db8>
   14bf4:	d65f03c0 	ret
   14bf8:	d503233f 	paciasp
   14bfc:	a9bf7bfd 	stp	x29, x30, [sp, #-16]!
   14c00:	910003fd 	mov	x29, sp
   14c04:	97ffbc7f 	bl	3e00 <__errno_location@plt>
   14c08:	aa0003e1 	mov	x1, x0
   14c0c:	52800182 	mov	w2, #0xc                   	// #12
   14c10:	d2800000 	mov	x0, #0x0                   	// #0
   14c14:	b9000022 	str	w2, [x1]
   14c18:	a8c17bfd 	ldp	x29, x30, [sp], #16
   14c1c:	d50323bf 	autiasp
   14c20:	d65f03c0 	ret
   14c24:	b5fffe01 	cbnz	x1, 14be4 <_obstack_memory_used@@Base+0x7da4>
   14c28:	91000800 	add	x0, x0, #0x2
   14c2c:	17ffffd7 	b	14b88 <_obstack_memory_used@@Base+0x7d48>
   14c30:	d503233f 	paciasp
   14c34:	a9bc7bfd 	stp	x29, x30, [sp, #-64]!
   14c38:	910003fd 	mov	x29, sp
   14c3c:	a90153f3 	stp	x19, x20, [sp, #16]
   14c40:	aa0003f4 	mov	x20, x0
   14c44:	d2800a00 	mov	x0, #0x50                  	// #80
   14c48:	a9025bf5 	stp	x21, x22, [sp, #32]
   14c4c:	aa0203f6 	mov	x22, x2
   14c50:	aa0303f5 	mov	x21, x3
   14c54:	f9001bf7 	str	x23, [sp, #48]
   14c58:	aa0103f7 	mov	x23, x1
   14c5c:	97ffbb65 	bl	39f0 <malloc@plt>
   14c60:	b40004a0 	cbz	x0, 14cf4 <_obstack_memory_used@@Base+0x7eb4>
   14c64:	90000024 	adrp	x4, 18000 <_obstack_memory_used@@Base+0xb1c0>
   14c68:	910b0084 	add	x4, x4, #0x2c0
   14c6c:	f9001404 	str	x4, [x0, #40]
   14c70:	aa0003f3 	mov	x19, x0
   14c74:	97ffdba4 	bl	bb04 <setlocale@plt+0x7ca4>
   14c78:	36000340 	tbz	w0, #0, 14ce0 <_obstack_memory_used@@Base+0x7ea0>
   14c7c:	529999a0 	mov	w0, #0xcccd                	// #52429
   14c80:	52800001 	mov	w1, #0x0                   	// #0
   14c84:	72a7e980 	movk	w0, #0x3f4c, lsl #16
   14c88:	1e270000 	fmov	s0, w0
   14c8c:	aa1403e0 	mov	x0, x20
   14c90:	97ffffac 	bl	14b40 <_obstack_memory_used@@Base+0x7d00>
   14c94:	f9000a60 	str	x0, [x19, #16]
   14c98:	aa0003f4 	mov	x20, x0
   14c9c:	b4000280 	cbz	x0, 14cec <_obstack_memory_used@@Base+0x7eac>
   14ca0:	d2800201 	mov	x1, #0x10                  	// #16
   14ca4:	97ffbb83 	bl	3ab0 <calloc@plt>
   14ca8:	f9000260 	str	x0, [x19]
   14cac:	b4000200 	cbz	x0, 14cec <_obstack_memory_used@@Base+0x7eac>
   14cb0:	8b141014 	add	x20, x0, x20, lsl #4
   14cb4:	f9000674 	str	x20, [x19, #8]
   14cb8:	a901fe7f 	stp	xzr, xzr, [x19, #24]
   14cbc:	aa1303e0 	mov	x0, x19
   14cc0:	a9035a77 	stp	x23, x22, [x19, #48]
   14cc4:	a9047e75 	stp	x21, xzr, [x19, #64]
   14cc8:	a94153f3 	ldp	x19, x20, [sp, #16]
   14ccc:	a9425bf5 	ldp	x21, x22, [sp, #32]
   14cd0:	f9401bf7 	ldr	x23, [sp, #48]
   14cd4:	a8c47bfd 	ldp	x29, x30, [sp], #64
   14cd8:	d50323bf 	autiasp
   14cdc:	d65f03c0 	ret
   14ce0:	97ffbc48 	bl	3e00 <__errno_location@plt>
   14ce4:	528002c1 	mov	w1, #0x16                  	// #22
   14ce8:	b9000001 	str	w1, [x0]
   14cec:	aa1303e0 	mov	x0, x19
   14cf0:	97ffbbdc 	bl	3c60 <free@plt>
   14cf4:	d2800013 	mov	x19, #0x0                   	// #0
   14cf8:	aa1303e0 	mov	x0, x19
   14cfc:	a94153f3 	ldp	x19, x20, [sp, #16]
   14d00:	a9425bf5 	ldp	x21, x22, [sp, #32]
   14d04:	f9401bf7 	ldr	x23, [sp, #48]
   14d08:	a8c47bfd 	ldp	x29, x30, [sp], #64
   14d0c:	d50323bf 	autiasp
   14d10:	d65f03c0 	ret
   14d14:	d503233f 	paciasp
   14d18:	a9ba7bfd 	stp	x29, x30, [sp, #-96]!
   14d1c:	910003fd 	mov	x29, sp
   14d20:	a90153f3 	stp	x19, x20, [sp, #16]
   14d24:	a9025bf5 	stp	x21, x22, [sp, #32]
   14d28:	d13483ff 	sub	sp, sp, #0xd20
   14d2c:	f90203ff 	str	xzr, [sp, #1024]
   14d30:	f00000c2 	adrp	x2, 2f000 <_obstack_memory_used@@Base+0x221c0>
   14d34:	f947e842 	ldr	x2, [x2, #4048]
   14d38:	d2808001 	mov	x1, #0x400                 	// #1024
   14d3c:	9103c3f3 	add	x19, sp, #0xf0
   14d40:	911403f4 	add	x20, sp, #0x500
   14d44:	f9400043 	ldr	x3, [x2]
   14d48:	f9068fe3 	str	x3, [sp, #3352]
   14d4c:	d2800003 	mov	x3, #0x0                   	// #0
   14d50:	912443f5 	add	x21, sp, #0x910
   14d54:	a90e07f3 	stp	x19, x1, [sp, #224]
   14d58:	f9027bf4 	str	x20, [sp, #1264]
   14d5c:	f9027fe1 	str	x1, [sp, #1272]
   14d60:	f90483f5 	str	x21, [sp, #2304]
   14d64:	f90487e1 	str	x1, [sp, #2312]
   14d68:	b4001420 	cbz	x0, 14fec <_obstack_memory_used@@Base+0x81ac>
   14d6c:	f906b3f9 	str	x25, [sp, #3424]
   14d70:	f906b7fa 	str	x26, [sp, #3432]
   14d74:	aa0003fa 	mov	x26, x0
   14d78:	39400002 	ldrb	w2, [x0]
   14d7c:	34001082 	cbz	w2, 14f8c <_obstack_memory_used@@Base+0x814c>
   14d80:	f906bbfb 	str	x27, [sp, #3440]
   14d84:	aa1303fb 	mov	x27, x19
   14d88:	f906bffc 	str	x28, [sp, #3448]
   14d8c:	7100bc5f 	cmp	w2, #0x2f
   14d90:	540003c0 	b.eq	14e08 <_obstack_memory_used@@Base+0x7fc8>  // b.none
   14d94:	aa1b03e0 	mov	x0, x27
   14d98:	97ffba92 	bl	37e0 <getcwd@plt>
   14d9c:	b5001720 	cbnz	x0, 15080 <_obstack_memory_used@@Base+0x8240>
   14da0:	97ffbc18 	bl	3e00 <__errno_location@plt>
   14da4:	b9400000 	ldr	w0, [x0]
   14da8:	7100301f 	cmp	w0, #0xc
   14dac:	540015e0 	b.eq	15068 <_obstack_memory_used@@Base+0x8228>  // b.none
   14db0:	7100881f 	cmp	w0, #0x22
   14db4:	54000200 	b.eq	14df4 <_obstack_memory_used@@Base+0x7fb4>  // b.none
   14db8:	d2800016 	mov	x22, #0x0                   	// #0
   14dbc:	d503201f 	nop
   14dc0:	f94483e0 	ldr	x0, [sp, #2304]
   14dc4:	eb15001f 	cmp	x0, x21
   14dc8:	54000040 	b.eq	14dd0 <_obstack_memory_used@@Base+0x7f90>  // b.none
   14dcc:	97ffbba5 	bl	3c60 <free@plt>
   14dd0:	f9427be0 	ldr	x0, [sp, #1264]
   14dd4:	eb14001f 	cmp	x0, x20
   14dd8:	540013e0 	b.eq	15054 <_obstack_memory_used@@Base+0x8214>  // b.none
   14ddc:	97ffbba1 	bl	3c60 <free@plt>
   14de0:	f946b3f9 	ldr	x25, [sp, #3424]
   14de4:	f946b7fa 	ldr	x26, [sp, #3432]
   14de8:	f946bbfb 	ldr	x27, [sp, #3440]
   14dec:	f946bffc 	ldr	x28, [sp, #3448]
   14df0:	1400006d 	b	14fa4 <_obstack_memory_used@@Base+0x8164>
   14df4:	910383e0 	add	x0, sp, #0xe0
   14df8:	97ffdab6 	bl	b8d0 <setlocale@plt+0x7a70>
   14dfc:	36001360 	tbz	w0, #0, 15068 <_obstack_memory_used@@Base+0x8228>
   14e00:	a94e07fb 	ldp	x27, x1, [sp, #224]
   14e04:	17ffffe4 	b	14d94 <_obstack_memory_used@@Base+0x7f54>
   14e08:	9103c7fc 	add	x28, sp, #0xf1
   14e0c:	3903c3e2 	strb	w2, [sp, #240]
   14e10:	f906abf7 	str	x23, [sp, #3408]
   14e14:	f906aff8 	str	x24, [sp, #3416]
   14e18:	910383f8 	add	x24, sp, #0xe0
   14e1c:	f9000bff 	str	xzr, [sp, #16]
   14e20:	b9001bff 	str	wzr, [sp, #24]
   14e24:	b9002fff 	str	wzr, [sp, #44]
   14e28:	7100bc5f 	cmp	w2, #0x2f
   14e2c:	54001241 	b.ne	15074 <_obstack_memory_used@@Base+0x8234>  // b.any
   14e30:	38401f40 	ldrb	w0, [x26, #1]!
   14e34:	7100bc1f 	cmp	w0, #0x2f
   14e38:	54ffffc0 	b.eq	14e30 <_obstack_memory_used@@Base+0x7ff0>  // b.none
   14e3c:	34000460 	cbz	w0, 14ec8 <_obstack_memory_used@@Base+0x8088>
   14e40:	f90007fa 	str	x26, [sp, #8]
   14e44:	d503201f 	nop
   14e48:	aa1a03f6 	mov	x22, x26
   14e4c:	38401f42 	ldrb	w2, [x26, #1]!
   14e50:	7100bc5f 	cmp	w2, #0x2f
   14e54:	7a401844 	ccmp	w2, #0x0, #0x4, ne	// ne = any
   14e58:	54ffff81 	b.ne	14e48 <_obstack_memory_used@@Base+0x8008>  // b.any
   14e5c:	f94007e1 	ldr	x1, [sp, #8]
   14e60:	eb010359 	subs	x25, x26, x1
   14e64:	54000320 	b.eq	14ec8 <_obstack_memory_used@@Base+0x8088>  // b.none
   14e68:	f100073f 	cmp	x25, #0x1
   14e6c:	540005c0 	b.eq	14f24 <_obstack_memory_used@@Base+0x80e4>  // b.none
   14e70:	7100b81f 	cmp	w0, #0x2e
   14e74:	fa420b20 	ccmp	x25, #0x2, #0x0, eq	// eq = none
   14e78:	540005a1 	b.ne	14f2c <_obstack_memory_used@@Base+0x80ec>  // b.any
   14e7c:	f94007e0 	ldr	x0, [sp, #8]
   14e80:	39400400 	ldrb	w0, [x0, #1]
   14e84:	7100b81f 	cmp	w0, #0x2e
   14e88:	54000521 	b.ne	14f2c <_obstack_memory_used@@Base+0x80ec>  // b.any
   14e8c:	91000760 	add	x0, x27, #0x1
   14e90:	eb00039f 	cmp	x28, x0
   14e94:	54000169 	b.ls	14ec0 <_obstack_memory_used@@Base+0x8080>  // b.plast
   14e98:	d100079c 	sub	x28, x28, #0x1
   14e9c:	eb1c037f 	cmp	x27, x28
   14ea0:	54000102 	b.cs	14ec0 <_obstack_memory_used@@Base+0x8080>  // b.hs, b.nlast
   14ea4:	385ff380 	ldurb	w0, [x28, #-1]
   14ea8:	7100bc1f 	cmp	w0, #0x2f
   14eac:	540000a0 	b.eq	14ec0 <_obstack_memory_used@@Base+0x8080>  // b.none
   14eb0:	d100079c 	sub	x28, x28, #0x1
   14eb4:	eb1c037f 	cmp	x27, x28
   14eb8:	54ffff61 	b.ne	14ea4 <_obstack_memory_used@@Base+0x8064>  // b.any
   14ebc:	d503201f 	nop
   14ec0:	35fffb42 	cbnz	w2, 14e28 <_obstack_memory_used@@Base+0x7fe8>
   14ec4:	d503201f 	nop
   14ec8:	91000760 	add	x0, x27, #0x1
   14ecc:	eb00039f 	cmp	x28, x0
   14ed0:	54000089 	b.ls	14ee0 <_obstack_memory_used@@Base+0x80a0>  // b.plast
   14ed4:	385ff380 	ldurb	w0, [x28, #-1]
   14ed8:	7100bc1f 	cmp	w0, #0x2f
   14edc:	54001ba0 	b.eq	15250 <_obstack_memory_used@@Base+0x8410>  // b.none
   14ee0:	f9400be0 	ldr	x0, [sp, #16]
   14ee4:	b4001bc0 	cbz	x0, 1525c <_obstack_memory_used@@Base+0x841c>
   14ee8:	97ffdb42 	bl	bbf0 <setlocale@plt+0x7d90>
   14eec:	f946abf7 	ldr	x23, [sp, #3408]
   14ef0:	f946aff8 	ldr	x24, [sp, #3416]
   14ef4:	aa1c03e5 	mov	x5, x28
   14ef8:	380014bf 	strb	wzr, [x5], #1
   14efc:	cb1b00b6 	sub	x22, x5, x27
   14f00:	aa1603e0 	mov	x0, x22
   14f04:	97ffbabb 	bl	39f0 <malloc@plt>
   14f08:	b4000b00 	cbz	x0, 15068 <_obstack_memory_used@@Base+0x8228>
   14f0c:	aa1603e3 	mov	x3, x22
   14f10:	aa1603e2 	mov	x2, x22
   14f14:	aa1b03e1 	mov	x1, x27
   14f18:	97ffbaa2 	bl	39a0 <__memcpy_chk@plt>
   14f1c:	aa0003f6 	mov	x22, x0
   14f20:	17ffffa8 	b	14dc0 <_obstack_memory_used@@Base+0x7f80>
   14f24:	7100b81f 	cmp	w0, #0x2e
   14f28:	54fffcc0 	b.eq	14ec0 <_obstack_memory_used@@Base+0x8080>  // b.none
   14f2c:	385ff380 	ldurb	w0, [x28, #-1]
   14f30:	7100bc1f 	cmp	w0, #0x2f
   14f34:	540000a0 	b.eq	14f48 <_obstack_memory_used@@Base+0x8108>  // b.none
   14f38:	aa1c03e5 	mov	x5, x28
   14f3c:	528005e0 	mov	w0, #0x2f                  	// #47
   14f40:	380014a0 	strb	w0, [x5], #1
   14f44:	aa0503fc 	mov	x28, x5
   14f48:	f94077e0 	ldr	x0, [sp, #232]
   14f4c:	91000b37 	add	x23, x25, #0x2
   14f50:	8b000360 	add	x0, x27, x0
   14f54:	cb1c0000 	sub	x0, x0, x28
   14f58:	eb0002ff 	cmp	x23, x0
   14f5c:	540000e8 	b.hi	14f78 <_obstack_memory_used@@Base+0x8138>  // b.pmore
   14f60:	14000027 	b	14ffc <_obstack_memory_used@@Base+0x81bc>
   14f64:	a94e03fb 	ldp	x27, x0, [sp, #224]
   14f68:	cb1c0000 	sub	x0, x0, x28
   14f6c:	8b1c037c 	add	x28, x27, x28
   14f70:	eb17001f 	cmp	x0, x23
   14f74:	54000442 	b.cs	14ffc <_obstack_memory_used@@Base+0x81bc>  // b.hs, b.nlast
   14f78:	cb1b039c 	sub	x28, x28, x27
   14f7c:	aa1803e0 	mov	x0, x24
   14f80:	97ffda7c 	bl	b970 <setlocale@plt+0x7b10>
   14f84:	3707ff00 	tbnz	w0, #0, 14f64 <_obstack_memory_used@@Base+0x8124>
   14f88:	97ffe133 	bl	d454 <_obstack_memory_used@@Base+0x614>
   14f8c:	97ffbb9d 	bl	3e00 <__errno_location@plt>
   14f90:	f946b3f9 	ldr	x25, [sp, #3424]
   14f94:	52800041 	mov	w1, #0x2                   	// #2
   14f98:	f946b7fa 	ldr	x26, [sp, #3432]
   14f9c:	b9000001 	str	w1, [x0]
   14fa0:	d2800016 	mov	x22, #0x0                   	// #0
   14fa4:	f94073e0 	ldr	x0, [sp, #224]
   14fa8:	eb13001f 	cmp	x0, x19
   14fac:	54000040 	b.eq	14fb4 <_obstack_memory_used@@Base+0x8174>  // b.none
   14fb0:	97ffbb2c 	bl	3c60 <free@plt>
   14fb4:	f00000c0 	adrp	x0, 2f000 <_obstack_memory_used@@Base+0x221c0>
   14fb8:	f947e800 	ldr	x0, [x0, #4048]
   14fbc:	f9468fe2 	ldr	x2, [sp, #3352]
   14fc0:	f9400001 	ldr	x1, [x0]
   14fc4:	eb010042 	subs	x2, x2, x1
   14fc8:	d2800001 	mov	x1, #0x0                   	// #0
   14fcc:	54001fc1 	b.ne	153c4 <_obstack_memory_used@@Base+0x8584>  // b.any
   14fd0:	913483ff 	add	sp, sp, #0xd20
   14fd4:	aa1603e0 	mov	x0, x22
   14fd8:	a94153f3 	ldp	x19, x20, [sp, #16]
   14fdc:	a9425bf5 	ldp	x21, x22, [sp, #32]
   14fe0:	a8c67bfd 	ldp	x29, x30, [sp], #96
   14fe4:	d50323bf 	autiasp
   14fe8:	d65f03c0 	ret
   14fec:	97ffbb85 	bl	3e00 <__errno_location@plt>
   14ff0:	528002c1 	mov	w1, #0x16                  	// #22
   14ff4:	b9000001 	str	w1, [x0]
   14ff8:	17ffffea 	b	14fa0 <_obstack_memory_used@@Base+0x8160>
   14ffc:	f94007e1 	ldr	x1, [sp, #8]
   15000:	aa1c03e0 	mov	x0, x28
   15004:	aa1903e2 	mov	x2, x25
   15008:	97ffb9ea 	bl	37b0 <memcpy@plt>
   1500c:	8b19001c 	add	x28, x0, x25
   15010:	912403e1 	add	x1, sp, #0x900
   15014:	3839681f 	strb	wzr, [x0, x25]
   15018:	f90013e1 	str	x1, [sp, #32]
   1501c:	f94487f9 	ldr	x25, [sp, #2312]
   15020:	aa1b03e0 	mov	x0, x27
   15024:	f94483f7 	ldr	x23, [sp, #2304]
   15028:	d1000739 	sub	x25, x25, #0x1
   1502c:	aa1903e2 	mov	x2, x25
   15030:	aa1703e1 	mov	x1, x23
   15034:	97ffba23 	bl	38c0 <readlink@plt>
   15038:	aa0003e7 	mov	x7, x0
   1503c:	eb00033f 	cmp	x25, x0
   15040:	5400032c 	b.gt	150a4 <_obstack_memory_used@@Base+0x8264>
   15044:	f94013e0 	ldr	x0, [sp, #32]
   15048:	97ffda22 	bl	b8d0 <setlocale@plt+0x7a70>
   1504c:	3707fe80 	tbnz	w0, #0, 1501c <_obstack_memory_used@@Base+0x81dc>
   15050:	97ffe101 	bl	d454 <_obstack_memory_used@@Base+0x614>
   15054:	f946b3f9 	ldr	x25, [sp, #3424]
   15058:	f946b7fa 	ldr	x26, [sp, #3432]
   1505c:	f946bbfb 	ldr	x27, [sp, #3440]
   15060:	f946bffc 	ldr	x28, [sp, #3448]
   15064:	17ffffd0 	b	14fa4 <_obstack_memory_used@@Base+0x8164>
   15068:	f906abf7 	str	x23, [sp, #3408]
   1506c:	f906aff8 	str	x24, [sp, #3416]
   15070:	97ffe0f9 	bl	d454 <_obstack_memory_used@@Base+0x614>
   15074:	2a0203e0 	mov	w0, w2
   15078:	f90007fa 	str	x26, [sp, #8]
   1507c:	17ffff73 	b	14e48 <_obstack_memory_used@@Base+0x8008>
   15080:	aa1b03e0 	mov	x0, x27
   15084:	52800001 	mov	w1, #0x0                   	// #0
   15088:	97ffbafe 	bl	3c80 <rawmemchr@plt>
   1508c:	aa0003fc 	mov	x28, x0
   15090:	39400342 	ldrb	w2, [x26]
   15094:	340008e2 	cbz	w2, 151b0 <_obstack_memory_used@@Base+0x8370>
   15098:	f906abf7 	str	x23, [sp, #3408]
   1509c:	f906aff8 	str	x24, [sp, #3416]
   150a0:	17ffff5e 	b	14e18 <_obstack_memory_used@@Base+0x7fd8>
   150a4:	b7f80800 	tbnz	x0, #63, 151a4 <_obstack_memory_used@@Base+0x8364>
   150a8:	b9402fe0 	ldr	w0, [sp, #44]
   150ac:	71004c1f 	cmp	w0, #0x13
   150b0:	5400090d 	b.le	151d0 <_obstack_memory_used@@Base+0x8390>
   150b4:	f94007e1 	ldr	x1, [sp, #8]
   150b8:	39400020 	ldrb	w0, [x1]
   150bc:	340008e0 	cbz	w0, 151d8 <_obstack_memory_used@@Base+0x8398>
   150c0:	cb1a0039 	sub	x25, x1, x26
   150c4:	d0000020 	adrp	x0, 1b000 <_obstack_memory_used@@Base+0xe1c0>
   150c8:	91292000 	add	x0, x0, #0xa48
   150cc:	910183e1 	add	x1, sp, #0x60
   150d0:	f90013e7 	str	x7, [sp, #32]
   150d4:	38396b9f 	strb	wzr, [x28, x25]
   150d8:	39400362 	ldrb	w2, [x27]
   150dc:	7100005f 	cmp	w2, #0x0
   150e0:	9a9b0000 	csel	x0, x0, x27, eq	// eq = none
   150e4:	97ffba9f 	bl	3b60 <stat@plt>
   150e8:	f94013e7 	ldr	x7, [sp, #32]
   150ec:	35001880 	cbnz	w0, 153fc <_obstack_memory_used@@Base+0x85bc>
   150f0:	f94007e0 	ldr	x0, [sp, #8]
   150f4:	39400000 	ldrb	w0, [x0]
   150f8:	38396b80 	strb	w0, [x28, x25]
   150fc:	f9400be0 	ldr	x0, [sp, #16]
   15100:	b40013e0 	cbz	x0, 1537c <_obstack_memory_used@@Base+0x853c>
   15104:	f94007e0 	ldr	x0, [sp, #8]
   15108:	f90023e0 	str	x0, [sp, #64]
   1510c:	f9400be0 	ldr	x0, [sp, #16]
   15110:	910103f9 	add	x25, sp, #0x40
   15114:	3dc01be0 	ldr	q0, [sp, #96]
   15118:	f90013e7 	str	x7, [sp, #32]
   1511c:	f9400801 	ldr	x1, [x0, #16]
   15120:	f9401802 	ldr	x2, [x0, #48]
   15124:	aa1903e0 	mov	x0, x25
   15128:	6e004000 	ext	v0.16b, v0.16b, v0.16b, #8
   1512c:	3c8483e0 	stur	q0, [sp, #72]
   15130:	d63f0040 	blr	x2
   15134:	f9400be1 	ldr	x1, [sp, #16]
   15138:	f94013e7 	ldr	x7, [sp, #32]
   1513c:	f9400821 	ldr	x1, [x1, #16]
   15140:	eb01001f 	cmp	x0, x1
   15144:	540016a2 	b.cs	15418 <_obstack_memory_used@@Base+0x85d8>  // b.hs, b.nlast
   15148:	f9400be1 	ldr	x1, [sp, #16]
   1514c:	d37cec00 	lsl	x0, x0, #4
   15150:	f9400021 	ldr	x1, [x1]
   15154:	8b000022 	add	x2, x1, x0
   15158:	f8606821 	ldr	x1, [x1, x0]
   1515c:	b50001c1 	cbnz	x1, 15194 <_obstack_memory_used@@Base+0x8354>
   15160:	14000068 	b	15300 <_obstack_memory_used@@Base+0x84c0>
   15164:	f9400be0 	ldr	x0, [sp, #16]
   15168:	f90013e7 	str	x7, [sp, #32]
   1516c:	f9001be2 	str	x2, [sp, #48]
   15170:	f9401c03 	ldr	x3, [x0, #56]
   15174:	aa1903e0 	mov	x0, x25
   15178:	d63f0060 	blr	x3
   1517c:	f94013e7 	ldr	x7, [sp, #32]
   15180:	f9401be2 	ldr	x2, [sp, #48]
   15184:	370000c0 	tbnz	w0, #0, 1519c <_obstack_memory_used@@Base+0x835c>
   15188:	f9400442 	ldr	x2, [x2, #8]
   1518c:	b4000ba2 	cbz	x2, 15300 <_obstack_memory_used@@Base+0x84c0>
   15190:	f9400041 	ldr	x1, [x2]
   15194:	eb19003f 	cmp	x1, x25
   15198:	54fffe61 	b.ne	15164 <_obstack_memory_used@@Base+0x8324>  // b.any
   1519c:	f9400040 	ldr	x0, [x2]
   151a0:	b4000b00 	cbz	x0, 15300 <_obstack_memory_used@@Base+0x84c0>
   151a4:	394006c2 	ldrb	w2, [x22, #1]
   151a8:	35ffe402 	cbnz	w2, 14e28 <_obstack_memory_used@@Base+0x7fe8>
   151ac:	17ffff47 	b	14ec8 <_obstack_memory_used@@Base+0x8088>
   151b0:	91000760 	add	x0, x27, #0x1
   151b4:	eb00039f 	cmp	x28, x0
   151b8:	54ffe9e9 	b.ls	14ef4 <_obstack_memory_used@@Base+0x80b4>  // b.plast
   151bc:	385ff380 	ldurb	w0, [x28, #-1]
   151c0:	7100bc1f 	cmp	w0, #0x2f
   151c4:	9a9f17e0 	cset	x0, eq	// eq = none
   151c8:	cb00039c 	sub	x28, x28, x0
   151cc:	17ffff4a 	b	14ef4 <_obstack_memory_used@@Base+0x80b4>
   151d0:	11000400 	add	w0, w0, #0x1
   151d4:	b9002fe0 	str	w0, [sp, #44]
   151d8:	b9401be0 	ldr	w0, [sp, #24]
   151dc:	38276aff 	strb	wzr, [x23, x7]
   151e0:	12000001 	and	w1, w0, #0x1
   151e4:	f90007e7 	str	x7, [sp, #8]
   151e8:	b90033e1 	str	w1, [sp, #48]
   151ec:	f9427bf6 	ldr	x22, [sp, #1264]
   151f0:	340003c0 	cbz	w0, 15268 <_obstack_memory_used@@Base+0x8428>
   151f4:	cb160340 	sub	x0, x26, x22
   151f8:	f9001fe0 	str	x0, [sp, #56]
   151fc:	aa1a03e0 	mov	x0, x26
   15200:	97ffb980 	bl	3800 <strlen@plt>
   15204:	f94007e7 	ldr	x7, [sp, #8]
   15208:	f90013e0 	str	x0, [sp, #32]
   1520c:	f9427fe1 	ldr	x1, [sp, #1272]
   15210:	8b0000f9 	add	x25, x7, x0
   15214:	eb01033f 	cmp	x25, x1
   15218:	54000d03 	b.cc	153b8 <_obstack_memory_used@@Base+0x8578>  // b.lo, b.ul, b.last
   1521c:	9113c3e0 	add	x0, sp, #0x4f0
   15220:	f9000fe0 	str	x0, [sp, #24]
   15224:	14000006 	b	1523c <_obstack_memory_used@@Base+0x83fc>
   15228:	f9427fe0 	ldr	x0, [sp, #1272]
   1522c:	f94007e7 	ldr	x7, [sp, #8]
   15230:	f9427bf6 	ldr	x22, [sp, #1264]
   15234:	eb19001f 	cmp	x0, x25
   15238:	54000bc8 	b.hi	153b0 <_obstack_memory_used@@Base+0x8570>  // b.pmore
   1523c:	f9400fe0 	ldr	x0, [sp, #24]
   15240:	f90007e7 	str	x7, [sp, #8]
   15244:	97ffd9cb 	bl	b970 <setlocale@plt+0x7b10>
   15248:	3707ff00 	tbnz	w0, #0, 15228 <_obstack_memory_used@@Base+0x83e8>
   1524c:	97ffe082 	bl	d454 <_obstack_memory_used@@Base+0x614>
   15250:	f9400be0 	ldr	x0, [sp, #16]
   15254:	d100079c 	sub	x28, x28, #0x1
   15258:	b5ffe480 	cbnz	x0, 14ee8 <_obstack_memory_used@@Base+0x80a8>
   1525c:	f946abf7 	ldr	x23, [sp, #3408]
   15260:	f946aff8 	ldr	x24, [sp, #3416]
   15264:	17ffff24 	b	14ef4 <_obstack_memory_used@@Base+0x80b4>
   15268:	aa1a03e0 	mov	x0, x26
   1526c:	97ffb965 	bl	3800 <strlen@plt>
   15270:	f94007e7 	ldr	x7, [sp, #8]
   15274:	f90013e0 	str	x0, [sp, #32]
   15278:	f9427fe1 	ldr	x1, [sp, #1272]
   1527c:	8b070019 	add	x25, x0, x7
   15280:	eb01033f 	cmp	x25, x1
   15284:	54fffcc2 	b.cs	1521c <_obstack_memory_used@@Base+0x83dc>  // b.hs, b.nlast
   15288:	f94013e0 	ldr	x0, [sp, #32]
   1528c:	aa1a03e1 	mov	x1, x26
   15290:	f90007e7 	str	x7, [sp, #8]
   15294:	91000402 	add	x2, x0, #0x1
   15298:	8b0702c0 	add	x0, x22, x7
   1529c:	97ffb949 	bl	37c0 <memmove@plt>
   152a0:	f94007e7 	ldr	x7, [sp, #8]
   152a4:	aa1703e1 	mov	x1, x23
   152a8:	aa1603e0 	mov	x0, x22
   152ac:	aa0703e2 	mov	x2, x7
   152b0:	97ffb940 	bl	37b0 <memcpy@plt>
   152b4:	aa0003fa 	mov	x26, x0
   152b8:	394002e1 	ldrb	w1, [x23]
   152bc:	91000760 	add	x0, x27, #0x1
   152c0:	7100bc3f 	cmp	w1, #0x2f
   152c4:	540008e0 	b.eq	153e0 <_obstack_memory_used@@Base+0x85a0>  // b.none
   152c8:	39400342 	ldrb	w2, [x26]
   152cc:	eb00039f 	cmp	x28, x0
   152d0:	540000a8 	b.hi	152e4 <_obstack_memory_used@@Base+0x84a4>  // b.pmore
   152d4:	52800020 	mov	w0, #0x1                   	// #1
   152d8:	b9001be0 	str	w0, [sp, #24]
   152dc:	35ffda62 	cbnz	w2, 14e28 <_obstack_memory_used@@Base+0x7fe8>
   152e0:	17fffefa 	b	14ec8 <_obstack_memory_used@@Base+0x8088>
   152e4:	d100079c 	sub	x28, x28, #0x1
   152e8:	eb1c037f 	cmp	x27, x28
   152ec:	54ffff40 	b.eq	152d4 <_obstack_memory_used@@Base+0x8494>  // b.none
   152f0:	385ff380 	ldurb	w0, [x28, #-1]
   152f4:	7100bc1f 	cmp	w0, #0x2f
   152f8:	54fffee0 	b.eq	152d4 <_obstack_memory_used@@Base+0x8494>  // b.none
   152fc:	17fffffa 	b	152e4 <_obstack_memory_used@@Base+0x84a4>
   15300:	d2800300 	mov	x0, #0x18                  	// #24
   15304:	f90013e7 	str	x7, [sp, #32]
   15308:	97ffb9ba 	bl	39f0 <malloc@plt>
   1530c:	aa0003f6 	mov	x22, x0
   15310:	b4ffe3c0 	cbz	x0, 14f88 <_obstack_memory_used@@Base+0x8148>
   15314:	f94007e0 	ldr	x0, [sp, #8]
   15318:	97ffe91b 	bl	f784 <_obstack_memory_used@@Base+0x2944>
   1531c:	aa0003e3 	mov	x3, x0
   15320:	3dc01be0 	ldr	q0, [sp, #96]
   15324:	f90002c3 	str	x3, [x22]
   15328:	f9400be0 	ldr	x0, [sp, #16]
   1532c:	aa1903e2 	mov	x2, x25
   15330:	6e004000 	ext	v0.16b, v0.16b, v0.16b, #8
   15334:	aa1603e1 	mov	x1, x22
   15338:	3c8082c0 	stur	q0, [x22, #8]
   1533c:	97ffda71 	bl	bd00 <setlocale@plt+0x7ea0>
   15340:	3100041f 	cmn	w0, #0x1
   15344:	54ffe220 	b.eq	14f88 <_obstack_memory_used@@Base+0x8148>  // b.none
   15348:	f94013e7 	ldr	x7, [sp, #32]
   1534c:	35fff460 	cbnz	w0, 151d8 <_obstack_memory_used@@Base+0x8398>
   15350:	f94023e0 	ldr	x0, [sp, #64]
   15354:	b4ffe1a0 	cbz	x0, 14f88 <_obstack_memory_used@@Base+0x8148>
   15358:	eb16001f 	cmp	x0, x22
   1535c:	54fff3e0 	b.eq	151d8 <_obstack_memory_used@@Base+0x8398>  // b.none
   15360:	f94002c0 	ldr	x0, [x22]
   15364:	f90007e7 	str	x7, [sp, #8]
   15368:	97ffba3e 	bl	3c60 <free@plt>
   1536c:	aa1603e0 	mov	x0, x22
   15370:	97ffba3c 	bl	3c60 <free@plt>
   15374:	f94007e7 	ldr	x7, [sp, #8]
   15378:	17ffff98 	b	151d8 <_obstack_memory_used@@Base+0x8398>
   1537c:	d0ffff83 	adrp	x3, 7000 <setlocale@plt+0x31a0>
   15380:	d0ffff82 	adrp	x2, 7000 <setlocale@plt+0x31a0>
   15384:	91088063 	add	x3, x3, #0x220
   15388:	9106d042 	add	x2, x2, #0x1b4
   1538c:	d0ffff81 	adrp	x1, 7000 <setlocale@plt+0x31a0>
   15390:	d28000e0 	mov	x0, #0x7                   	// #7
   15394:	91058021 	add	x1, x1, #0x160
   15398:	f90013e7 	str	x7, [sp, #32]
   1539c:	97fffe25 	bl	14c30 <_obstack_memory_used@@Base+0x7df0>
   153a0:	f9000be0 	str	x0, [sp, #16]
   153a4:	f94013e7 	ldr	x7, [sp, #32]
   153a8:	b5ffeae0 	cbnz	x0, 15104 <_obstack_memory_used@@Base+0x82c4>
   153ac:	97ffe02a 	bl	d454 <_obstack_memory_used@@Base+0x614>
   153b0:	b94033e0 	ldr	w0, [sp, #48]
   153b4:	34fff6a0 	cbz	w0, 15288 <_obstack_memory_used@@Base+0x8448>
   153b8:	f9401fe0 	ldr	x0, [sp, #56]
   153bc:	8b0002da 	add	x26, x22, x0
   153c0:	17ffffb2 	b	15288 <_obstack_memory_used@@Base+0x8448>
   153c4:	f906abf7 	str	x23, [sp, #3408]
   153c8:	f906aff8 	str	x24, [sp, #3416]
   153cc:	f906b3f9 	str	x25, [sp, #3424]
   153d0:	f906b7fa 	str	x26, [sp, #3432]
   153d4:	f906bbfb 	str	x27, [sp, #3440]
   153d8:	f906bffc 	str	x28, [sp, #3448]
   153dc:	97ffb9cd 	bl	3b10 <__stack_chk_fail@plt>
   153e0:	39000361 	strb	w1, [x27]
   153e4:	aa0003fc 	mov	x28, x0
   153e8:	52800020 	mov	w0, #0x1                   	// #1
   153ec:	b9001be0 	str	w0, [sp, #24]
   153f0:	39400342 	ldrb	w2, [x26]
   153f4:	35ffd1a2 	cbnz	w2, 14e28 <_obstack_memory_used@@Base+0x7fe8>
   153f8:	17fffeb4 	b	14ec8 <_obstack_memory_used@@Base+0x8088>
   153fc:	f9400be0 	ldr	x0, [sp, #16]
   15400:	b4000060 	cbz	x0, 1540c <_obstack_memory_used@@Base+0x85cc>
   15404:	f9400be0 	ldr	x0, [sp, #16]
   15408:	97ffd9fa 	bl	bbf0 <setlocale@plt+0x7d90>
   1540c:	f946abf7 	ldr	x23, [sp, #3408]
   15410:	f946aff8 	ldr	x24, [sp, #3416]
   15414:	17fffe69 	b	14db8 <_obstack_memory_used@@Base+0x7f78>
   15418:	97ffb9da 	bl	3b80 <abort@plt>
   1541c:	d503201f 	nop
   15420:	d503233f 	paciasp
   15424:	a9ba7bfd 	stp	x29, x30, [sp, #-96]!
   15428:	910003fd 	mov	x29, sp
   1542c:	a90153f3 	stp	x19, x20, [sp, #16]
   15430:	aa0003f4 	mov	x20, x0
   15434:	a9025bf5 	stp	x21, x22, [sp, #32]
   15438:	f00000d6 	adrp	x22, 30000 <_obstack_memory_used@@Base+0x231c0>
   1543c:	2a0103f5 	mov	w21, w1
   15440:	a90363f7 	stp	x23, x24, [sp, #48]
   15444:	12001c57 	and	w23, w2, #0xff
   15448:	a9046bf9 	stp	x25, x26, [sp, #64]
   1544c:	900000f9 	adrp	x25, 31000 <obstack_alloc_failed_handler@@Base+0xd90>
   15450:	900000fa 	adrp	x26, 31000 <obstack_alloc_failed_handler@@Base+0xd90>
   15454:	a90573fb 	stp	x27, x28, [sp, #80]
   15458:	d10bc3ff 	sub	sp, sp, #0x2f0
   1545c:	aa0303fc 	mov	x28, x3
   15460:	d00000c4 	adrp	x4, 2f000 <_obstack_memory_used@@Base+0x221c0>
   15464:	f947e884 	ldr	x4, [x4, #4048]
   15468:	f94772d3 	ldr	x19, [x22, #3808]
   1546c:	f9400086 	ldr	x6, [x4]
   15470:	f81f83a6 	stur	x6, [x29, #-8]
   15474:	d2800006 	mov	x6, #0x0                   	// #0
   15478:	f9422725 	ldr	x5, [x25, #1096]
   1547c:	f9401f58 	ldr	x24, [x26, #56]
   15480:	eb05027f 	cmp	x19, x5
   15484:	54003ac0 	b.eq	15bdc <_obstack_memory_used@@Base+0x8d9c>  // b.none
   15488:	8b130673 	add	x19, x19, x19, lsl #1
   1548c:	f00000d9 	adrp	x25, 30000 <_obstack_memory_used@@Base+0x231c0>
   15490:	4f000400 	movi	v0.4s, #0x0
   15494:	12800001 	mov	w1, #0xffffffff            	// #-1
   15498:	8b131b1a 	add	x26, x24, x19, lsl #6
   1549c:	397bc320 	ldrb	w0, [x25, #3824]
   154a0:	ad040340 	stp	q0, q0, [x26, #128]
   154a4:	ad050340 	stp	q0, q0, [x26, #160]
   154a8:	b9009b55 	str	w21, [x26, #152]
   154ac:	b900b741 	str	w1, [x26, #180]
   154b0:	ad000340 	stp	q0, q0, [x26]
   154b4:	ad010340 	stp	q0, q0, [x26, #32]
   154b8:	ad020340 	stp	q0, q0, [x26, #64]
   154bc:	ad030340 	stp	q0, q0, [x26, #96]
   154c0:	37000080 	tbnz	w0, #0, 154d0 <_obstack_memory_used@@Base+0x8690>
   154c4:	900000e0 	adrp	x0, 31000 <obstack_alloc_failed_handler@@Base+0xd90>
   154c8:	394a0000 	ldrb	w0, [x0, #640]
   154cc:	37003a80 	tbnz	w0, #0, 15c1c <_obstack_memory_used@@Base+0x8ddc>
   154d0:	d14013a2 	sub	x2, x29, #0x4, lsl #12
   154d4:	120002e1 	and	w1, w23, #0x1
   154d8:	900000e0 	adrp	x0, 31000 <obstack_alloc_failed_handler@@Base+0xd90>
   154dc:	b93d4c41 	str	w1, [x2, #15692]
   154e0:	394ec800 	ldrb	w0, [x0, #946]
   154e4:	370001d7 	tbnz	w23, #0, 1551c <_obstack_memory_used@@Base+0x86dc>
   154e8:	12000001 	and	w1, w0, #0x1
   154ec:	37002dc0 	tbnz	w0, #0, 15aa4 <_obstack_memory_used@@Base+0x8c64>
   154f0:	900000e0 	adrp	x0, 31000 <obstack_alloc_failed_handler@@Base+0xd90>
   154f4:	39510400 	ldrb	w0, [x0, #1089]
   154f8:	36004120 	tbz	w0, #0, 15d1c <_obstack_memory_used@@Base+0x8edc>
   154fc:	900000f8 	adrp	x24, 31000 <obstack_alloc_failed_handler@@Base+0xd90>
   15500:	39400299 	ldrb	w25, [x20]
   15504:	aa1403f3 	mov	x19, x20
   15508:	7100bf3f 	cmp	w25, #0x2f
   1550c:	540001a0 	b.eq	15540 <_obstack_memory_used@@Base+0x8700>  // b.none
   15510:	3940039b 	ldrb	w27, [x28]
   15514:	3400017b 	cbz	w27, 15540 <_obstack_memory_used@@Base+0x8700>
   15518:	140001cd 	b	15c4c <_obstack_memory_used@@Base+0x8e0c>
   1551c:	39400299 	ldrb	w25, [x20]
   15520:	7100bf3f 	cmp	w25, #0x2f
   15524:	54003740 	b.eq	15c0c <_obstack_memory_used@@Base+0x8dcc>  // b.none
   15528:	3940039b 	ldrb	w27, [x28]
   1552c:	12000001 	and	w1, w0, #0x1
   15530:	aa1403f3 	mov	x19, x20
   15534:	900000f8 	adrp	x24, 31000 <obstack_alloc_failed_handler@@Base+0xd90>
   15538:	3500477b 	cbnz	w27, 15e24 <_obstack_memory_used@@Base+0x8fe4>
   1553c:	35002be1 	cbnz	w1, 15ab8 <_obstack_memory_used@@Base+0x8c78>
   15540:	b9442f19 	ldr	w25, [x24, #1068]
   15544:	97ffd544 	bl	aa54 <setlocale@plt+0x6bf4>
   15548:	71000f3f 	cmp	w25, #0x3
   1554c:	54001588 	b.hi	157fc <_obstack_memory_used@@Base+0x89bc>  // b.pmore
   15550:	7100073f 	cmp	w25, #0x1
   15554:	54002a49 	b.ls	15a9c <_obstack_memory_used@@Base+0x8c5c>  // b.plast
   15558:	d14013a1 	sub	x1, x29, #0x4, lsl #12
   1555c:	91006359 	add	x25, x26, #0x18
   15560:	b97d4c21 	ldr	w1, [x1, #15692]
   15564:	35006481 	cbnz	w1, 161f4 <_obstack_memory_used@@Base+0x93b4>
   15568:	97ffd53b 	bl	aa54 <setlocale@plt+0x6bf4>
   1556c:	5280001c 	mov	w28, #0x0                   	// #0
   15570:	2a0003e4 	mov	w4, w0
   15574:	aa1903e2 	mov	x2, x25
   15578:	aa1303e1 	mov	x1, x19
   1557c:	52802003 	mov	w3, #0x100                 	// #256
   15580:	12800c60 	mov	w0, #0xffffff9c            	// #-100
   15584:	97ffd573 	bl	ab50 <setlocale@plt+0x6cf0>
   15588:	35001500 	cbnz	w0, 15828 <_obstack_memory_used@@Base+0x89e8>
   1558c:	52800020 	mov	w0, #0x1                   	// #1
   15590:	3902a340 	strb	w0, [x26, #168]
   15594:	710016bf 	cmp	w21, #0x5
   15598:	540025e0 	b.eq	15a54 <_obstack_memory_used@@Base+0x8c14>  // b.none
   1559c:	b9402b40 	ldr	w0, [x26, #40]
   155a0:	12140c00 	and	w0, w0, #0xf000
   155a4:	7140201f 	cmp	w0, #0x8, lsl #12
   155a8:	54002560 	b.eq	15a54 <_obstack_memory_used@@Base+0x8c14>  // b.none
   155ac:	f00000d8 	adrp	x24, 30000 <_obstack_memory_used@@Base+0x231c0>
   155b0:	b94f2f00 	ldr	w0, [x24, #3884]
   155b4:	34001ac0 	cbz	w0, 1590c <_obstack_memory_used@@Base+0x8acc>
   155b8:	d14013a1 	sub	x1, x29, #0x4, lsl #12
   155bc:	900000e0 	adrp	x0, 31000 <obstack_alloc_failed_handler@@Base+0xd90>
   155c0:	f91e9c20 	str	x0, [x1, #15672]
   155c4:	39407000 	ldrb	w0, [x0, #28]
   155c8:	37001a80 	tbnz	w0, #0, 15918 <_obstack_memory_used@@Base+0x8ad8>
   155cc:	b9402b40 	ldr	w0, [x26, #40]
   155d0:	12140c00 	and	w0, w0, #0xf000
   155d4:	7140281f 	cmp	w0, #0xa, lsl #12
   155d8:	54002f80 	b.eq	15bc8 <_obstack_memory_used@@Base+0x8d88>  // b.none
   155dc:	528000a1 	mov	w1, #0x5                   	// #5
   155e0:	7140101f 	cmp	w0, #0x4, lsl #12
   155e4:	54005b00 	b.eq	16144 <_obstack_memory_used@@Base+0x9304>  // b.none
   155e8:	b94f2f00 	ldr	w0, [x24, #3884]
   155ec:	b9009b41 	str	w1, [x26, #152]
   155f0:	f9402f53 	ldr	x19, [x26, #88]
   155f4:	340013c0 	cbz	w0, 1586c <_obstack_memory_used@@Base+0x8a2c>
   155f8:	f00000c0 	adrp	x0, 30000 <_obstack_memory_used@@Base+0x231c0>
   155fc:	397ca000 	ldrb	w0, [x0, #3880]
   15600:	37001360 	tbnz	w0, #0, 1586c <_obstack_memory_used@@Base+0x8a2c>
   15604:	d14013a0 	sub	x0, x29, #0x4, lsl #12
   15608:	f95e9c00 	ldr	x0, [x0, #15672]
   1560c:	39407000 	ldrb	w0, [x0, #28]
   15610:	36000c00 	tbz	w0, #0, 15790 <_obstack_memory_used@@Base+0x8950>
   15614:	f9405340 	ldr	x0, [x26, #160]
   15618:	97ffb87a 	bl	3800 <strlen@plt>
   1561c:	f00000c1 	adrp	x1, 30000 <_obstack_memory_used@@Base+0x231c0>
   15620:	b94f0c22 	ldr	w2, [x1, #3852]
   15624:	6b02001f 	cmp	w0, w2
   15628:	5400376c 	b.gt	15d14 <_obstack_memory_used@@Base+0x8ed4>
   1562c:	d503201f 	nop
   15630:	b94f2f00 	ldr	w0, [x24, #3884]
   15634:	35000ae0 	cbnz	w0, 15790 <_obstack_memory_used@@Base+0x8950>
   15638:	d14007a1 	sub	x1, x29, #0x1, lsl #12
   1563c:	b9402f43 	ldr	w3, [x26, #44]
   15640:	b202e7e5 	mov	x5, #0xcccccccccccccccc    	// #-3689348814741910324
   15644:	d10a73a0 	sub	x0, x29, #0x29c
   15648:	f29999a5 	movk	x5, #0xcccd
   1564c:	3935903f 	strb	wzr, [x1, #3428]
   15650:	9bc57c62 	umulh	x2, x3, x5
   15654:	aa0303e4 	mov	x4, x3
   15658:	d343fc42 	lsr	x2, x2, #3
   1565c:	8b020841 	add	x1, x2, x2, lsl #2
   15660:	cb010461 	sub	x1, x3, x1, lsl #1
   15664:	aa0203e3 	mov	x3, x2
   15668:	1100c021 	add	w1, w1, #0x30
   1566c:	381ffc01 	strb	w1, [x0, #-1]!
   15670:	f100249f 	cmp	x4, #0x9
   15674:	54fffee8 	b.hi	15650 <_obstack_memory_used@@Base+0x8810>  // b.pmore
   15678:	97ffb862 	bl	3800 <strlen@plt>
   1567c:	f00000c1 	adrp	x1, 30000 <_obstack_memory_used@@Base+0x231c0>
   15680:	b94efc22 	ldr	w2, [x1, #3836]
   15684:	6b02001f 	cmp	w0, w2
   15688:	5400004d 	b.le	15690 <_obstack_memory_used@@Base+0x8850>
   1568c:	b90efc20 	str	w0, [x1, #3836]
   15690:	b9402b40 	ldr	w0, [x26, #40]
   15694:	52960001 	mov	w1, #0xb000                	// #45056
   15698:	0a010000 	and	w0, w0, w1
   1569c:	7140081f 	cmp	w0, #0x2, lsl #12
   156a0:	54003c61 	b.ne	15e2c <_obstack_memory_used@@Base+0x8fec>  // b.any
   156a4:	f9401f58 	ldr	x24, [x26, #56]
   156a8:	d14007a1 	sub	x1, x29, #0x1, lsl #12
   156ac:	d10a13b5 	sub	x21, x29, #0x284
   156b0:	b202e7e5 	mov	x5, #0xcccccccccccccccc    	// #-3689348814741910324
   156b4:	aa1503e0 	mov	x0, x21
   156b8:	f29999a5 	movk	x5, #0xcccd
   156bc:	d360ff03 	lsr	x3, x24, #32
   156c0:	3935f03f 	strb	wzr, [x1, #3452]
   156c4:	33084f03 	bfxil	w3, w24, #8, #12
   156c8:	2a0303e3 	mov	w3, w3
   156cc:	d503201f 	nop
   156d0:	9bc57c62 	umulh	x2, x3, x5
   156d4:	aa0303e4 	mov	x4, x3
   156d8:	d343fc42 	lsr	x2, x2, #3
   156dc:	8b020841 	add	x1, x2, x2, lsl #2
   156e0:	cb010461 	sub	x1, x3, x1, lsl #1
   156e4:	aa0203e3 	mov	x3, x2
   156e8:	1100c021 	add	w1, w1, #0x30
   156ec:	381ffc01 	strb	w1, [x0, #-1]!
   156f0:	f100249f 	cmp	x4, #0x9
   156f4:	54fffee8 	b.hi	156d0 <_obstack_memory_used@@Base+0x8890>  // b.pmore
   156f8:	97ffb842 	bl	3800 <strlen@plt>
   156fc:	f00000c1 	adrp	x1, 30000 <_obstack_memory_used@@Base+0x231c0>
   15700:	b94f1037 	ldr	w23, [x1, #3856]
   15704:	6b17001f 	cmp	w0, w23
   15708:	5400006d 	b.le	15714 <_obstack_memory_used@@Base+0x88d4>
   1570c:	2a0003f7 	mov	w23, w0
   15710:	b90f1020 	str	w0, [x1, #3856]
   15714:	d34cff03 	lsr	x3, x24, #12
   15718:	d14007a1 	sub	x1, x29, #0x1, lsl #12
   1571c:	b202e7e5 	mov	x5, #0xcccccccccccccccc    	// #-3689348814741910324
   15720:	aa1503e0 	mov	x0, x21
   15724:	33001f03 	bfxil	w3, w24, #0, #8
   15728:	f29999a5 	movk	x5, #0xcccd
   1572c:	3935f03f 	strb	wzr, [x1, #3452]
   15730:	9bc57c62 	umulh	x2, x3, x5
   15734:	aa0303e4 	mov	x4, x3
   15738:	d343fc42 	lsr	x2, x2, #3
   1573c:	8b020841 	add	x1, x2, x2, lsl #2
   15740:	cb010461 	sub	x1, x3, x1, lsl #1
   15744:	aa0203e3 	mov	x3, x2
   15748:	1100c021 	add	w1, w1, #0x30
   1574c:	381ffc01 	strb	w1, [x0, #-1]!
   15750:	f100249f 	cmp	x4, #0x9
   15754:	54fffee8 	b.hi	15730 <_obstack_memory_used@@Base+0x88f0>  // b.pmore
   15758:	97ffb82a 	bl	3800 <strlen@plt>
   1575c:	f00000c2 	adrp	x2, 30000 <_obstack_memory_used@@Base+0x231c0>
   15760:	b94f1441 	ldr	w1, [x2, #3860]
   15764:	6b01001f 	cmp	w0, w1
   15768:	5400006d 	b.le	15774 <_obstack_memory_used@@Base+0x8934>
   1576c:	2a0003e1 	mov	w1, w0
   15770:	b90f1440 	str	w0, [x2, #3860]
   15774:	f00000c0 	adrp	x0, 30000 <_obstack_memory_used@@Base+0x231c0>
   15778:	11000af7 	add	w23, w23, #0x2
   1577c:	0b0102f7 	add	w23, w23, w1
   15780:	b94f1801 	ldr	w1, [x0, #3864]
   15784:	6b0102ff 	cmp	w23, w1
   15788:	5400004d 	b.le	15790 <_obstack_memory_used@@Base+0x8950>
   1578c:	b90f1817 	str	w23, [x0, #3864]
   15790:	f00000c0 	adrp	x0, 30000 <_obstack_memory_used@@Base+0x231c0>
   15794:	397cc000 	ldrb	w0, [x0, #3888]
   15798:	12000002 	and	w2, w0, #0x1
   1579c:	35001a82 	cbnz	w2, 15aec <_obstack_memory_used@@Base+0x8cac>
   157a0:	aa1403e0 	mov	x0, x20
   157a4:	97ffe7f8 	bl	f784 <_obstack_memory_used@@Base+0x2944>
   157a8:	f9000340 	str	x0, [x26]
   157ac:	f94772c0 	ldr	x0, [x22, #3808]
   157b0:	91000400 	add	x0, x0, #0x1
   157b4:	f90772c0 	str	x0, [x22, #3808]
   157b8:	d00000c0 	adrp	x0, 2f000 <_obstack_memory_used@@Base+0x221c0>
   157bc:	f947e800 	ldr	x0, [x0, #4048]
   157c0:	f85f83a2 	ldur	x2, [x29, #-8]
   157c4:	f9400001 	ldr	x1, [x0]
   157c8:	eb010042 	subs	x2, x2, x1
   157cc:	d2800001 	mov	x1, #0x0                   	// #0
   157d0:	54007cc1 	b.ne	16768 <_obstack_memory_used@@Base+0x9928>  // b.any
   157d4:	910003bf 	mov	sp, x29
   157d8:	aa1303e0 	mov	x0, x19
   157dc:	a94153f3 	ldp	x19, x20, [sp, #16]
   157e0:	a9425bf5 	ldp	x21, x22, [sp, #32]
   157e4:	a94363f7 	ldp	x23, x24, [sp, #48]
   157e8:	a9446bf9 	ldp	x25, x26, [sp, #64]
   157ec:	a94573fb 	ldp	x27, x28, [sp, #80]
   157f0:	a8c67bfd 	ldp	x29, x30, [sp], #96
   157f4:	d50323bf 	autiasp
   157f8:	d65f03c0 	ret
   157fc:	7100133f 	cmp	w25, #0x4
   15800:	540014e1 	b.ne	15a9c <_obstack_memory_used@@Base+0x8c5c>  // b.any
   15804:	91006359 	add	x25, x26, #0x18
   15808:	2a0003e4 	mov	w4, w0
   1580c:	aa1903e2 	mov	x2, x25
   15810:	aa1303e1 	mov	x1, x19
   15814:	52800003 	mov	w3, #0x0                   	// #0
   15818:	12800c60 	mov	w0, #0xffffff9c            	// #-100
   1581c:	5280003c 	mov	w28, #0x1                   	// #1
   15820:	97ffd4cc 	bl	ab50 <setlocale@plt+0x6cf0>
   15824:	34ffeb40 	cbz	w0, 1558c <_obstack_memory_used@@Base+0x874c>
   15828:	528000a2 	mov	w2, #0x5                   	// #5
   1582c:	f0000021 	adrp	x1, 1c000 <_obstack_memory_used@@Base+0xf1c0>
   15830:	d2800000 	mov	x0, #0x0                   	// #0
   15834:	912b0021 	add	x1, x1, #0xac0
   15838:	97ffb94a 	bl	3d60 <dcgettext@plt>
   1583c:	aa0003e1 	mov	x1, x0
   15840:	aa1303e2 	mov	x2, x19
   15844:	2a1703e0 	mov	w0, w23
   15848:	97ffd53a 	bl	ad30 <setlocale@plt+0x6ed0>
   1584c:	f00000c0 	adrp	x0, 30000 <_obstack_memory_used@@Base+0x231c0>
   15850:	91032000 	add	x0, x0, #0xc8
   15854:	f9005340 	str	x0, [x26, #160]
   15858:	d14013a0 	sub	x0, x29, #0x4, lsl #12
   1585c:	b97d4c00 	ldr	w0, [x0, #15692]
   15860:	340030c0 	cbz	w0, 15e78 <_obstack_memory_used@@Base+0x9038>
   15864:	d2800013 	mov	x19, #0x0                   	// #0
   15868:	17ffffd4 	b	157b8 <_obstack_memory_used@@Base+0x8978>
   1586c:	900000e0 	adrp	x0, 31000 <obstack_alloc_failed_handler@@Base+0xd90>
   15870:	900000e2 	adrp	x2, 31000 <obstack_alloc_failed_handler@@Base+0xd90>
   15874:	d10a63a1 	sub	x1, x29, #0x298
   15878:	d2804003 	mov	x3, #0x200                 	// #512
   1587c:	f9400804 	ldr	x4, [x0, #16]
   15880:	aa1303e0 	mov	x0, x19
   15884:	b9401842 	ldr	w2, [x2, #24]
   15888:	97ffd98a 	bl	beb0 <setlocale@plt+0x8050>
   1588c:	aa0003f5 	mov	x21, x0
   15890:	97ffb7dc 	bl	3800 <strlen@plt>
   15894:	aa0003e1 	mov	x1, x0
   15898:	aa1503e0 	mov	x0, x21
   1589c:	97fff46d 	bl	12a50 <_obstack_memory_used@@Base+0x5c10>
   158a0:	f00000c1 	adrp	x1, 30000 <_obstack_memory_used@@Base+0x231c0>
   158a4:	b94ef822 	ldr	w2, [x1, #3832]
   158a8:	6b00005f 	cmp	w2, w0
   158ac:	5400004a 	b.ge	158b4 <_obstack_memory_used@@Base+0x8a74>  // b.tcont
   158b0:	b90ef820 	str	w0, [x1, #3832]
   158b4:	b94f2f00 	ldr	w0, [x24, #3884]
   158b8:	35ffea60 	cbnz	w0, 15604 <_obstack_memory_used@@Base+0x87c4>
   158bc:	f00000c0 	adrp	x0, 30000 <_obstack_memory_used@@Base+0x231c0>
   158c0:	39432800 	ldrb	w0, [x0, #202]
   158c4:	37004880 	tbnz	w0, #0, 161d4 <_obstack_memory_used@@Base+0x9394>
   158c8:	f00000c0 	adrp	x0, 30000 <_obstack_memory_used@@Base+0x231c0>
   158cc:	39432c00 	ldrb	w0, [x0, #203]
   158d0:	370045e0 	tbnz	w0, #0, 1618c <_obstack_memory_used@@Base+0x934c>
   158d4:	f00000c0 	adrp	x0, 30000 <_obstack_memory_used@@Base+0x231c0>
   158d8:	397ce000 	ldrb	w0, [x0, #3896]
   158dc:	37004480 	tbnz	w0, #0, 1616c <_obstack_memory_used@@Base+0x932c>
   158e0:	d14013a0 	sub	x0, x29, #0x4, lsl #12
   158e4:	f95e9c00 	ldr	x0, [x0, #15672]
   158e8:	39407000 	ldrb	w0, [x0, #28]
   158ec:	3607ea20 	tbz	w0, #0, 15630 <_obstack_memory_used@@Base+0x87f0>
   158f0:	f9405340 	ldr	x0, [x26, #160]
   158f4:	97ffb7c3 	bl	3800 <strlen@plt>
   158f8:	f00000c1 	adrp	x1, 30000 <_obstack_memory_used@@Base+0x231c0>
   158fc:	b94f0c22 	ldr	w2, [x1, #3852]
   15900:	6b02001f 	cmp	w0, w2
   15904:	54ffe96d 	b.le	15630 <_obstack_memory_used@@Base+0x87f0>
   15908:	14000103 	b	15d14 <_obstack_memory_used@@Base+0x8ed4>
   1590c:	d14013a1 	sub	x1, x29, #0x4, lsl #12
   15910:	900000e0 	adrp	x0, 31000 <obstack_alloc_failed_handler@@Base+0xd90>
   15914:	f91e9c20 	str	x0, [x1, #15672]
   15918:	900000e0 	adrp	x0, 31000 <obstack_alloc_failed_handler@@Base+0xd90>
   1591c:	91114000 	add	x0, x0, #0x450
   15920:	f9400f41 	ldr	x1, [x26, #24]
   15924:	f9408400 	ldr	x0, [x0, #264]
   15928:	eb00003f 	cmp	x1, x0
   1592c:	54007000 	b.eq	1672c <_obstack_memory_used@@Base+0x98ec>  // b.none
   15930:	91028355 	add	x21, x26, #0xa0
   15934:	aa1303e0 	mov	x0, x19
   15938:	aa1503e1 	mov	x1, x21
   1593c:	3600109c 	tbz	w28, #0, 15b4c <_obstack_memory_used@@Base+0x8d0c>
   15940:	97ffb924 	bl	3dd0 <getfilecon@plt>
   15944:	aa1503e1 	mov	x1, x21
   15948:	97ffdda3 	bl	cfd4 <_obstack_memory_used@@Base+0x194>
   1594c:	37f81080 	tbnz	w0, #31, 15b5c <_obstack_memory_used@@Base+0x8d1c>
   15950:	f9405341 	ldr	x1, [x26, #160]
   15954:	d0000020 	adrp	x0, 1b000 <_obstack_memory_used@@Base+0xe1c0>
   15958:	912a4000 	add	x0, x0, #0xa90
   1595c:	97ffb8b1 	bl	3c20 <strcmp@plt>
   15960:	b94f2f01 	ldr	w1, [x24, #3884]
   15964:	340029a1 	cbz	w1, 15e98 <_obstack_memory_used@@Base+0x9058>
   15968:	f00000c1 	adrp	x1, 30000 <_obstack_memory_used@@Base+0x231c0>
   1596c:	397bc422 	ldrb	w2, [x1, #3825]
   15970:	34004dc0 	cbz	w0, 16328 <_obstack_memory_used@@Base+0x94e8>
   15974:	52800020 	mov	w0, #0x1                   	// #1
   15978:	393bc420 	strb	w0, [x1, #3825]
   1597c:	b900af40 	str	w0, [x26, #172]
   15980:	b9402b40 	ldr	w0, [x26, #40]
   15984:	12140c00 	and	w0, w0, #0xf000
   15988:	7140281f 	cmp	w0, #0xa, lsl #12
   1598c:	54ffe281 	b.ne	155dc <_obstack_memory_used@@Base+0x879c>  // b.any
   15990:	b94f2f00 	ldr	w0, [x24, #3884]
   15994:	350011a0 	cbnz	w0, 15bc8 <_obstack_memory_used@@Base+0x8d88>
   15998:	f9402740 	ldr	x0, [x26, #72]
   1599c:	d280101c 	mov	x28, #0x80                  	// #128
   159a0:	b40000a0 	cbz	x0, 159b4 <_obstack_memory_used@@Base+0x8b74>
   159a4:	f110001f 	cmp	x0, #0x400
   159a8:	d2808002 	mov	x2, #0x400                 	// #1024
   159ac:	9a829002 	csel	x2, x0, x2, ls	// ls = plast
   159b0:	9100045c 	add	x28, x2, #0x1
   159b4:	d14013a1 	sub	x1, x29, #0x4, lsl #12
   159b8:	f100001f 	cmp	x0, #0x0
   159bc:	d10a63a0 	sub	x0, x29, #0x298
   159c0:	92f80019 	mov	x25, #0x3fffffffffffffff    	// #4611686018427387903
   159c4:	f91e9820 	str	x0, [x1, #15664]
   159c8:	1a9f07e0 	cset	w0, ne	// ne = any
   159cc:	b93d4020 	str	w0, [x1, #15680]
   159d0:	14000002 	b	159d8 <_obstack_memory_used@@Base+0x8b98>
   159d4:	d37ffb9c 	lsl	x28, x28, #1
   159d8:	d14013a0 	sub	x0, x29, #0x4, lsl #12
   159dc:	f102039f 	cmp	x28, #0x80
   159e0:	b97d4000 	ldr	w0, [x0, #15680]
   159e4:	7a400800 	ccmp	w0, #0x0, #0x0, eq	// eq = none
   159e8:	540002a1 	b.ne	15a3c <_obstack_memory_used@@Base+0x8bfc>  // b.any
   159ec:	d14013a0 	sub	x0, x29, #0x4, lsl #12
   159f0:	d280101c 	mov	x28, #0x80                  	// #128
   159f4:	d2800015 	mov	x21, #0x0                   	// #0
   159f8:	f95e981b 	ldr	x27, [x0, #15664]
   159fc:	aa1c03e3 	mov	x3, x28
   15a00:	aa1c03e2 	mov	x2, x28
   15a04:	aa1b03e1 	mov	x1, x27
   15a08:	aa1303e0 	mov	x0, x19
   15a0c:	97ffb7c9 	bl	3930 <__readlink_chk@plt>
   15a10:	b7f842a0 	tbnz	x0, #63, 16264 <_obstack_memory_used@@Base+0x9424>
   15a14:	eb00039f 	cmp	x28, x0
   15a18:	54004788 	b.hi	16308 <_obstack_memory_used@@Base+0x94c8>  // b.pmore
   15a1c:	aa1503e0 	mov	x0, x21
   15a20:	97ffb890 	bl	3c60 <free@plt>
   15a24:	eb19039f 	cmp	x28, x25
   15a28:	54fffd69 	b.ls	159d4 <_obstack_memory_used@@Base+0x8b94>  // b.plast
   15a2c:	92f00000 	mov	x0, #0x7fffffffffffffff    	// #9223372036854775807
   15a30:	eb00039f 	cmp	x28, x0
   15a34:	54005660 	b.eq	16500 <_obstack_memory_used@@Base+0x96c0>  // b.none
   15a38:	92f0001c 	mov	x28, #0x7fffffffffffffff    	// #9223372036854775807
   15a3c:	aa1c03e0 	mov	x0, x28
   15a40:	97ffb7ec 	bl	39f0 <malloc@plt>
   15a44:	aa0003fb 	mov	x27, x0
   15a48:	b40055c0 	cbz	x0, 16500 <_obstack_memory_used@@Base+0x96c0>
   15a4c:	aa0003f5 	mov	x21, x0
   15a50:	17ffffeb 	b	159fc <_obstack_memory_used@@Base+0x8bbc>
   15a54:	900000e0 	adrp	x0, 31000 <obstack_alloc_failed_handler@@Base+0xd90>
   15a58:	394a4400 	ldrb	w0, [x0, #657]
   15a5c:	3607da80 	tbz	w0, #0, 155ac <_obstack_memory_used@@Base+0x876c>
   15a60:	528002a0 	mov	w0, #0x15                  	// #21
   15a64:	97ffd48f 	bl	aca0 <setlocale@plt+0x6e40>
   15a68:	3607da20 	tbz	w0, #0, 155ac <_obstack_memory_used@@Base+0x876c>
   15a6c:	900000f5 	adrp	x21, 31000 <obstack_alloc_failed_handler@@Base+0xd90>
   15a70:	911142b5 	add	x21, x21, #0x450
   15a74:	97ffb8e3 	bl	3e00 <__errno_location@plt>
   15a78:	f9400f58 	ldr	x24, [x26, #24]
   15a7c:	52800be1 	mov	w1, #0x5f                  	// #95
   15a80:	f94082bb 	ldr	x27, [x21, #256]
   15a84:	b9000001 	str	w1, [x0]
   15a88:	eb1b031f 	cmp	x24, x27
   15a8c:	54000040 	b.eq	15a94 <_obstack_memory_used@@Base+0x8c54>  // b.none
   15a90:	f90082b8 	str	x24, [x21, #256]
   15a94:	3902c35f 	strb	wzr, [x26, #176]
   15a98:	17fffec5 	b	155ac <_obstack_memory_used@@Base+0x876c>
   15a9c:	91006359 	add	x25, x26, #0x18
   15aa0:	17fffeb2 	b	15568 <_obstack_memory_used@@Base+0x8728>
   15aa4:	39400299 	ldrb	w25, [x20]
   15aa8:	7100bf3f 	cmp	w25, #0x2f
   15aac:	54000c81 	b.ne	15c3c <_obstack_memory_used@@Base+0x8dfc>  // b.any
   15ab0:	aa1403f3 	mov	x19, x20
   15ab4:	900000f8 	adrp	x24, 31000 <obstack_alloc_failed_handler@@Base+0xd90>
   15ab8:	aa1303e0 	mov	x0, x19
   15abc:	97fffc96 	bl	14d14 <_obstack_memory_used@@Base+0x7ed4>
   15ac0:	f9000b40 	str	x0, [x26, #16]
   15ac4:	b5ffd3e0 	cbnz	x0, 15540 <_obstack_memory_used@@Base+0x8700>
   15ac8:	528000a2 	mov	w2, #0x5                   	// #5
   15acc:	d0000021 	adrp	x1, 1b000 <_obstack_memory_used@@Base+0xe1c0>
   15ad0:	912ee021 	add	x1, x1, #0xbb8
   15ad4:	97ffb8a3 	bl	3d60 <dcgettext@plt>
   15ad8:	aa1303e2 	mov	x2, x19
   15adc:	aa0003e1 	mov	x1, x0
   15ae0:	2a1703e0 	mov	w0, w23
   15ae4:	97ffd493 	bl	ad30 <setlocale@plt+0x6ed0>
   15ae8:	17fffe96 	b	15540 <_obstack_memory_used@@Base+0x8700>
   15aec:	d14007a1 	sub	x1, x29, #0x1, lsl #12
   15af0:	b202e7e5 	mov	x5, #0xcccccccccccccccc    	// #-3689348814741910324
   15af4:	d10a13a0 	sub	x0, x29, #0x284
   15af8:	f29999a5 	movk	x5, #0xcccd
   15afc:	f9401343 	ldr	x3, [x26, #32]
   15b00:	3935f03f 	strb	wzr, [x1, #3452]
   15b04:	d503201f 	nop
   15b08:	9bc57c62 	umulh	x2, x3, x5
   15b0c:	aa0303e4 	mov	x4, x3
   15b10:	d343fc42 	lsr	x2, x2, #3
   15b14:	8b020841 	add	x1, x2, x2, lsl #2
   15b18:	cb010461 	sub	x1, x3, x1, lsl #1
   15b1c:	aa0203e3 	mov	x3, x2
   15b20:	1100c021 	add	w1, w1, #0x30
   15b24:	381ffc01 	strb	w1, [x0, #-1]!
   15b28:	f100249f 	cmp	x4, #0x9
   15b2c:	54fffee8 	b.hi	15b08 <_obstack_memory_used@@Base+0x8cc8>  // b.pmore
   15b30:	97ffb734 	bl	3800 <strlen@plt>
   15b34:	f00000c1 	adrp	x1, 30000 <_obstack_memory_used@@Base+0x231c0>
   15b38:	b94ef422 	ldr	w2, [x1, #3828]
   15b3c:	6b02001f 	cmp	w0, w2
   15b40:	54ffe30d 	b.le	157a0 <_obstack_memory_used@@Base+0x8960>
   15b44:	b90ef420 	str	w0, [x1, #3828]
   15b48:	17ffff16 	b	157a0 <_obstack_memory_used@@Base+0x8960>
   15b4c:	97ffb8b1 	bl	3e10 <lgetfilecon@plt>
   15b50:	aa1503e1 	mov	x1, x21
   15b54:	97ffdd20 	bl	cfd4 <_obstack_memory_used@@Base+0x194>
   15b58:	36ffefc0 	tbz	w0, #31, 15950 <_obstack_memory_used@@Base+0x8b10>
   15b5c:	97ffb8a9 	bl	3e00 <__errno_location@plt>
   15b60:	aa0003fc 	mov	x28, x0
   15b64:	b9400000 	ldr	w0, [x0]
   15b68:	71017c1f 	cmp	w0, #0x5f
   15b6c:	51005802 	sub	w2, w0, #0x16
   15b70:	1a9f17e1 	cset	w1, eq	// eq = none
   15b74:	7100f41f 	cmp	w0, #0x3d
   15b78:	1a9f17e0 	cset	w0, eq	// eq = none
   15b7c:	721b785f 	tst	w2, #0xffffffef
   15b80:	2a000020 	orr	w0, w1, w0
   15b84:	7a401820 	ccmp	w1, #0x0, #0x0, ne	// ne = any
   15b88:	540000a0 	b.eq	15b9c <_obstack_memory_used@@Base+0x8d5c>  // b.none
   15b8c:	900000e1 	adrp	x1, 31000 <obstack_alloc_failed_handler@@Base+0xd90>
   15b90:	91114021 	add	x1, x1, #0x450
   15b94:	f9400f42 	ldr	x2, [x26, #24]
   15b98:	f9008422 	str	x2, [x1, #264]
   15b9c:	f00000c1 	adrp	x1, 30000 <_obstack_memory_used@@Base+0x231c0>
   15ba0:	91032021 	add	x1, x1, #0xc8
   15ba4:	f9005341 	str	x1, [x26, #160]
   15ba8:	34003480 	cbz	w0, 16238 <_obstack_memory_used@@Base+0x93f8>
   15bac:	b94f2f00 	ldr	w0, [x24, #3884]
   15bb0:	34004a20 	cbz	w0, 164f4 <_obstack_memory_used@@Base+0x96b4>
   15bb4:	b9402b40 	ldr	w0, [x26, #40]
   15bb8:	b900af5f 	str	wzr, [x26, #172]
   15bbc:	12140c00 	and	w0, w0, #0xf000
   15bc0:	7140281f 	cmp	w0, #0xa, lsl #12
   15bc4:	54ffd0c1 	b.ne	155dc <_obstack_memory_used@@Base+0x879c>  // b.any
   15bc8:	900000e0 	adrp	x0, 31000 <obstack_alloc_failed_handler@@Base+0xd90>
   15bcc:	39510000 	ldrb	w0, [x0, #1088]
   15bd0:	3707ee40 	tbnz	w0, #0, 15998 <_obstack_memory_used@@Base+0x8b58>
   15bd4:	528000c1 	mov	w1, #0x6                   	// #6
   15bd8:	17fffe84 	b	155e8 <_obstack_memory_used@@Base+0x87a8>
   15bdc:	aa1303e1 	mov	x1, x19
   15be0:	aa1803e0 	mov	x0, x24
   15be4:	d2803002 	mov	x2, #0x180                 	// #384
   15be8:	97ffb732 	bl	38b0 <reallocarray@plt>
   15bec:	b40027c0 	cbz	x0, 160e4 <_obstack_memory_used@@Base+0x92a4>
   15bf0:	f9422721 	ldr	x1, [x25, #1096]
   15bf4:	aa0003f8 	mov	x24, x0
   15bf8:	f9001f40 	str	x0, [x26, #56]
   15bfc:	f94772d3 	ldr	x19, [x22, #3808]
   15c00:	d37ff820 	lsl	x0, x1, #1
   15c04:	f9022720 	str	x0, [x25, #1096]
   15c08:	17fffe20 	b	15488 <_obstack_memory_used@@Base+0x8648>
   15c0c:	12000001 	and	w1, w0, #0x1
   15c10:	aa1403f3 	mov	x19, x20
   15c14:	900000f8 	adrp	x24, 31000 <obstack_alloc_failed_handler@@Base+0xd90>
   15c18:	17fffe49 	b	1553c <_obstack_memory_used@@Base+0x86fc>
   15c1c:	aa1403e0 	mov	x0, x20
   15c20:	97ffd484 	bl	ae30 <setlocale@plt+0x6fd0>
   15c24:	12001c00 	and	w0, w0, #0xff
   15c28:	b900b740 	str	w0, [x26, #180]
   15c2c:	3607c520 	tbz	w0, #0, 154d0 <_obstack_memory_used@@Base+0x8690>
   15c30:	52800020 	mov	w0, #0x1                   	// #1
   15c34:	393bc320 	strb	w0, [x25, #3824]
   15c38:	17fffe26 	b	154d0 <_obstack_memory_used@@Base+0x8690>
   15c3c:	3940039b 	ldrb	w27, [x28]
   15c40:	aa1403f3 	mov	x19, x20
   15c44:	900000f8 	adrp	x24, 31000 <obstack_alloc_failed_handler@@Base+0xd90>
   15c48:	34fff39b 	cbz	w27, 15ab8 <_obstack_memory_used@@Base+0x8c78>
   15c4c:	d14013a0 	sub	x0, x29, #0x4, lsl #12
   15c50:	b93d4001 	str	w1, [x0, #15680]
   15c54:	aa1403e0 	mov	x0, x20
   15c58:	97ffb6ea 	bl	3800 <strlen@plt>
   15c5c:	aa0003f3 	mov	x19, x0
   15c60:	aa1c03e0 	mov	x0, x28
   15c64:	97ffb6e7 	bl	3800 <strlen@plt>
   15c68:	8b000260 	add	x0, x19, x0
   15c6c:	d14013a1 	sub	x1, x29, #0x4, lsl #12
   15c70:	91004400 	add	x0, x0, #0x11
   15c74:	9270bc02 	and	x2, x0, #0xffffffffffff0000
   15c78:	927cec00 	and	x0, x0, #0xfffffffffffffff0
   15c7c:	cb2263e2 	sub	x2, sp, x2
   15c80:	b97d4021 	ldr	w1, [x1, #15680]
   15c84:	eb2263ff 	cmp	sp, x2
   15c88:	540000a0 	b.eq	15c9c <_obstack_memory_used@@Base+0x8e5c>  // b.none
   15c8c:	d14043ff 	sub	sp, sp, #0x10, lsl #12
   15c90:	f90203ff 	str	xzr, [sp, #1024]
   15c94:	eb2263ff 	cmp	sp, x2
   15c98:	54ffffa1 	b.ne	15c8c <_obstack_memory_used@@Base+0x8e4c>  // b.any
   15c9c:	92403c00 	and	x0, x0, #0xffff
   15ca0:	cb2063ff 	sub	sp, sp, x0
   15ca4:	f90003ff 	str	xzr, [sp]
   15ca8:	f110001f 	cmp	x0, #0x400
   15cac:	540034c2 	b.cs	16344 <_obstack_memory_used@@Base+0x9504>  // b.hs, b.nlast
   15cb0:	910043f3 	add	x19, sp, #0x10
   15cb4:	7100bb7f 	cmp	w27, #0x2e
   15cb8:	540021e0 	b.eq	160f4 <_obstack_memory_used@@Base+0x92b4>  // b.none
   15cbc:	aa1303e2 	mov	x2, x19
   15cc0:	aa1c03e0 	mov	x0, x28
   15cc4:	d503201f 	nop
   15cc8:	aa0203e3 	mov	x3, x2
   15ccc:	3800145b 	strb	w27, [x2], #1
   15cd0:	38401c1b 	ldrb	w27, [x0, #1]!
   15cd4:	35ffffbb 	cbnz	w27, 15cc8 <_obstack_memory_used@@Base+0x8e88>
   15cd8:	eb00039f 	cmp	x28, x0
   15cdc:	540000e2 	b.cs	15cf8 <_obstack_memory_used@@Base+0x8eb8>  // b.hs, b.nlast
   15ce0:	385ff000 	ldurb	w0, [x0, #-1]
   15ce4:	7100bc1f 	cmp	w0, #0x2f
   15ce8:	54000080 	b.eq	15cf8 <_obstack_memory_used@@Base+0x8eb8>  // b.none
   15cec:	528005e0 	mov	w0, #0x2f                  	// #47
   15cf0:	39000040 	strb	w0, [x2]
   15cf4:	91000862 	add	x2, x3, #0x2
   15cf8:	aa1403e0 	mov	x0, x20
   15cfc:	34000099 	cbz	w25, 15d0c <_obstack_memory_used@@Base+0x8ecc>
   15d00:	38001459 	strb	w25, [x2], #1
   15d04:	38401c19 	ldrb	w25, [x0, #1]!
   15d08:	35ffffd9 	cbnz	w25, 15d00 <_obstack_memory_used@@Base+0x8ec0>
   15d0c:	3900005f 	strb	wzr, [x2]
   15d10:	17fffe0b 	b	1553c <_obstack_memory_used@@Base+0x86fc>
   15d14:	b90f0c20 	str	w0, [x1, #3852]
   15d18:	17fffe46 	b	15630 <_obstack_memory_used@@Base+0x87f0>
   15d1c:	71000ebf 	cmp	w21, #0x3
   15d20:	54003860 	b.eq	1642c <_obstack_memory_used@@Base+0x95ec>  // b.none
   15d24:	f00000d3 	adrp	x19, 30000 <_obstack_memory_used@@Base+0x231c0>
   15d28:	397cc260 	ldrb	w0, [x19, #3888]
   15d2c:	12000002 	and	w2, w0, #0x1
   15d30:	37003020 	tbnz	w0, #0, 16334 <_obstack_memory_used@@Base+0x94f4>
   15d34:	900000e0 	adrp	x0, 31000 <obstack_alloc_failed_handler@@Base+0xd90>
   15d38:	39510800 	ldrb	w0, [x0, #1090]
   15d3c:	36003ea0 	tbz	w0, #0, 16510 <_obstack_memory_used@@Base+0x96d0>
   15d40:	d2800820 	mov	x0, #0x41                  	// #65
   15d44:	9ad52400 	lsr	x0, x0, x21
   15d48:	36000200 	tbz	w0, #0, 15d88 <_obstack_memory_used@@Base+0x8f48>
   15d4c:	900000f8 	adrp	x24, 31000 <obstack_alloc_failed_handler@@Base+0xd90>
   15d50:	b9442f00 	ldr	w0, [x24, #1068]
   15d54:	7100101f 	cmp	w0, #0x4
   15d58:	54003e00 	b.eq	16518 <_obstack_memory_used@@Base+0x96d8>  // b.none
   15d5c:	900000e0 	adrp	x0, 31000 <obstack_alloc_failed_handler@@Base+0xd90>
   15d60:	394a4800 	ldrb	w0, [x0, #658]
   15d64:	3707bce0 	tbnz	w0, #0, 15500 <_obstack_memory_used@@Base+0x86c0>
   15d68:	900000e0 	adrp	x0, 31000 <obstack_alloc_failed_handler@@Base+0xd90>
   15d6c:	39510000 	ldrb	w0, [x0, #1088]
   15d70:	3707bc80 	tbnz	w0, #0, 15500 <_obstack_memory_used@@Base+0x86c0>
   15d74:	35ffbc62 	cbnz	w2, 15500 <_obstack_memory_used@@Base+0x86c0>
   15d78:	900000e0 	adrp	x0, 31000 <obstack_alloc_failed_handler@@Base+0xd90>
   15d7c:	39510800 	ldrb	w0, [x0, #1090]
   15d80:	36003c80 	tbz	w0, #0, 16510 <_obstack_memory_used@@Base+0x96d0>
   15d84:	34ffbbf5 	cbz	w21, 15500 <_obstack_memory_used@@Base+0x86c0>
   15d88:	710016bf 	cmp	w21, #0x5
   15d8c:	54003881 	b.ne	1649c <_obstack_memory_used@@Base+0x965c>  // b.any
   15d90:	f00000c0 	adrp	x0, 30000 <_obstack_memory_used@@Base+0x231c0>
   15d94:	b94f8000 	ldr	w0, [x0, #3968]
   15d98:	71000c1f 	cmp	w0, #0x3
   15d9c:	54ffbb00 	b.eq	154fc <_obstack_memory_used@@Base+0x86bc>  // b.none
   15da0:	d14013a0 	sub	x0, x29, #0x4, lsl #12
   15da4:	b93d4001 	str	w1, [x0, #15680]
   15da8:	900000e0 	adrp	x0, 31000 <obstack_alloc_failed_handler@@Base+0xd90>
   15dac:	394a4400 	ldrb	w0, [x0, #657]
   15db0:	36003760 	tbz	w0, #0, 1649c <_obstack_memory_used@@Base+0x965c>
   15db4:	528001c0 	mov	w0, #0xe                   	// #14
   15db8:	97ffd3ba 	bl	aca0 <setlocale@plt+0x6e40>
   15dbc:	d14013a1 	sub	x1, x29, #0x4, lsl #12
   15dc0:	b97d4021 	ldr	w1, [x1, #15680]
   15dc4:	3707b9c0 	tbnz	w0, #0, 154fc <_obstack_memory_used@@Base+0x86bc>
   15dc8:	d14013a0 	sub	x0, x29, #0x4, lsl #12
   15dcc:	b93d4001 	str	w1, [x0, #15680]
   15dd0:	52800200 	mov	w0, #0x10                  	// #16
   15dd4:	97ffd3b3 	bl	aca0 <setlocale@plt+0x6e40>
   15dd8:	d14013a1 	sub	x1, x29, #0x4, lsl #12
   15ddc:	b97d4021 	ldr	w1, [x1, #15680]
   15de0:	3707b8e0 	tbnz	w0, #0, 154fc <_obstack_memory_used@@Base+0x86bc>
   15de4:	d14013a0 	sub	x0, x29, #0x4, lsl #12
   15de8:	b93d4001 	str	w1, [x0, #15680]
   15dec:	52800220 	mov	w0, #0x11                  	// #17
   15df0:	97ffd3ac 	bl	aca0 <setlocale@plt+0x6e40>
   15df4:	d14013a1 	sub	x1, x29, #0x4, lsl #12
   15df8:	b97d4021 	ldr	w1, [x1, #15680]
   15dfc:	3707b800 	tbnz	w0, #0, 154fc <_obstack_memory_used@@Base+0x86bc>
   15e00:	d14013a0 	sub	x0, x29, #0x4, lsl #12
   15e04:	b93d4001 	str	w1, [x0, #15680]
   15e08:	528002a0 	mov	w0, #0x15                  	// #21
   15e0c:	97ffd3a5 	bl	aca0 <setlocale@plt+0x6e40>
   15e10:	36003460 	tbz	w0, #0, 1649c <_obstack_memory_used@@Base+0x965c>
   15e14:	d14013a0 	sub	x0, x29, #0x4, lsl #12
   15e18:	900000f8 	adrp	x24, 31000 <obstack_alloc_failed_handler@@Base+0xd90>
   15e1c:	b97d4001 	ldr	w1, [x0, #15680]
   15e20:	17fffdb8 	b	15500 <_obstack_memory_used@@Base+0x86c0>
   15e24:	900000f8 	adrp	x24, 31000 <obstack_alloc_failed_handler@@Base+0xd90>
   15e28:	17ffff89 	b	15c4c <_obstack_memory_used@@Base+0x8e0c>
   15e2c:	f00000c1 	adrp	x1, 30000 <_obstack_memory_used@@Base+0x231c0>
   15e30:	900000e2 	adrp	x2, 31000 <obstack_alloc_failed_handler@@Base+0xd90>
   15e34:	f9402740 	ldr	x0, [x26, #72]
   15e38:	d2800023 	mov	x3, #0x1                   	// #1
   15e3c:	f9406824 	ldr	x4, [x1, #208]
   15e40:	d10a63a1 	sub	x1, x29, #0x298
   15e44:	b942d042 	ldr	w2, [x2, #720]
   15e48:	97ffd81a 	bl	beb0 <setlocale@plt+0x8050>
   15e4c:	aa0003f5 	mov	x21, x0
   15e50:	97ffb66c 	bl	3800 <strlen@plt>
   15e54:	aa0003e1 	mov	x1, x0
   15e58:	aa1503e0 	mov	x0, x21
   15e5c:	97fff2fd 	bl	12a50 <_obstack_memory_used@@Base+0x5c10>
   15e60:	f00000c1 	adrp	x1, 30000 <_obstack_memory_used@@Base+0x231c0>
   15e64:	b94f1822 	ldr	w2, [x1, #3864]
   15e68:	6b00005f 	cmp	w2, w0
   15e6c:	54ffc92a 	b.ge	15790 <_obstack_memory_used@@Base+0x8950>  // b.tcont
   15e70:	b90f1820 	str	w0, [x1, #3864]
   15e74:	17fffe47 	b	15790 <_obstack_memory_used@@Base+0x8950>
   15e78:	aa1403e0 	mov	x0, x20
   15e7c:	97ffe642 	bl	f784 <_obstack_memory_used@@Base+0x2944>
   15e80:	f9000340 	str	x0, [x26]
   15e84:	d2800013 	mov	x19, #0x0                   	// #0
   15e88:	f94772c0 	ldr	x0, [x22, #3808]
   15e8c:	91000400 	add	x0, x0, #0x1
   15e90:	f90772c0 	str	x0, [x22, #3808]
   15e94:	17fffe49 	b	157b8 <_obstack_memory_used@@Base+0x8978>
   15e98:	7100001f 	cmp	w0, #0x0
   15e9c:	d14013a1 	sub	x1, x29, #0x4, lsl #12
   15ea0:	1a9f07e0 	cset	w0, ne	// ne = any
   15ea4:	b93d4820 	str	w0, [x1, #15688]
   15ea8:	97ffb7d6 	bl	3e00 <__errno_location@plt>
   15eac:	aa0003fc 	mov	x28, x0
   15eb0:	900000e0 	adrp	x0, 31000 <obstack_alloc_failed_handler@@Base+0xd90>
   15eb4:	91114000 	add	x0, x0, #0x450
   15eb8:	f9400f41 	ldr	x1, [x26, #24]
   15ebc:	f9408800 	ldr	x0, [x0, #272]
   15ec0:	eb00003f 	cmp	x1, x0
   15ec4:	54001200 	b.eq	16104 <_obstack_memory_used@@Base+0x92c4>  // b.none
   15ec8:	b900039f 	str	wzr, [x28]
   15ecc:	b9401320 	ldr	w0, [x25, #16]
   15ed0:	12140c00 	and	w0, w0, #0xf000
   15ed4:	7140281f 	cmp	w0, #0xa, lsl #12
   15ed8:	540011a0 	b.eq	1610c <_obstack_memory_used@@Base+0x92cc>  // b.none
   15edc:	d14013a1 	sub	x1, x29, #0x4, lsl #12
   15ee0:	d10a63a0 	sub	x0, x29, #0x298
   15ee4:	d2801315 	mov	x21, #0x98                  	// #152
   15ee8:	f91e9420 	str	x0, [x1, #15656]
   15eec:	f91e983f 	str	xzr, [x1, #15664]
   15ef0:	aa0003e1 	mov	x1, x0
   15ef4:	1400001c 	b	15f64 <_obstack_memory_used@@Base+0x9124>
   15ef8:	b9400380 	ldr	w0, [x28]
   15efc:	7100881f 	cmp	w0, #0x22
   15f00:	54003e41 	b.ne	166c8 <_obstack_memory_used@@Base+0x9888>  // b.any
   15f04:	d14013a0 	sub	x0, x29, #0x4, lsl #12
   15f08:	f95e9800 	ldr	x0, [x0, #15664]
   15f0c:	97ffb755 	bl	3c60 <free@plt>
   15f10:	aa1303e0 	mov	x0, x19
   15f14:	d2800002 	mov	x2, #0x0                   	// #0
   15f18:	d2800001 	mov	x1, #0x0                   	// #0
   15f1c:	97ffb6e9 	bl	3ac0 <listxattr@plt>
   15f20:	f100001f 	cmp	x0, #0x0
   15f24:	5400344d 	b.le	165ac <_obstack_memory_used@@Base+0x976c>
   15f28:	9341fea1 	asr	x1, x21, #1
   15f2c:	d2800002 	mov	x2, #0x0                   	// #0
   15f30:	ab0102b5 	adds	x21, x21, x1
   15f34:	540041c4 	b.mi	1676c <_obstack_memory_used@@Base+0x992c>  // b.first
   15f38:	eb0102bf 	cmp	x21, x1
   15f3c:	54004183 	b.cc	1676c <_obstack_memory_used@@Base+0x992c>  // b.lo, b.ul, b.last
   15f40:	eb0002bf 	cmp	x21, x0
   15f44:	9a80a2b5 	csel	x21, x21, x0, ge	// ge = tcont
   15f48:	b50032a2 	cbnz	x2, 1659c <_obstack_memory_used@@Base+0x975c>
   15f4c:	aa1503e0 	mov	x0, x21
   15f50:	97ffb6a8 	bl	39f0 <malloc@plt>
   15f54:	aa0003e1 	mov	x1, x0
   15f58:	b40040e0 	cbz	x0, 16774 <_obstack_memory_used@@Base+0x9934>
   15f5c:	d14013a0 	sub	x0, x29, #0x4, lsl #12
   15f60:	f91e9801 	str	x1, [x0, #15664]
   15f64:	d14013a0 	sub	x0, x29, #0x4, lsl #12
   15f68:	aa1503e2 	mov	x2, x21
   15f6c:	f91ea001 	str	x1, [x0, #15680]
   15f70:	aa1303e0 	mov	x0, x19
   15f74:	97ffb6d3 	bl	3ac0 <listxattr@plt>
   15f78:	aa0003fb 	mov	x27, x0
   15f7c:	f100001f 	cmp	x0, #0x0
   15f80:	d14013a0 	sub	x0, x29, #0x4, lsl #12
   15f84:	f95ea001 	ldr	x1, [x0, #15680]
   15f88:	54fffb8b 	b.lt	15ef8 <_obstack_memory_used@@Base+0x90b8>  // b.tstop
   15f8c:	54003920 	b.eq	166b0 <_obstack_memory_used@@Base+0x9870>  // b.none
   15f90:	8b1b0035 	add	x21, x1, x27
   15f94:	f0000025 	adrp	x5, 1c000 <_obstack_memory_used@@Base+0xf1c0>
   15f98:	aa0103fb 	mov	x27, x1
   15f9c:	eb15003f 	cmp	x1, x21
   15fa0:	540032e2 	b.cs	165fc <_obstack_memory_used@@Base+0x97bc>  // b.hs, b.nlast
   15fa4:	39400360 	ldrb	w0, [x27]
   15fa8:	9129e0a3 	add	x3, x5, #0xa78
   15fac:	7101cc1f 	cmp	w0, #0x73
   15fb0:	54002c21 	b.ne	16534 <_obstack_memory_used@@Base+0x96f4>  // b.any
   15fb4:	d503201f 	nop
   15fb8:	38401c64 	ldrb	w4, [x3, #1]!
   15fbc:	38401f60 	ldrb	w0, [x27, #1]!
   15fc0:	6b04001f 	cmp	w0, w4
   15fc4:	54002b81 	b.ne	16534 <_obstack_memory_used@@Base+0x96f4>  // b.any
   15fc8:	35ffff80 	cbnz	w0, 15fb8 <_obstack_memory_used@@Base+0x9178>
   15fcc:	d14013a0 	sub	x0, x29, #0x4, lsl #12
   15fd0:	f95e9800 	ldr	x0, [x0, #15664]
   15fd4:	97ffb723 	bl	3c60 <free@plt>
   15fd8:	d14013a0 	sub	x0, x29, #0x4, lsl #12
   15fdc:	f0000025 	adrp	x5, 1c000 <_obstack_memory_used@@Base+0xf1c0>
   15fe0:	d2801303 	mov	x3, #0x98                  	// #152
   15fe4:	9129e0a1 	add	x1, x5, #0xa78
   15fe8:	f95e9402 	ldr	x2, [x0, #15656]
   15fec:	aa1303e0 	mov	x0, x19
   15ff0:	97ffb6f4 	bl	3bc0 <getxattr@plt>
   15ff4:	37f83900 	tbnz	w0, #31, 16714 <_obstack_memory_used@@Base+0x98d4>
   15ff8:	93407c0f 	sxtw	x15, w0
   15ffc:	71000c1f 	cmp	w0, #0x3
   16000:	5400206d 	b.le	1640c <_obstack_memory_used@@Base+0x95cc>
   16004:	d14013a0 	sub	x0, x29, #0x4, lsl #12
   16008:	b97d6800 	ldr	w0, [x0, #15720]
   1600c:	5ac00807 	rev	w7, w0
   16010:	710018ff 	cmp	w7, #0x6
   16014:	54003a68 	b.hi	16760 <_obstack_memory_used@@Base+0x9920>  // b.pmore
   16018:	34003b20 	cbz	w0, 1677c <_obstack_memory_used@@Base+0x993c>
   1601c:	f10051ef 	subs	x15, x15, #0x14
   16020:	54001f64 	b.mi	1640c <_obstack_memory_used@@Base+0x95cc>  // b.first
   16024:	d28ac8aa 	mov	x10, #0x5645                	// #22085
   16028:	528ae9ed 	mov	w13, #0x574f                	// #22351
   1602c:	f2aa48aa 	movk	x10, #0x5245, lsl #16
   16030:	528a48ec 	mov	w12, #0x5247                	// #21063
   16034:	f2c9eb2a 	movk	x10, #0x4f59, lsl #32
   16038:	d10a53a2 	sub	x2, x29, #0x294
   1603c:	52800005 	mov	w5, #0x0                   	// #0
   16040:	52800003 	mov	w3, #0x0                   	// #0
   16044:	52a0c009 	mov	w9, #0x6000000             	// #100663296
   16048:	52a1200b 	mov	w11, #0x9000000             	// #150994944
   1604c:	f2e8a9ca 	movk	x10, #0x454e, lsl #48
   16050:	72a8a9cd 	movk	w13, #0x454e, lsl #16
   16054:	72aaa9ec 	movk	w12, #0x554f, lsl #16
   16058:	52800028 	mov	w8, #0x1                   	// #1
   1605c:	b9400c4e 	ldr	w14, [x2, #12]
   16060:	91004044 	add	x4, x2, #0x10
   16064:	29404041 	ldp	w1, w16, [x2]
   16068:	5ac009c0 	rev	w0, w14
   1606c:	720805df 	tst	w14, #0x3000000
   16070:	53027c00 	lsr	w0, w0, #2
   16074:	5ac00821 	rev	w1, w1
   16078:	1a800400 	cinc	w0, w0, ne	// ne = any
   1607c:	5ac00a10 	rev	w16, w16
   16080:	2a0003e2 	mov	w2, w0
   16084:	d37e7800 	ubfiz	x0, x0, #2, #31
   16088:	7100043f 	cmp	w1, #0x1
   1608c:	54000188 	b.hi	160bc <_obstack_memory_used@@Base+0x927c>  // b.pmore
   16090:	72197a1f 	tst	w16, #0xffffffbf
   16094:	54000141 	b.ne	160bc <_obstack_memory_used@@Base+0x927c>  // b.any
   16098:	eb0001e0 	subs	x0, x15, x0
   1609c:	54001b84 	b.mi	1640c <_obstack_memory_used@@Base+0x95cc>  // b.first
   160a0:	6b0901df 	cmp	w14, w9
   160a4:	54002f00 	b.eq	16684 <_obstack_memory_used@@Base+0x9844>  // b.none
   160a8:	6b0b01df 	cmp	w14, w11
   160ac:	54000081 	b.ne	160bc <_obstack_memory_used@@Base+0x927c>  // b.any
   160b0:	f940008e 	ldr	x14, [x4]
   160b4:	eb0a01df 	cmp	x14, x10
   160b8:	540018e0 	b.eq	163d4 <_obstack_memory_used@@Base+0x9594>  // b.none
   160bc:	52800035 	mov	w21, #0x1                   	// #1
   160c0:	b900039f 	str	wzr, [x28]
   160c4:	710002bf 	cmp	w21, #0x0
   160c8:	54002fad 	b.le	166bc <_obstack_memory_used@@Base+0x987c>
   160cc:	d00000c0 	adrp	x0, 30000 <_obstack_memory_used@@Base+0x231c0>
   160d0:	52800021 	mov	w1, #0x1                   	// #1
   160d4:	52800042 	mov	w2, #0x2                   	// #2
   160d8:	b900af42 	str	w2, [x26, #172]
   160dc:	393bc401 	strb	w1, [x0, #3825]
   160e0:	17fffe28 	b	15980 <_obstack_memory_used@@Base+0x8b40>
   160e4:	f100031f 	cmp	x24, #0x0
   160e8:	fa401a60 	ccmp	x19, #0x0, #0x0, ne	// ne = any
   160ec:	54ffd820 	b.eq	15bf0 <_obstack_memory_used@@Base+0x8db0>  // b.none
   160f0:	97ffdcd9 	bl	d454 <_obstack_memory_used@@Base+0x614>
   160f4:	39400780 	ldrb	w0, [x28, #1]
   160f8:	aa1303e2 	mov	x2, x19
   160fc:	34ffdfe0 	cbz	w0, 15cf8 <_obstack_memory_used@@Base+0x8eb8>
   16100:	17fffeef 	b	15cbc <_obstack_memory_used@@Base+0x8e7c>
   16104:	52800be0 	mov	w0, #0x5f                  	// #95
   16108:	b9000380 	str	w0, [x28]
   1610c:	52800002 	mov	w2, #0x0                   	// #0
   16110:	d14013a0 	sub	x0, x29, #0x4, lsl #12
   16114:	d00000c1 	adrp	x1, 30000 <_obstack_memory_used@@Base+0x231c0>
   16118:	b97d4803 	ldr	w3, [x0, #15688]
   1611c:	7100007f 	cmp	w3, #0x0
   16120:	1a9f07e0 	cset	w0, ne	// ne = any
   16124:	b900af40 	str	w0, [x26, #172]
   16128:	397bc420 	ldrb	w0, [x1, #3825]
   1612c:	1a830000 	csel	w0, w0, w3, eq	// eq = none
   16130:	393bc420 	strb	w0, [x1, #3825]
   16134:	34ffc262 	cbz	w2, 15980 <_obstack_memory_used@@Base+0x8b40>
   16138:	97ffb732 	bl	3e00 <__errno_location@plt>
   1613c:	aa0003fc 	mov	x28, x0
   16140:	1400003f 	b	1623c <_obstack_memory_used@@Base+0x93fc>
   16144:	d14013a0 	sub	x0, x29, #0x4, lsl #12
   16148:	52800061 	mov	w1, #0x3                   	// #3
   1614c:	b97d4c00 	ldr	w0, [x0, #15692]
   16150:	34ffa4c0 	cbz	w0, 155e8 <_obstack_memory_used@@Base+0x87a8>
   16154:	f00000c2 	adrp	x2, 31000 <obstack_alloc_failed_handler@@Base+0xd90>
   16158:	52800120 	mov	w0, #0x9                   	// #9
   1615c:	3950a042 	ldrb	w2, [x2, #1064]
   16160:	f240005f 	tst	x2, #0x1
   16164:	1a810001 	csel	w1, w0, w1, eq	// eq = none
   16168:	17fffd20 	b	155e8 <_obstack_memory_used@@Base+0x87a8>
   1616c:	b9403340 	ldr	w0, [x26, #48]
   16170:	97ffe0a0 	bl	e3f0 <_obstack_memory_used@@Base+0x15b0>
   16174:	d00000c1 	adrp	x1, 30000 <_obstack_memory_used@@Base+0x231c0>
   16178:	b94f0822 	ldr	w2, [x1, #3848]
   1617c:	6b02001f 	cmp	w0, w2
   16180:	54ffbb0d 	b.le	158e0 <_obstack_memory_used@@Base+0x8aa0>
   16184:	b90f0820 	str	w0, [x1, #3848]
   16188:	17fffdd6 	b	158e0 <_obstack_memory_used@@Base+0x8aa0>
   1618c:	f00000c0 	adrp	x0, 31000 <obstack_alloc_failed_handler@@Base+0xd90>
   16190:	b9403755 	ldr	w21, [x26, #52]
   16194:	394b0000 	ldrb	w0, [x0, #704]
   16198:	360018a0 	tbz	w0, #0, 164ac <_obstack_memory_used@@Base+0x966c>
   1619c:	b0000024 	adrp	x4, 1b000 <_obstack_memory_used@@Base+0xe1c0>
   161a0:	2a1503e5 	mov	w5, w21
   161a4:	912c0084 	add	x4, x4, #0xb00
   161a8:	92800003 	mov	x3, #0xffffffffffffffff    	// #-1
   161ac:	52800042 	mov	w2, #0x2                   	// #2
   161b0:	d2800001 	mov	x1, #0x0                   	// #0
   161b4:	d2800000 	mov	x0, #0x0                   	// #0
   161b8:	97ffb602 	bl	39c0 <__snprintf_chk@plt>
   161bc:	d00000c1 	adrp	x1, 30000 <_obstack_memory_used@@Base+0x231c0>
   161c0:	b94f0422 	ldr	w2, [x1, #3844]
   161c4:	6b00005f 	cmp	w2, w0
   161c8:	54ffb86a 	b.ge	158d4 <_obstack_memory_used@@Base+0x8a94>  // b.tcont
   161cc:	b90f0420 	str	w0, [x1, #3844]
   161d0:	17fffdc1 	b	158d4 <_obstack_memory_used@@Base+0x8a94>
   161d4:	b9403340 	ldr	w0, [x26, #48]
   161d8:	97ffe086 	bl	e3f0 <_obstack_memory_used@@Base+0x15b0>
   161dc:	d00000c1 	adrp	x1, 30000 <_obstack_memory_used@@Base+0x231c0>
   161e0:	b94f0022 	ldr	w2, [x1, #3840]
   161e4:	6b02001f 	cmp	w0, w2
   161e8:	54ffb70d 	b.le	158c8 <_obstack_memory_used@@Base+0x8a88>
   161ec:	b90f0020 	str	w0, [x1, #3840]
   161f0:	17fffdb6 	b	158c8 <_obstack_memory_used@@Base+0x8a88>
   161f4:	2a0003e4 	mov	w4, w0
   161f8:	aa1303e1 	mov	x1, x19
   161fc:	aa1903e2 	mov	x2, x25
   16200:	52800003 	mov	w3, #0x0                   	// #0
   16204:	12800c60 	mov	w0, #0xffffff9c            	// #-100
   16208:	97ffd252 	bl	ab50 <setlocale@plt+0x6cf0>
   1620c:	b9442f01 	ldr	w1, [x24, #1068]
   16210:	7100083f 	cmp	w1, #0x2
   16214:	540000c0 	b.eq	1622c <_obstack_memory_used@@Base+0x93ec>  // b.none
   16218:	37f809a0 	tbnz	w0, #31, 1634c <_obstack_memory_used@@Base+0x950c>
   1621c:	b9402b41 	ldr	w1, [x26, #40]
   16220:	12140c21 	and	w1, w1, #0xf000
   16224:	7140103f 	cmp	w1, #0x4, lsl #12
   16228:	54ff9a01 	b.ne	15568 <_obstack_memory_used@@Base+0x8728>  // b.any
   1622c:	2a1703fc 	mov	w28, w23
   16230:	34ff9ae0 	cbz	w0, 1558c <_obstack_memory_used@@Base+0x874c>
   16234:	1400004b 	b	16360 <_obstack_memory_used@@Base+0x9520>
   16238:	b900af5f 	str	wzr, [x26, #172]
   1623c:	b9400395 	ldr	w21, [x28]
   16240:	aa1303e0 	mov	x0, x19
   16244:	97fff1d7 	bl	129a0 <_obstack_memory_used@@Base+0x5b60>
   16248:	aa0003e3 	mov	x3, x0
   1624c:	2a1503e1 	mov	w1, w21
   16250:	b0000022 	adrp	x2, 1b000 <_obstack_memory_used@@Base+0xe1c0>
   16254:	52800000 	mov	w0, #0x0                   	// #0
   16258:	913a2042 	add	x2, x2, #0xe88
   1625c:	97ffb585 	bl	3870 <error@plt>
   16260:	17fffdc8 	b	15980 <_obstack_memory_used@@Base+0x8b40>
   16264:	aa1503e0 	mov	x0, x21
   16268:	97ffb67e 	bl	3c60 <free@plt>
   1626c:	f900075f 	str	xzr, [x26, #8]
   16270:	528000a2 	mov	w2, #0x5                   	// #5
   16274:	d0000021 	adrp	x1, 1c000 <_obstack_memory_used@@Base+0xf1c0>
   16278:	d2800000 	mov	x0, #0x0                   	// #0
   1627c:	912be021 	add	x1, x1, #0xaf8
   16280:	97ffb6b8 	bl	3d60 <dcgettext@plt>
   16284:	aa1303e2 	mov	x2, x19
   16288:	aa0003e1 	mov	x1, x0
   1628c:	2a1703e0 	mov	w0, w23
   16290:	97ffd2a8 	bl	ad30 <setlocale@plt+0x6ed0>
   16294:	f9400740 	ldr	x0, [x26, #8]
   16298:	b40002c0 	cbz	x0, 162f0 <_obstack_memory_used@@Base+0x94b0>
   1629c:	b940b741 	ldr	w1, [x26, #180]
   162a0:	340011c1 	cbz	w1, 164d8 <_obstack_memory_used@@Base+0x9698>
   162a4:	d00000c0 	adrp	x0, 30000 <_obstack_memory_used@@Base+0x231c0>
   162a8:	b94f8000 	ldr	w0, [x0, #3968]
   162ac:	7100041f 	cmp	w0, #0x1
   162b0:	54000088 	b.hi	162c0 <_obstack_memory_used@@Base+0x9480>  // b.pmore
   162b4:	f00000c0 	adrp	x0, 31000 <obstack_alloc_failed_handler@@Base+0xd90>
   162b8:	39510000 	ldrb	w0, [x0, #1088]
   162bc:	360001a0 	tbz	w0, #0, 162f0 <_obstack_memory_used@@Base+0x94b0>
   162c0:	aa1303e1 	mov	x1, x19
   162c4:	d10a63a2 	sub	x2, x29, #0x298
   162c8:	52800044 	mov	w4, #0x2                   	// #2
   162cc:	52800003 	mov	w3, #0x0                   	// #0
   162d0:	12800c60 	mov	w0, #0xffffff9c            	// #-100
   162d4:	97ffd21f 	bl	ab50 <setlocale@plt+0x6cf0>
   162d8:	350000c0 	cbnz	w0, 162f0 <_obstack_memory_used@@Base+0x94b0>
   162dc:	d14013a0 	sub	x0, x29, #0x4, lsl #12
   162e0:	b97d7801 	ldr	w1, [x0, #15736]
   162e4:	52800020 	mov	w0, #0x1                   	// #1
   162e8:	b9009f41 	str	w1, [x26, #156]
   162ec:	3902a740 	strb	w0, [x26, #169]
   162f0:	b9402b40 	ldr	w0, [x26, #40]
   162f4:	12140c00 	and	w0, w0, #0xf000
   162f8:	7140281f 	cmp	w0, #0xa, lsl #12
   162fc:	54ff9701 	b.ne	155dc <_obstack_memory_used@@Base+0x879c>  // b.any
   16300:	528000c1 	mov	w1, #0x6                   	// #6
   16304:	17fffcb9 	b	155e8 <_obstack_memory_used@@Base+0x87a8>
   16308:	38206b7f 	strb	wzr, [x27, x0]
   1630c:	91000419 	add	x25, x0, #0x1
   16310:	b4000455 	cbz	x21, 16398 <_obstack_memory_used@@Base+0x9558>
   16314:	eb19039f 	cmp	x28, x25
   16318:	54000528 	b.hi	163bc <_obstack_memory_used@@Base+0x957c>  // b.pmore
   1631c:	aa1503e0 	mov	x0, x21
   16320:	f9000740 	str	x0, [x26, #8]
   16324:	17ffffde 	b	1629c <_obstack_memory_used@@Base+0x945c>
   16328:	393bc422 	strb	w2, [x1, #3825]
   1632c:	b900af5f 	str	wzr, [x26, #172]
   16330:	17fffd94 	b	15980 <_obstack_memory_used@@Base+0x8b40>
   16334:	d2800820 	mov	x0, #0x41                  	// #65
   16338:	9ad52400 	lsr	x0, x0, x21
   1633c:	3707d080 	tbnz	w0, #0, 15d4c <_obstack_memory_used@@Base+0x8f0c>
   16340:	17fffc6f 	b	154fc <_obstack_memory_used@@Base+0x86bc>
   16344:	f90203ff 	str	xzr, [sp, #1024]
   16348:	17fffe5a 	b	15cb0 <_obstack_memory_used@@Base+0x8e70>
   1634c:	97ffb6ad 	bl	3e00 <__errno_location@plt>
   16350:	b9400000 	ldr	w0, [x0]
   16354:	7100a01f 	cmp	w0, #0x28
   16358:	7a421804 	ccmp	w0, #0x2, #0x4, ne	// ne = any
   1635c:	54ff9060 	b.eq	15568 <_obstack_memory_used@@Base+0x8728>  // b.none
   16360:	528000a2 	mov	w2, #0x5                   	// #5
   16364:	d0000021 	adrp	x1, 1c000 <_obstack_memory_used@@Base+0xf1c0>
   16368:	d2800000 	mov	x0, #0x0                   	// #0
   1636c:	912b0021 	add	x1, x1, #0xac0
   16370:	97ffb67c 	bl	3d60 <dcgettext@plt>
   16374:	aa0003e1 	mov	x1, x0
   16378:	aa1303e2 	mov	x2, x19
   1637c:	52800020 	mov	w0, #0x1                   	// #1
   16380:	97ffd26c 	bl	ad30 <setlocale@plt+0x6ed0>
   16384:	d2800013 	mov	x19, #0x0                   	// #0
   16388:	d00000c0 	adrp	x0, 30000 <_obstack_memory_used@@Base+0x231c0>
   1638c:	91032000 	add	x0, x0, #0xc8
   16390:	f9005340 	str	x0, [x26, #160]
   16394:	17fffd09 	b	157b8 <_obstack_memory_used@@Base+0x8978>
   16398:	aa1903e0 	mov	x0, x25
   1639c:	97ffb595 	bl	39f0 <malloc@plt>
   163a0:	b4fff660 	cbz	x0, 1626c <_obstack_memory_used@@Base+0x942c>
   163a4:	aa1b03e1 	mov	x1, x27
   163a8:	aa1903e3 	mov	x3, x25
   163ac:	aa1903e2 	mov	x2, x25
   163b0:	97ffb57c 	bl	39a0 <__memcpy_chk@plt>
   163b4:	f9000740 	str	x0, [x26, #8]
   163b8:	17ffffb9 	b	1629c <_obstack_memory_used@@Base+0x945c>
   163bc:	aa1903e1 	mov	x1, x25
   163c0:	aa1503e0 	mov	x0, x21
   163c4:	97ffb5c7 	bl	3ae0 <realloc@plt>
   163c8:	b4fffaa0 	cbz	x0, 1631c <_obstack_memory_used@@Base+0x94dc>
   163cc:	f9000740 	str	x0, [x26, #8]
   163d0:	17ffffb3 	b	1629c <_obstack_memory_used@@Base+0x945c>
   163d4:	3940208e 	ldrb	w14, [x4, #8]
   163d8:	710101df 	cmp	w14, #0x40
   163dc:	54ffe701 	b.ne	160bc <_obstack_memory_used@@Base+0x927c>  // b.any
   163e0:	321e0021 	orr	w1, w1, #0x4
   163e4:	1ac12101 	lsl	w1, w8, w1
   163e8:	6a030035 	ands	w21, w1, w3
   163ec:	54ffe681 	b.ne	160bc <_obstack_memory_used@@Base+0x927c>  // b.any
   163f0:	110004a5 	add	w5, w5, #0x1
   163f4:	2a010063 	orr	w3, w3, w1
   163f8:	8b020882 	add	x2, x4, x2, lsl #2
   163fc:	6b0700bf 	cmp	w5, w7
   16400:	54ffe602 	b.cs	160c0 <_obstack_memory_used@@Base+0x9280>  // b.hs, b.nlast
   16404:	f100400f 	subs	x15, x0, #0x10
   16408:	54ffe2a5 	b.pl	1605c <_obstack_memory_used@@Base+0x921c>  // b.nfrst
   1640c:	528002c0 	mov	w0, #0x16                  	// #22
   16410:	52800022 	mov	w2, #0x1                   	// #1
   16414:	b9000380 	str	w0, [x28]
   16418:	f00000c0 	adrp	x0, 31000 <obstack_alloc_failed_handler@@Base+0xd90>
   1641c:	91114000 	add	x0, x0, #0x450
   16420:	f9400f41 	ldr	x1, [x26, #24]
   16424:	f9008801 	str	x1, [x0, #272]
   16428:	17ffff3a 	b	16110 <_obstack_memory_used@@Base+0x92d0>
   1642c:	f00000c0 	adrp	x0, 31000 <obstack_alloc_failed_handler@@Base+0xd90>
   16430:	394a4400 	ldrb	w0, [x0, #657]
   16434:	360002e0 	tbz	w0, #0, 16490 <_obstack_memory_used@@Base+0x9650>
   16438:	d14013a0 	sub	x0, x29, #0x4, lsl #12
   1643c:	b93d4001 	str	w1, [x0, #15680]
   16440:	52800260 	mov	w0, #0x13                  	// #19
   16444:	97ffd217 	bl	aca0 <setlocale@plt+0x6e40>
   16448:	d14013a1 	sub	x1, x29, #0x4, lsl #12
   1644c:	b97d4021 	ldr	w1, [x1, #15680]
   16450:	37078560 	tbnz	w0, #0, 154fc <_obstack_memory_used@@Base+0x86bc>
   16454:	d14013a0 	sub	x0, x29, #0x4, lsl #12
   16458:	b93d4001 	str	w1, [x0, #15680]
   1645c:	52800240 	mov	w0, #0x12                  	// #18
   16460:	97ffd210 	bl	aca0 <setlocale@plt+0x6e40>
   16464:	d14013a1 	sub	x1, x29, #0x4, lsl #12
   16468:	b97d4021 	ldr	w1, [x1, #15680]
   1646c:	37078480 	tbnz	w0, #0, 154fc <_obstack_memory_used@@Base+0x86bc>
   16470:	d14013a0 	sub	x0, x29, #0x4, lsl #12
   16474:	b93d4001 	str	w1, [x0, #15680]
   16478:	52800280 	mov	w0, #0x14                  	// #20
   1647c:	97ffd209 	bl	aca0 <setlocale@plt+0x6e40>
   16480:	d14013a1 	sub	x1, x29, #0x4, lsl #12
   16484:	b97d4021 	ldr	w1, [x1, #15680]
   16488:	370783a0 	tbnz	w0, #0, 154fc <_obstack_memory_used@@Base+0x86bc>
   1648c:	d503201f 	nop
   16490:	d00000d3 	adrp	x19, 30000 <_obstack_memory_used@@Base+0x231c0>
   16494:	397cc260 	ldrb	w0, [x19, #3888]
   16498:	37078320 	tbnz	w0, #0, 154fc <_obstack_memory_used@@Base+0x86bc>
   1649c:	397cc260 	ldrb	w0, [x19, #3888]
   164a0:	d2800013 	mov	x19, #0x0                   	// #0
   164a4:	12000002 	and	w2, w0, #0x1
   164a8:	17fffcbd 	b	1579c <_obstack_memory_used@@Base+0x895c>
   164ac:	2a1503e0 	mov	w0, w21
   164b0:	97ffdff1 	bl	e474 <_obstack_memory_used@@Base+0x1634>
   164b4:	aa0003f7 	mov	x23, x0
   164b8:	b4ffe720 	cbz	x0, 1619c <_obstack_memory_used@@Base+0x935c>
   164bc:	97ffb4d1 	bl	3800 <strlen@plt>
   164c0:	aa0003e1 	mov	x1, x0
   164c4:	aa1703e0 	mov	x0, x23
   164c8:	97fff162 	bl	12a50 <_obstack_memory_used@@Base+0x5c10>
   164cc:	7100001f 	cmp	w0, #0x0
   164d0:	1a9fa000 	csel	w0, w0, wzr, ge	// ge = tcont
   164d4:	17ffff3a 	b	161bc <_obstack_memory_used@@Base+0x937c>
   164d8:	97ffd256 	bl	ae30 <setlocale@plt+0x6fd0>
   164dc:	36000060 	tbz	w0, #0, 164e8 <_obstack_memory_used@@Base+0x96a8>
   164e0:	12800000 	mov	w0, #0xffffffff            	// #-1
   164e4:	b900b740 	str	w0, [x26, #180]
   164e8:	f9400740 	ldr	x0, [x26, #8]
   164ec:	b5ffedc0 	cbnz	x0, 162a4 <_obstack_memory_used@@Base+0x9464>
   164f0:	17ffff80 	b	162f0 <_obstack_memory_used@@Base+0x94b0>
   164f4:	d14013a0 	sub	x0, x29, #0x4, lsl #12
   164f8:	b93d481f 	str	wzr, [x0, #15688]
   164fc:	17fffe6d 	b	15eb0 <_obstack_memory_used@@Base+0x9070>
   16500:	97ffb640 	bl	3e00 <__errno_location@plt>
   16504:	52800181 	mov	w1, #0xc                   	// #12
   16508:	b9000001 	str	w1, [x0]
   1650c:	17ffff58 	b	1626c <_obstack_memory_used@@Base+0x942c>
   16510:	d2800013 	mov	x19, #0x0                   	// #0
   16514:	17fffca3 	b	157a0 <_obstack_memory_used@@Base+0x8960>
   16518:	39400299 	ldrb	w25, [x20]
   1651c:	7100bf3f 	cmp	w25, #0x2f
   16520:	54000ac0 	b.eq	16678 <_obstack_memory_used@@Base+0x9838>  // b.none
   16524:	3940039b 	ldrb	w27, [x28]
   16528:	aa1403f3 	mov	x19, x20
   1652c:	34ff80bb 	cbz	w27, 15540 <_obstack_memory_used@@Base+0x8700>
   16530:	17fffdc7 	b	15c4c <_obstack_memory_used@@Base+0x8e0c>
   16534:	d14013a0 	sub	x0, x29, #0x4, lsl #12
   16538:	f91ea001 	str	x1, [x0, #15680]
   1653c:	aa1b03e0 	mov	x0, x27
   16540:	97ffb4b0 	bl	3800 <strlen@plt>
   16544:	91000400 	add	x0, x0, #0x1
   16548:	8b00037b 	add	x27, x27, x0
   1654c:	d14013a0 	sub	x0, x29, #0x4, lsl #12
   16550:	eb1b02bf 	cmp	x21, x27
   16554:	d0000025 	adrp	x5, 1c000 <_obstack_memory_used@@Base+0xf1c0>
   16558:	f95ea001 	ldr	x1, [x0, #15680]
   1655c:	54ffd248 	b.hi	15fa4 <_obstack_memory_used@@Base+0x9164>  // b.pmore
   16560:	aa0103e2 	mov	x2, x1
   16564:	d000003b 	adrp	x27, 1c000 <_obstack_memory_used@@Base+0xf1c0>
   16568:	39400040 	ldrb	w0, [x2]
   1656c:	912a2363 	add	x3, x27, #0xa88
   16570:	7101cc1f 	cmp	w0, #0x73
   16574:	54000201 	b.ne	165b4 <_obstack_memory_used@@Base+0x9774>  // b.any
   16578:	38401c64 	ldrb	w4, [x3, #1]!
   1657c:	38401c40 	ldrb	w0, [x2, #1]!
   16580:	6b04001f 	cmp	w0, w4
   16584:	54000181 	b.ne	165b4 <_obstack_memory_used@@Base+0x9774>  // b.any
   16588:	35ffff80 	cbnz	w0, 16578 <_obstack_memory_used@@Base+0x9738>
   1658c:	d14013a0 	sub	x0, x29, #0x4, lsl #12
   16590:	f95e9800 	ldr	x0, [x0, #15664]
   16594:	97ffb5b3 	bl	3c60 <free@plt>
   16598:	17fffecd 	b	160cc <_obstack_memory_used@@Base+0x928c>
   1659c:	52800180 	mov	w0, #0xc                   	// #12
   165a0:	52800022 	mov	w2, #0x1                   	// #1
   165a4:	b9000380 	str	w0, [x28]
   165a8:	17fffeda 	b	16110 <_obstack_memory_used@@Base+0x92d0>
   165ac:	2a0003f5 	mov	w21, w0
   165b0:	17fffec5 	b	160c4 <_obstack_memory_used@@Base+0x9284>
   165b4:	d14013a0 	sub	x0, x29, #0x4, lsl #12
   165b8:	f91e9401 	str	x1, [x0, #15656]
   165bc:	d14013a1 	sub	x1, x29, #0x4, lsl #12
   165c0:	aa0203e0 	mov	x0, x2
   165c4:	f91ea022 	str	x2, [x1, #15680]
   165c8:	97ffb48e 	bl	3800 <strlen@plt>
   165cc:	d14013a1 	sub	x1, x29, #0x4, lsl #12
   165d0:	91000400 	add	x0, x0, #0x1
   165d4:	f95ea022 	ldr	x2, [x1, #15680]
   165d8:	f95e9421 	ldr	x1, [x1, #15656]
   165dc:	8b000042 	add	x2, x2, x0
   165e0:	eb0202bf 	cmp	x21, x2
   165e4:	54fffc28 	b.hi	16568 <_obstack_memory_used@@Base+0x9728>  // b.pmore
   165e8:	b9401320 	ldr	w0, [x25, #16]
   165ec:	d0000039 	adrp	x25, 1c000 <_obstack_memory_used@@Base+0xf1c0>
   165f0:	12140c00 	and	w0, w0, #0xf000
   165f4:	7140101f 	cmp	w0, #0x4, lsl #12
   165f8:	540002c0 	b.eq	16650 <_obstack_memory_used@@Base+0x9810>  // b.none
   165fc:	d14013a0 	sub	x0, x29, #0x4, lsl #12
   16600:	f95e9800 	ldr	x0, [x0, #15664]
   16604:	97ffb597 	bl	3c60 <free@plt>
   16608:	b9400380 	ldr	w0, [x28]
   1660c:	52800002 	mov	w2, #0x0                   	// #0
   16610:	51005801 	sub	w1, w0, #0x16
   16614:	71017c1f 	cmp	w0, #0x5f
   16618:	121b7820 	and	w0, w1, #0xffffffef
   1661c:	7a401804 	ccmp	w0, #0x0, #0x4, ne	// ne = any
   16620:	54ffefc0 	b.eq	16418 <_obstack_memory_used@@Base+0x95d8>  // b.none
   16624:	17fffebb 	b	16110 <_obstack_memory_used@@Base+0x92d0>
   16628:	d14013a2 	sub	x2, x29, #0x4, lsl #12
   1662c:	aa0103e0 	mov	x0, x1
   16630:	f91ea041 	str	x1, [x2, #15680]
   16634:	97ffb473 	bl	3800 <strlen@plt>
   16638:	d14013a1 	sub	x1, x29, #0x4, lsl #12
   1663c:	91000400 	add	x0, x0, #0x1
   16640:	f95ea021 	ldr	x1, [x1, #15680]
   16644:	8b000021 	add	x1, x1, x0
   16648:	eb0102bf 	cmp	x21, x1
   1664c:	54fffd89 	b.ls	165fc <_obstack_memory_used@@Base+0x97bc>  // b.plast
   16650:	39400020 	ldrb	w0, [x1]
   16654:	912a8322 	add	x2, x25, #0xaa0
   16658:	7101cc1f 	cmp	w0, #0x73
   1665c:	54fffe61 	b.ne	16628 <_obstack_memory_used@@Base+0x97e8>  // b.any
   16660:	38401c43 	ldrb	w3, [x2, #1]!
   16664:	38401c20 	ldrb	w0, [x1, #1]!
   16668:	6b03001f 	cmp	w0, w3
   1666c:	54fffde1 	b.ne	16628 <_obstack_memory_used@@Base+0x97e8>  // b.any
   16670:	35ffff80 	cbnz	w0, 16660 <_obstack_memory_used@@Base+0x9820>
   16674:	17ffffc6 	b	1658c <_obstack_memory_used@@Base+0x974c>
   16678:	aa1403f3 	mov	x19, x20
   1667c:	97ffd0f6 	bl	aa54 <setlocale@plt+0x6bf4>
   16680:	17fffc61 	b	15804 <_obstack_memory_used@@Base+0x89c4>
   16684:	b940008e 	ldr	w14, [x4]
   16688:	6b0d01df 	cmp	w14, w13
   1668c:	54000600 	b.eq	1674c <_obstack_memory_used@@Base+0x990c>  // b.none
   16690:	6b0c01df 	cmp	w14, w12
   16694:	54ffd141 	b.ne	160bc <_obstack_memory_used@@Base+0x927c>  // b.any
   16698:	7940088f 	ldrh	w15, [x4, #4]
   1669c:	52880a0e 	mov	w14, #0x4050                	// #16464
   166a0:	6b0e01ff 	cmp	w15, w14
   166a4:	54ffd0c1 	b.ne	160bc <_obstack_memory_used@@Base+0x927c>  // b.any
   166a8:	321f0021 	orr	w1, w1, #0x2
   166ac:	17ffff4e 	b	163e4 <_obstack_memory_used@@Base+0x95a4>
   166b0:	f95e9800 	ldr	x0, [x0, #15664]
   166b4:	97ffb56b 	bl	3c60 <free@plt>
   166b8:	52800015 	mov	w21, #0x0                   	// #0
   166bc:	b9400380 	ldr	w0, [x28]
   166c0:	531f7ea2 	lsr	w2, w21, #31
   166c4:	17ffffd3 	b	16610 <_obstack_memory_used@@Base+0x97d0>
   166c8:	d14013a0 	sub	x0, x29, #0x4, lsl #12
   166cc:	2a1b03f5 	mov	w21, w27
   166d0:	f95e9800 	ldr	x0, [x0, #15664]
   166d4:	97ffb563 	bl	3c60 <free@plt>
   166d8:	36ffcf7b 	tbz	w27, #31, 160c4 <_obstack_memory_used@@Base+0x9284>
   166dc:	b9400380 	ldr	w0, [x28]
   166e0:	7100981f 	cmp	w0, #0x26
   166e4:	54000140 	b.eq	1670c <_obstack_memory_used@@Base+0x98cc>  // b.none
   166e8:	540000ec 	b.gt	16704 <_obstack_memory_used@@Base+0x98c4>
   166ec:	7100401f 	cmp	w0, #0x10
   166f0:	54ffd0e0 	b.eq	1610c <_obstack_memory_used@@Base+0x92cc>  // b.none
   166f4:	7100581f 	cmp	w0, #0x16
   166f8:	540000a0 	b.eq	1670c <_obstack_memory_used@@Base+0x98cc>  // b.none
   166fc:	52800022 	mov	w2, #0x1                   	// #1
   16700:	17ffffc4 	b	16610 <_obstack_memory_used@@Base+0x97d0>
   16704:	71017c1f 	cmp	w0, #0x5f
   16708:	54ffffa1 	b.ne	166fc <_obstack_memory_used@@Base+0x98bc>  // b.any
   1670c:	52800002 	mov	w2, #0x0                   	// #0
   16710:	17ffff42 	b	16418 <_obstack_memory_used@@Base+0x95d8>
   16714:	b9400380 	ldr	w0, [x28]
   16718:	7100881f 	cmp	w0, #0x22
   1671c:	54ffcd80 	b.eq	160cc <_obstack_memory_used@@Base+0x928c>  // b.none
   16720:	7100f41f 	cmp	w0, #0x3d
   16724:	54ffcf40 	b.eq	1610c <_obstack_memory_used@@Base+0x92cc>  // b.none
   16728:	17ffffee 	b	166e0 <_obstack_memory_used@@Base+0x98a0>
   1672c:	97ffb5b5 	bl	3e00 <__errno_location@plt>
   16730:	aa0003fc 	mov	x28, x0
   16734:	52800be1 	mov	w1, #0x5f                  	// #95
   16738:	d00000c0 	adrp	x0, 30000 <_obstack_memory_used@@Base+0x231c0>
   1673c:	91032000 	add	x0, x0, #0xc8
   16740:	b9000381 	str	w1, [x28]
   16744:	f9005340 	str	x0, [x26, #160]
   16748:	17fffd19 	b	15bac <_obstack_memory_used@@Base+0x8d6c>
   1674c:	79400890 	ldrh	w16, [x4, #4]
   16750:	52880a4f 	mov	w15, #0x4052                	// #16466
   16754:	6b0f021f 	cmp	w16, w15
   16758:	54fff9c1 	b.ne	16690 <_obstack_memory_used@@Base+0x9850>  // b.any
   1675c:	17ffff22 	b	163e4 <_obstack_memory_used@@Base+0x95a4>
   16760:	b900039f 	str	wzr, [x28]
   16764:	17fffe5a 	b	160cc <_obstack_memory_used@@Base+0x928c>
   16768:	97ffb4ea 	bl	3b10 <__stack_chk_fail@plt>
   1676c:	d2800022 	mov	x2, #0x1                   	// #1
   16770:	17fffdf4 	b	15f40 <_obstack_memory_used@@Base+0x9100>
   16774:	12800015 	mov	w21, #0xffffffff            	// #-1
   16778:	17ffffd1 	b	166bc <_obstack_memory_used@@Base+0x987c>
   1677c:	b900039f 	str	wzr, [x28]
   16780:	17ffffce 	b	166b8 <_obstack_memory_used@@Base+0x9878>
   16784:	d503233f 	paciasp
   16788:	a9bd7bfd 	stp	x29, x30, [sp, #-48]!
   1678c:	f00000c3 	adrp	x3, 31000 <obstack_alloc_failed_handler@@Base+0xd90>
   16790:	910003fd 	mov	x29, sp
   16794:	b00000c2 	adrp	x2, 2f000 <_obstack_memory_used@@Base+0x221c0>
   16798:	f947e842 	ldr	x2, [x2, #4048]
   1679c:	a90153f3 	stp	x19, x20, [sp, #16]
   167a0:	d10a83ff 	sub	sp, sp, #0x2a0
   167a4:	394a4463 	ldrb	w3, [x3, #657]
   167a8:	f9400044 	ldr	x4, [x2]
   167ac:	f9014fe4 	str	x4, [sp, #664]
   167b0:	d2800004 	mov	x4, #0x0                   	// #0
   167b4:	aa0003f3 	mov	x19, x0
   167b8:	aa0103f4 	mov	x20, x1
   167bc:	36000083 	tbz	w3, #0, 167cc <_obstack_memory_used@@Base+0x998c>
   167c0:	52800080 	mov	w0, #0x4                   	// #4
   167c4:	97ffd137 	bl	aca0 <setlocale@plt+0x6e40>
   167c8:	37000de0 	tbnz	w0, #0, 16984 <_obstack_memory_used@@Base+0x9b44>
   167cc:	d00000c0 	adrp	x0, 30000 <_obstack_memory_used@@Base+0x231c0>
   167d0:	397cc000 	ldrb	w0, [x0, #3888]
   167d4:	360001e0 	tbz	w0, #0, 16810 <_obstack_memory_used@@Base+0x99d0>
   167d8:	d00000c1 	adrp	x1, 30000 <_obstack_memory_used@@Base+0x231c0>
   167dc:	d00000c2 	adrp	x2, 30000 <_obstack_memory_used@@Base+0x231c0>
   167e0:	3942a260 	ldrb	w0, [x19, #168]
   167e4:	b94f2c21 	ldr	w1, [x1, #3884]
   167e8:	b94ef442 	ldr	w2, [x2, #3828]
   167ec:	7100103f 	cmp	w1, #0x4
   167f0:	1a9f1042 	csel	w2, w2, wzr, ne	// ne = any
   167f4:	370007a0 	tbnz	w0, #0, 168e8 <_obstack_memory_used@@Base+0x9aa8>
   167f8:	b0000023 	adrp	x3, 1b000 <_obstack_memory_used@@Base+0xe1c0>
   167fc:	912c2063 	add	x3, x3, #0xb08
   16800:	b0000021 	adrp	x1, 1b000 <_obstack_memory_used@@Base+0xe1c0>
   16804:	52800040 	mov	w0, #0x2                   	// #2
   16808:	912c4021 	add	x1, x1, #0xb10
   1680c:	97ffb49d 	bl	3a80 <__printf_chk@plt>
   16810:	d00000c0 	adrp	x0, 30000 <_obstack_memory_used@@Base+0x231c0>
   16814:	397ca000 	ldrb	w0, [x0, #3880]
   16818:	36000240 	tbz	w0, #0, 16860 <_obstack_memory_used@@Base+0x9a20>
   1681c:	d00000c1 	adrp	x1, 30000 <_obstack_memory_used@@Base+0x231c0>
   16820:	3942a260 	ldrb	w0, [x19, #168]
   16824:	d00000c2 	adrp	x2, 30000 <_obstack_memory_used@@Base+0x231c0>
   16828:	f90163f5 	str	x21, [sp, #704]
   1682c:	b94f2c21 	ldr	w1, [x1, #3884]
   16830:	b0000023 	adrp	x3, 1b000 <_obstack_memory_used@@Base+0xe1c0>
   16834:	b94ef855 	ldr	w21, [x2, #3832]
   16838:	912c2063 	add	x3, x3, #0xb08
   1683c:	7100103f 	cmp	w1, #0x4
   16840:	1a9f12b5 	csel	w21, w21, wzr, ne	// ne = any
   16844:	37000b40 	tbnz	w0, #0, 169ac <_obstack_memory_used@@Base+0x9b6c>
   16848:	2a1503e2 	mov	w2, w21
   1684c:	b0000021 	adrp	x1, 1b000 <_obstack_memory_used@@Base+0xe1c0>
   16850:	52800040 	mov	w0, #0x2                   	// #2
   16854:	912c4021 	add	x1, x1, #0xb10
   16858:	97ffb48a 	bl	3a80 <__printf_chk@plt>
   1685c:	f94163f5 	ldr	x21, [sp, #704]
   16860:	f00000c0 	adrp	x0, 31000 <obstack_alloc_failed_handler@@Base+0xd90>
   16864:	39407000 	ldrb	w0, [x0, #28]
   16868:	36000180 	tbz	w0, #0, 16898 <_obstack_memory_used@@Base+0x9a58>
   1686c:	d00000c2 	adrp	x2, 30000 <_obstack_memory_used@@Base+0x231c0>
   16870:	d00000c0 	adrp	x0, 30000 <_obstack_memory_used@@Base+0x231c0>
   16874:	f9405263 	ldr	x3, [x19, #160]
   16878:	b0000021 	adrp	x1, 1b000 <_obstack_memory_used@@Base+0xe1c0>
   1687c:	b94f2c44 	ldr	w4, [x2, #3884]
   16880:	912c4021 	add	x1, x1, #0xb10
   16884:	b94f0c02 	ldr	w2, [x0, #3852]
   16888:	52800040 	mov	w0, #0x2                   	// #2
   1688c:	7100109f 	cmp	w4, #0x4
   16890:	1a9f1042 	csel	w2, w2, wzr, ne	// ne = any
   16894:	97ffb47b 	bl	3a80 <__printf_chk@plt>
   16898:	aa1403e3 	mov	x3, x20
   1689c:	aa1303e0 	mov	x0, x19
   168a0:	d2800002 	mov	x2, #0x0                   	// #0
   168a4:	52800001 	mov	w1, #0x0                   	// #0
   168a8:	97ffdce6 	bl	dc40 <_obstack_memory_used@@Base+0xe00>
   168ac:	d00000c0 	adrp	x0, 30000 <_obstack_memory_used@@Base+0x231c0>
   168b0:	b94f8000 	ldr	w0, [x0, #3968]
   168b4:	35000400 	cbnz	w0, 16934 <_obstack_memory_used@@Base+0x9af4>
   168b8:	b00000c0 	adrp	x0, 2f000 <_obstack_memory_used@@Base+0x221c0>
   168bc:	f947e800 	ldr	x0, [x0, #4048]
   168c0:	f9414fe2 	ldr	x2, [sp, #664]
   168c4:	f9400001 	ldr	x1, [x0]
   168c8:	eb010042 	subs	x2, x2, x1
   168cc:	d2800001 	mov	x1, #0x0                   	// #0
   168d0:	54000941 	b.ne	169f8 <_obstack_memory_used@@Base+0x9bb8>  // b.any
   168d4:	910a83ff 	add	sp, sp, #0x2a0
   168d8:	a94153f3 	ldp	x19, x20, [sp, #16]
   168dc:	a8c37bfd 	ldp	x29, x30, [sp], #48
   168e0:	d50323bf 	autiasp
   168e4:	d65f03c0 	ret
   168e8:	f9401261 	ldr	x1, [x19, #32]
   168ec:	b0000023 	adrp	x3, 1b000 <_obstack_memory_used@@Base+0xe1c0>
   168f0:	912c2063 	add	x3, x3, #0xb08
   168f4:	b4fff861 	cbz	x1, 16800 <_obstack_memory_used@@Base+0x99c0>
   168f8:	b202e7e6 	mov	x6, #0xcccccccccccccccc    	// #-3689348814741910324
   168fc:	910073e3 	add	x3, sp, #0x1c
   16900:	f29999a6 	movk	x6, #0xcccd
   16904:	390073ff 	strb	wzr, [sp, #28]
   16908:	9bc67c24 	umulh	x4, x1, x6
   1690c:	aa0103e5 	mov	x5, x1
   16910:	d343fc84 	lsr	x4, x4, #3
   16914:	8b040880 	add	x0, x4, x4, lsl #2
   16918:	cb000420 	sub	x0, x1, x0, lsl #1
   1691c:	aa0403e1 	mov	x1, x4
   16920:	1100c000 	add	w0, w0, #0x30
   16924:	381ffc60 	strb	w0, [x3, #-1]!
   16928:	f10024bf 	cmp	x5, #0x9
   1692c:	54fffee8 	b.hi	16908 <_obstack_memory_used@@Base+0x9ac8>  // b.pmore
   16930:	17ffffb4 	b	16800 <_obstack_memory_used@@Base+0x99c0>
   16934:	b9402a61 	ldr	w1, [x19, #40]
   16938:	3942a260 	ldrb	w0, [x19, #168]
   1693c:	b9409a62 	ldr	w2, [x19, #152]
   16940:	97ffd174 	bl	af10 <setlocale@plt+0x70b0>
   16944:	72001c01 	ands	w1, w0, #0xff
   16948:	54fffb80 	b.eq	168b8 <_obstack_memory_used@@Base+0x9a78>  // b.none
   1694c:	b00000c2 	adrp	x2, 2f000 <_obstack_memory_used@@Base+0x221c0>
   16950:	f947e042 	ldr	x2, [x2, #4032]
   16954:	d00000c4 	adrp	x4, 30000 <_obstack_memory_used@@Base+0x231c0>
   16958:	f9416083 	ldr	x3, [x4, #704]
   1695c:	f9400042 	ldr	x2, [x2]
   16960:	91000463 	add	x3, x3, #0x1
   16964:	f9016083 	str	x3, [x4, #704]
   16968:	a9429043 	ldp	x3, x4, [x2, #40]
   1696c:	eb04007f 	cmp	x3, x4
   16970:	540003e2 	b.cs	169ec <_obstack_memory_used@@Base+0x9bac>  // b.hs, b.nlast
   16974:	91000461 	add	x1, x3, #0x1
   16978:	f9001441 	str	x1, [x2, #40]
   1697c:	39000060 	strb	w0, [x3]
   16980:	17ffffce 	b	168b8 <_obstack_memory_used@@Base+0x9a78>
   16984:	d00000c0 	adrp	x0, 30000 <_obstack_memory_used@@Base+0x231c0>
   16988:	9103c000 	add	x0, x0, #0xf0
   1698c:	97ffd19d 	bl	b000 <setlocale@plt+0x71a0>
   16990:	d00000c0 	adrp	x0, 30000 <_obstack_memory_used@@Base+0x231c0>
   16994:	9104c000 	add	x0, x0, #0x130
   16998:	97ffd19a 	bl	b000 <setlocale@plt+0x71a0>
   1699c:	d00000c0 	adrp	x0, 30000 <_obstack_memory_used@@Base+0x231c0>
   169a0:	91040000 	add	x0, x0, #0x100
   169a4:	97ffd197 	bl	b000 <setlocale@plt+0x71a0>
   169a8:	17ffff89 	b	167cc <_obstack_memory_used@@Base+0x998c>
   169ac:	f00000c1 	adrp	x1, 31000 <obstack_alloc_failed_handler@@Base+0xd90>
   169b0:	f00000c2 	adrp	x2, 31000 <obstack_alloc_failed_handler@@Base+0xd90>
   169b4:	f9402e60 	ldr	x0, [x19, #88]
   169b8:	d2804003 	mov	x3, #0x200                 	// #512
   169bc:	f9400824 	ldr	x4, [x1, #16]
   169c0:	910023e1 	add	x1, sp, #0x8
   169c4:	b9401842 	ldr	w2, [x2, #24]
   169c8:	97ffd53a 	bl	beb0 <setlocale@plt+0x8050>
   169cc:	aa0003e3 	mov	x3, x0
   169d0:	2a1503e2 	mov	w2, w21
   169d4:	b0000021 	adrp	x1, 1b000 <_obstack_memory_used@@Base+0xe1c0>
   169d8:	52800040 	mov	w0, #0x2                   	// #2
   169dc:	912c4021 	add	x1, x1, #0xb10
   169e0:	97ffb428 	bl	3a80 <__printf_chk@plt>
   169e4:	f94163f5 	ldr	x21, [sp, #704]
   169e8:	17ffff9e 	b	16860 <_obstack_memory_used@@Base+0x9a20>
   169ec:	aa0203e0 	mov	x0, x2
   169f0:	97ffb470 	bl	3bb0 <__overflow@plt>
   169f4:	17ffffb1 	b	168b8 <_obstack_memory_used@@Base+0x9a78>
   169f8:	f90163f5 	str	x21, [sp, #704]
   169fc:	97ffb445 	bl	3b10 <__stack_chk_fail@plt>
   16a00:	a9be7bfd 	stp	x29, x30, [sp, #-32]!
   16a04:	9e660006 	fmov	x6, d0
   16a08:	9eae0007 	fmov	x7, v0.d[1]
   16a0c:	910003fd 	mov	x29, sp
   16a10:	9e660028 	fmov	x8, d1
   16a14:	9eae0029 	fmov	x9, v1.d[1]
   16a18:	d53b4405 	mrs	x5, fpcr
   16a1c:	d37ffce2 	lsr	x2, x7, #63
   16a20:	d340bce1 	ubfx	x1, x7, #0, #48
   16a24:	12001c4b 	and	w11, w2, #0xff
   16a28:	d370f8e0 	ubfx	x0, x7, #48, #15
   16a2c:	34001b40 	cbz	w0, 16d94 <_obstack_memory_used@@Base+0x9f54>
   16a30:	528fffe2 	mov	w2, #0x7fff                	// #32767
   16a34:	6b02001f 	cmp	w0, w2
   16a38:	540015e0 	b.eq	16cf4 <_obstack_memory_used@@Base+0x9eb4>  // b.none
   16a3c:	2a0003e0 	mov	w0, w0
   16a40:	93c6f421 	extr	x1, x1, x6, #61
   16a44:	b24d002c 	orr	x12, x1, #0x8000000000000
   16a48:	d37df0c6 	lsl	x6, x6, #3
   16a4c:	9287ffd1 	mov	x17, #0xffffffffffffc001    	// #-16383
   16a50:	d2800003 	mov	x3, #0x0                   	// #0
   16a54:	8b110007 	add	x7, x0, x17
   16a58:	d280000e 	mov	x14, #0x0                   	// #0
   16a5c:	52800000 	mov	w0, #0x0                   	// #0
   16a60:	d37ffd24 	lsr	x4, x9, #63
   16a64:	d340bd22 	ubfx	x2, x9, #0, #48
   16a68:	12001c8a 	and	w10, w4, #0xff
   16a6c:	d370f921 	ubfx	x1, x9, #48, #15
   16a70:	340015c1 	cbz	w1, 16d28 <_obstack_memory_used@@Base+0x9ee8>
   16a74:	528fffe9 	mov	w9, #0x7fff                	// #32767
   16a78:	6b09003f 	cmp	w1, w9
   16a7c:	54001b00 	b.eq	16ddc <_obstack_memory_used@@Base+0x9f9c>  // b.none
   16a80:	2a0103e1 	mov	w1, w1
   16a84:	93c8f442 	extr	x2, x2, x8, #61
   16a88:	9287ffd0 	mov	x16, #0xffffffffffffc001    	// #-16383
   16a8c:	8b100021 	add	x1, x1, x16
   16a90:	b24d004d 	orr	x13, x2, #0x8000000000000
   16a94:	cb0100e7 	sub	x7, x7, x1
   16a98:	d37df102 	lsl	x2, x8, #3
   16a9c:	4a0a0169 	eor	w9, w11, w10
   16aa0:	d1000463 	sub	x3, x3, #0x1
   16aa4:	12001d29 	and	w9, w9, #0xff
   16aa8:	f1002c7f 	cmp	x3, #0xb
   16aac:	54000068 	b.hi	16ab8 <_obstack_memory_used@@Base+0x9c78>  // b.pmore
   16ab0:	71002c7f 	cmp	w3, #0xb
   16ab4:	54001be9 	b.ls	16e30 <_obstack_memory_used@@Base+0x9ff0>  // b.plast
   16ab8:	eb0d019f 	cmp	x12, x13
   16abc:	54002529 	b.ls	16f60 <_obstack_memory_used@@Base+0xa120>  // b.plast
   16ac0:	d341fd84 	lsr	x4, x12, #1
   16ac4:	93c60581 	extr	x1, x12, x6, #1
   16ac8:	d34100c6 	lsl	x6, x6, #63
   16acc:	d354cdab 	ubfx	x11, x13, #20, #32
   16ad0:	93c2d1aa 	extr	x10, x13, x2, #52
   16ad4:	92407d4c 	and	x12, x10, #0xffffffff
   16ad8:	d374cc43 	lsl	x3, x2, #12
   16adc:	9acb088d 	udiv	x13, x4, x11
   16ae0:	9b0b91a4 	msub	x4, x13, x11, x4
   16ae4:	9b0d7d82 	mul	x2, x12, x13
   16ae8:	93c18084 	extr	x4, x4, x1, #32
   16aec:	eb04005f 	cmp	x2, x4
   16af0:	540000c9 	b.ls	16b08 <_obstack_memory_used@@Base+0x9cc8>  // b.plast
   16af4:	ab040144 	adds	x4, x10, x4
   16af8:	d10005a8 	sub	x8, x13, #0x1
   16afc:	fa443040 	ccmp	x2, x4, #0x0, cc	// cc = lo, ul, last
   16b00:	54003828 	b.hi	17204 <_obstack_memory_used@@Base+0xa3c4>  // b.pmore
   16b04:	aa0803ed 	mov	x13, x8
   16b08:	cb020084 	sub	x4, x4, x2
   16b0c:	9acb0882 	udiv	x2, x4, x11
   16b10:	9b0b9044 	msub	x4, x2, x11, x4
   16b14:	9b027d90 	mul	x16, x12, x2
   16b18:	b3607c81 	bfi	x1, x4, #32, #32
   16b1c:	aa0103e8 	mov	x8, x1
   16b20:	eb01021f 	cmp	x16, x1
   16b24:	540000c9 	b.ls	16b3c <_obstack_memory_used@@Base+0x9cfc>  // b.plast
   16b28:	ab010148 	adds	x8, x10, x1
   16b2c:	d1000441 	sub	x1, x2, #0x1
   16b30:	fa483200 	ccmp	x16, x8, #0x0, cc	// cc = lo, ul, last
   16b34:	54003628 	b.hi	171f8 <_obstack_memory_used@@Base+0xa3b8>  // b.pmore
   16b38:	aa0103e2 	mov	x2, x1
   16b3c:	aa0d8051 	orr	x17, x2, x13, lsl #32
   16b40:	92407c6f 	and	x15, x3, #0xffffffff
   16b44:	92407e2d 	and	x13, x17, #0xffffffff
   16b48:	d360fc6e 	lsr	x14, x3, #32
   16b4c:	d360fe22 	lsr	x2, x17, #32
   16b50:	cb100101 	sub	x1, x8, x16
   16b54:	d2c00032 	mov	x18, #0x100000000           	// #4294967296
   16b58:	9b0f7da4 	mul	x4, x13, x15
   16b5c:	9b0f7c5e 	mul	x30, x2, x15
   16b60:	9b0d79cd 	madd	x13, x14, x13, x30
   16b64:	92407c90 	and	x16, x4, #0xffffffff
   16b68:	9b0e7c42 	mul	x2, x2, x14
   16b6c:	8b4481a4 	add	x4, x13, x4, lsr #32
   16b70:	8b120048 	add	x8, x2, x18
   16b74:	eb0403df 	cmp	x30, x4
   16b78:	9a828102 	csel	x2, x8, x2, hi	// hi = pmore
   16b7c:	8b048210 	add	x16, x16, x4, lsl #32
   16b80:	8b448048 	add	x8, x2, x4, lsr #32
   16b84:	eb08003f 	cmp	x1, x8
   16b88:	54002583 	b.cc	17038 <_obstack_memory_used@@Base+0xa1f8>  // b.lo, b.ul, b.last
   16b8c:	fa5000c2 	ccmp	x6, x16, #0x2, eq	// eq = none
   16b90:	aa1103ed 	mov	x13, x17
   16b94:	54002523 	b.cc	17038 <_obstack_memory_used@@Base+0xa1f8>  // b.lo, b.ul, b.last
   16b98:	eb1000c6 	subs	x6, x6, x16
   16b9c:	2a0903e4 	mov	w4, w9
   16ba0:	da080021 	sbc	x1, x1, x8
   16ba4:	eb01015f 	cmp	x10, x1
   16ba8:	540033c0 	b.eq	17220 <_obstack_memory_used@@Base+0xa3e0>  // b.none
   16bac:	9acb0828 	udiv	x8, x1, x11
   16bb0:	9b0b8501 	msub	x1, x8, x11, x1
   16bb4:	9b087d82 	mul	x2, x12, x8
   16bb8:	93c68021 	extr	x1, x1, x6, #32
   16bbc:	eb01005f 	cmp	x2, x1
   16bc0:	540000c9 	b.ls	16bd8 <_obstack_memory_used@@Base+0x9d98>  // b.plast
   16bc4:	ab010141 	adds	x1, x10, x1
   16bc8:	d1000510 	sub	x16, x8, #0x1
   16bcc:	fa413040 	ccmp	x2, x1, #0x0, cc	// cc = lo, ul, last
   16bd0:	54003888 	b.hi	172e0 <_obstack_memory_used@@Base+0xa4a0>  // b.pmore
   16bd4:	aa1003e8 	mov	x8, x16
   16bd8:	cb020021 	sub	x1, x1, x2
   16bdc:	9acb0822 	udiv	x2, x1, x11
   16be0:	9b0b844b 	msub	x11, x2, x11, x1
   16be4:	aa0603e1 	mov	x1, x6
   16be8:	9b027d8c 	mul	x12, x12, x2
   16bec:	b3607d61 	bfi	x1, x11, #32, #32
   16bf0:	eb01019f 	cmp	x12, x1
   16bf4:	540000c9 	b.ls	16c0c <_obstack_memory_used@@Base+0x9dcc>  // b.plast
   16bf8:	ab010141 	adds	x1, x10, x1
   16bfc:	d1000446 	sub	x6, x2, #0x1
   16c00:	fa413180 	ccmp	x12, x1, #0x0, cc	// cc = lo, ul, last
   16c04:	54003688 	b.hi	172d4 <_obstack_memory_used@@Base+0xa494>  // b.pmore
   16c08:	aa0603e2 	mov	x2, x6
   16c0c:	aa088048 	orr	x8, x2, x8, lsl #32
   16c10:	cb0c0021 	sub	x1, x1, x12
   16c14:	92407d02 	and	x2, x8, #0xffffffff
   16c18:	d2c00030 	mov	x16, #0x100000000           	// #4294967296
   16c1c:	d360fd11 	lsr	x17, x8, #32
   16c20:	9b027de6 	mul	x6, x15, x2
   16c24:	9b0f7e2f 	mul	x15, x17, x15
   16c28:	9b023dcb 	madd	x11, x14, x2, x15
   16c2c:	92407ccc 	and	x12, x6, #0xffffffff
   16c30:	9b117dc2 	mul	x2, x14, x17
   16c34:	8b468166 	add	x6, x11, x6, lsr #32
   16c38:	8b10004b 	add	x11, x2, x16
   16c3c:	eb0601ff 	cmp	x15, x6
   16c40:	9a828162 	csel	x2, x11, x2, hi	// hi = pmore
   16c44:	8b06818b 	add	x11, x12, x6, lsl #32
   16c48:	8b468042 	add	x2, x2, x6, lsr #32
   16c4c:	eb02003f 	cmp	x1, x2
   16c50:	540027e2 	b.cs	1714c <_obstack_memory_used@@Base+0xa30c>  // b.hs, b.nlast
   16c54:	ab010146 	adds	x6, x10, x1
   16c58:	d100050c 	sub	x12, x8, #0x1
   16c5c:	aa0603e1 	mov	x1, x6
   16c60:	540000a2 	b.cs	16c74 <_obstack_memory_used@@Base+0x9e34>  // b.hs, b.nlast
   16c64:	eb0200df 	cmp	x6, x2
   16c68:	54003003 	b.cc	17268 <_obstack_memory_used@@Base+0xa428>  // b.lo, b.ul, b.last
   16c6c:	fa4b0062 	ccmp	x3, x11, #0x2, eq	// eq = none
   16c70:	54002fc3 	b.cc	17268 <_obstack_memory_used@@Base+0xa428>  // b.lo, b.ul, b.last
   16c74:	eb0b007f 	cmp	x3, x11
   16c78:	aa0c03e8 	mov	x8, x12
   16c7c:	1a9f07e6 	cset	w6, ne	// ne = any
   16c80:	710000df 	cmp	w6, #0x0
   16c84:	2a0903ea 	mov	w10, w9
   16c88:	fa420020 	ccmp	x1, x2, #0x0, eq	// eq = none
   16c8c:	9a9f07e2 	cset	x2, ne	// ne = any
   16c90:	aa080042 	orr	x2, x2, x8
   16c94:	d287ffe3 	mov	x3, #0x3fff                	// #16383
   16c98:	8b0300e1 	add	x1, x7, x3
   16c9c:	f100003f 	cmp	x1, #0x0
   16ca0:	5400112d 	b.le	16ec4 <_obstack_memory_used@@Base+0xa084>
   16ca4:	f240085f 	tst	x2, #0x7
   16ca8:	54001861 	b.ne	16fb4 <_obstack_memory_used@@Base+0xa174>  // b.any
   16cac:	b6a0006d 	tbz	x13, #52, 16cb8 <_obstack_memory_used@@Base+0x9e78>
   16cb0:	924bf9ad 	and	x13, x13, #0xffefffffffffffff
   16cb4:	914010e1 	add	x1, x7, #0x4, lsl #12
   16cb8:	d28fffc3 	mov	x3, #0x7ffe                	// #32766
   16cbc:	eb03003f 	cmp	x1, x3
   16cc0:	54001fac 	b.gt	170b4 <_obstack_memory_used@@Base+0xa274>
   16cc4:	12003821 	and	w1, w1, #0x7fff
   16cc8:	93c20da6 	extr	x6, x13, x2, #3
   16ccc:	d343c9a2 	ubfx	x2, x13, #3, #48
   16cd0:	d2800005 	mov	x5, #0x0                   	// #0
   16cd4:	2a0a3c21 	orr	w1, w1, w10, lsl #15
   16cd8:	b340bc45 	bfxil	x5, x2, #0, #48
   16cdc:	9e6700c0 	fmov	d0, x6
   16ce0:	b3503c25 	bfi	x5, x1, #48, #16
   16ce4:	9eaf00a0 	fmov	v0.d[1], x5
   16ce8:	350004c0 	cbnz	w0, 16d80 <_obstack_memory_used@@Base+0x9f40>
   16cec:	a8c27bfd 	ldp	x29, x30, [sp], #32
   16cf0:	d65f03c0 	ret
   16cf4:	aa0100cc 	orr	x12, x6, x1
   16cf8:	b5000c4c 	cbnz	x12, 16e80 <_obstack_memory_used@@Base+0xa040>
   16cfc:	d37ffd24 	lsr	x4, x9, #63
   16d00:	d340bd22 	ubfx	x2, x9, #0, #48
   16d04:	12001c8a 	and	w10, w4, #0xff
   16d08:	d370f921 	ubfx	x1, x9, #48, #15
   16d0c:	d2800006 	mov	x6, #0x0                   	// #0
   16d10:	d2800103 	mov	x3, #0x8                   	// #8
   16d14:	d28fffe7 	mov	x7, #0x7fff                	// #32767
   16d18:	d280004e 	mov	x14, #0x2                   	// #2
   16d1c:	52800000 	mov	w0, #0x0                   	// #0
   16d20:	35ffeaa1 	cbnz	w1, 16a74 <_obstack_memory_used@@Base+0x9c34>
   16d24:	d503201f 	nop
   16d28:	aa020101 	orr	x1, x8, x2
   16d2c:	b50008e1 	cbnz	x1, 16e48 <_obstack_memory_used@@Base+0xa008>
   16d30:	b2400063 	orr	x3, x3, #0x1
   16d34:	d2800022 	mov	x2, #0x1                   	// #1
   16d38:	4a0a0169 	eor	w9, w11, w10
   16d3c:	d1000863 	sub	x3, x3, #0x2
   16d40:	12001d29 	and	w9, w9, #0xff
   16d44:	f100307f 	cmp	x3, #0xc
   16d48:	54000068 	b.hi	16d54 <_obstack_memory_used@@Base+0x9f14>  // b.pmore
   16d4c:	7100307f 	cmp	w3, #0xc
   16d50:	54001629 	b.ls	17014 <_obstack_memory_used@@Base+0xa1d4>  // b.plast
   16d54:	2a0903ea 	mov	w10, w9
   16d58:	321f0000 	orr	w0, w0, #0x2
   16d5c:	528fffe1 	mov	w1, #0x7fff                	// #32767
   16d60:	d2800002 	mov	x2, #0x0                   	// #0
   16d64:	d2800006 	mov	x6, #0x0                   	// #0
   16d68:	d2800005 	mov	x5, #0x0                   	// #0
   16d6c:	2a0a3c21 	orr	w1, w1, w10, lsl #15
   16d70:	b340bc45 	bfxil	x5, x2, #0, #48
   16d74:	9e6700c0 	fmov	d0, x6
   16d78:	b3503c25 	bfi	x5, x1, #48, #16
   16d7c:	9eaf00a0 	fmov	v0.d[1], x5
   16d80:	3d8007e0 	str	q0, [sp, #16]
   16d84:	94000463 	bl	17f10 <_obstack_memory_used@@Base+0xb0d0>
   16d88:	3dc007e0 	ldr	q0, [sp, #16]
   16d8c:	a8c27bfd 	ldp	x29, x30, [sp], #32
   16d90:	d65f03c0 	ret
   16d94:	aa0100cc 	orr	x12, x6, x1
   16d98:	b400084c 	cbz	x12, 16ea0 <_obstack_memory_used@@Base+0xa060>
   16d9c:	b40017a1 	cbz	x1, 17090 <_obstack_memory_used@@Base+0xa250>
   16da0:	dac01022 	clz	x2, x1
   16da4:	d1003c40 	sub	x0, x2, #0xf
   16da8:	11000c03 	add	w3, w0, #0x3
   16dac:	528007ac 	mov	w12, #0x3d                  	// #61
   16db0:	4b00018c 	sub	w12, w12, w0
   16db4:	9ac32021 	lsl	x1, x1, x3
   16db8:	9acc24cc 	lsr	x12, x6, x12
   16dbc:	aa01018c 	orr	x12, x12, x1
   16dc0:	9ac320c6 	lsl	x6, x6, x3
   16dc4:	9287fdc0 	mov	x0, #0xffffffffffffc011    	// #-16367
   16dc8:	d2800003 	mov	x3, #0x0                   	// #0
   16dcc:	cb020007 	sub	x7, x0, x2
   16dd0:	d280000e 	mov	x14, #0x0                   	// #0
   16dd4:	52800000 	mov	w0, #0x0                   	// #0
   16dd8:	17ffff22 	b	16a60 <_obstack_memory_used@@Base+0x9c20>
   16ddc:	928fffc9 	mov	x9, #0xffffffffffff8001    	// #-32767
   16de0:	8b0900e7 	add	x7, x7, x9
   16de4:	aa020109 	orr	x9, x8, x2
   16de8:	b4000689 	cbz	x9, 16eb8 <_obstack_memory_used@@Base+0xa078>
   16dec:	b2400463 	orr	x3, x3, #0x3
   16df0:	4a0a0169 	eor	w9, w11, w10
   16df4:	b240bbe4 	mov	x4, #0x7fffffffffff        	// #140737488355327
   16df8:	d1001063 	sub	x3, x3, #0x4
   16dfc:	eb04005f 	cmp	x2, x4
   16e00:	12001d29 	and	w9, w9, #0xff
   16e04:	1a9f8400 	csinc	w0, w0, wzr, hi	// hi = pmore
   16e08:	f1002c7f 	cmp	x3, #0xb
   16e0c:	54000068 	b.hi	16e18 <_obstack_memory_used@@Base+0x9fd8>  // b.pmore
   16e10:	71002c7f 	cmp	w3, #0xb
   16e14:	540016e9 	b.ls	170f0 <_obstack_memory_used@@Base+0xa2b0>  // b.plast
   16e18:	aa0203ec 	mov	x12, x2
   16e1c:	aa0803e6 	mov	x6, x8
   16e20:	b2510182 	orr	x2, x12, #0x800000000000
   16e24:	528fffe1 	mov	w1, #0x7fff                	// #32767
   16e28:	9240bc42 	and	x2, x2, #0xffffffffffff
   16e2c:	17ffffa9 	b	16cd0 <_obstack_memory_used@@Base+0x9e90>
   16e30:	d0000021 	adrp	x1, 1c000 <_obstack_memory_used@@Base+0xf1c0>
   16e34:	913a6021 	add	x1, x1, #0xe98
   16e38:	38634821 	ldrb	w1, [x1, w3, uxtw]
   16e3c:	10000063 	adr	x3, 16e48 <_obstack_memory_used@@Base+0xa008>
   16e40:	8b218861 	add	x1, x3, w1, sxtb #2
   16e44:	d61f0020 	br	x1
   16e48:	b4001142 	cbz	x2, 17070 <_obstack_memory_used@@Base+0xa230>
   16e4c:	dac01041 	clz	x1, x2
   16e50:	d1003c29 	sub	x9, x1, #0xf
   16e54:	11000d2f 	add	w15, w9, #0x3
   16e58:	528007ad 	mov	w13, #0x3d                  	// #61
   16e5c:	4b0901ad 	sub	w13, w13, w9
   16e60:	9acf2042 	lsl	x2, x2, x15
   16e64:	9acd250d 	lsr	x13, x8, x13
   16e68:	aa0201ad 	orr	x13, x13, x2
   16e6c:	9acf2102 	lsl	x2, x8, x15
   16e70:	8b070021 	add	x1, x1, x7
   16e74:	d287fdef 	mov	x15, #0x3fef                	// #16367
   16e78:	8b0f0027 	add	x7, x1, x15
   16e7c:	17ffff08 	b	16a9c <_obstack_memory_used@@Base+0x9c5c>
   16e80:	b240bbe0 	mov	x0, #0x7fffffffffff        	// #140737488355327
   16e84:	eb00003f 	cmp	x1, x0
   16e88:	aa0103ec 	mov	x12, x1
   16e8c:	1a9f87e0 	cset	w0, ls	// ls = plast
   16e90:	d2800183 	mov	x3, #0xc                   	// #12
   16e94:	d28fffe7 	mov	x7, #0x7fff                	// #32767
   16e98:	d280006e 	mov	x14, #0x3                   	// #3
   16e9c:	17fffef1 	b	16a60 <_obstack_memory_used@@Base+0x9c20>
   16ea0:	d2800006 	mov	x6, #0x0                   	// #0
   16ea4:	d2800083 	mov	x3, #0x4                   	// #4
   16ea8:	d2800007 	mov	x7, #0x0                   	// #0
   16eac:	d280002e 	mov	x14, #0x1                   	// #1
   16eb0:	52800000 	mov	w0, #0x0                   	// #0
   16eb4:	17fffeeb 	b	16a60 <_obstack_memory_used@@Base+0x9c20>
   16eb8:	b27f0063 	orr	x3, x3, #0x2
   16ebc:	d2800042 	mov	x2, #0x2                   	// #2
   16ec0:	17ffff9e 	b	16d38 <_obstack_memory_used@@Base+0x9ef8>
   16ec4:	d2800023 	mov	x3, #0x1                   	// #1
   16ec8:	cb010061 	sub	x1, x3, x1
   16ecc:	f101d03f 	cmp	x1, #0x74
   16ed0:	5400132c 	b.gt	17134 <_obstack_memory_used@@Base+0xa2f4>
   16ed4:	f100fc3f 	cmp	x1, #0x3f
   16ed8:	540014cd 	b.le	17170 <_obstack_memory_used@@Base+0xa330>
   16edc:	52801003 	mov	w3, #0x80                  	// #128
   16ee0:	4b010063 	sub	w3, w3, w1
   16ee4:	f101003f 	cmp	x1, #0x40
   16ee8:	51010021 	sub	w1, w1, #0x40
   16eec:	9ac321a3 	lsl	x3, x13, x3
   16ef0:	aa030043 	orr	x3, x2, x3
   16ef4:	9a821062 	csel	x2, x3, x2, ne	// ne = any
   16ef8:	9ac125a1 	lsr	x1, x13, x1
   16efc:	f100005f 	cmp	x2, #0x0
   16f00:	9a9f07e6 	cset	x6, ne	// ne = any
   16f04:	aa0100c6 	orr	x6, x6, x1
   16f08:	f24008c2 	ands	x2, x6, #0x7
   16f0c:	54001be0 	b.eq	17288 <_obstack_memory_used@@Base+0xa448>  // b.none
   16f10:	d2800002 	mov	x2, #0x0                   	// #0
   16f14:	926a04a5 	and	x5, x5, #0xc00000
   16f18:	321c0000 	orr	w0, w0, #0x10
   16f1c:	f15000bf 	cmp	x5, #0x400, lsl #12
   16f20:	54001ec0 	b.eq	172f8 <_obstack_memory_used@@Base+0xa4b8>  // b.none
   16f24:	f16000bf 	cmp	x5, #0x800, lsl #12
   16f28:	54001f00 	b.eq	17308 <_obstack_memory_used@@Base+0xa4c8>  // b.none
   16f2c:	b50000e5 	cbnz	x5, 16f48 <_obstack_memory_used@@Base+0xa108>
   16f30:	92400cc1 	and	x1, x6, #0xf
   16f34:	f100103f 	cmp	x1, #0x4
   16f38:	54000080 	b.eq	16f48 <_obstack_memory_used@@Base+0xa108>  // b.none
   16f3c:	b10010c6 	adds	x6, x6, #0x4
   16f40:	9a823442 	cinc	x2, x2, cs	// cs = hs, nlast
   16f44:	d503201f 	nop
   16f48:	b7981302 	tbnz	x2, #51, 171a8 <_obstack_memory_used@@Base+0xa368>
   16f4c:	321d0000 	orr	w0, w0, #0x8
   16f50:	93c60c46 	extr	x6, x2, x6, #3
   16f54:	52800001 	mov	w1, #0x0                   	// #0
   16f58:	d343c842 	ubfx	x2, x2, #3, #48
   16f5c:	17ffff83 	b	16d68 <_obstack_memory_used@@Base+0x9f28>
   16f60:	fa4200c0 	ccmp	x6, x2, #0x0, eq	// eq = none
   16f64:	54ffdae2 	b.cs	16ac0 <_obstack_memory_used@@Base+0x9c80>  // b.hs, b.nlast
   16f68:	aa0603e1 	mov	x1, x6
   16f6c:	d10004e7 	sub	x7, x7, #0x1
   16f70:	aa0c03e4 	mov	x4, x12
   16f74:	d2800006 	mov	x6, #0x0                   	// #0
   16f78:	17fffed5 	b	16acc <_obstack_memory_used@@Base+0x9c8c>
   16f7c:	2a0903ea 	mov	w10, w9
   16f80:	52800001 	mov	w1, #0x0                   	// #0
   16f84:	d2800002 	mov	x2, #0x0                   	// #0
   16f88:	d2800006 	mov	x6, #0x0                   	// #0
   16f8c:	17ffff51 	b	16cd0 <_obstack_memory_used@@Base+0x9e90>
   16f90:	aa0e03e2 	mov	x2, x14
   16f94:	2a0b03e4 	mov	w4, w11
   16f98:	2a0b03ea 	mov	w10, w11
   16f9c:	f100045f 	cmp	x2, #0x1
   16fa0:	54000a01 	b.ne	170e0 <_obstack_memory_used@@Base+0xa2a0>  // b.any
   16fa4:	52800001 	mov	w1, #0x0                   	// #0
   16fa8:	d2800002 	mov	x2, #0x0                   	// #0
   16fac:	d2800006 	mov	x6, #0x0                   	// #0
   16fb0:	17ffff48 	b	16cd0 <_obstack_memory_used@@Base+0x9e90>
   16fb4:	926a04a3 	and	x3, x5, #0xc00000
   16fb8:	321c0000 	orr	w0, w0, #0x10
   16fbc:	f150007f 	cmp	x3, #0x400, lsl #12
   16fc0:	54001700 	b.eq	172a0 <_obstack_memory_used@@Base+0xa460>  // b.none
   16fc4:	f160007f 	cmp	x3, #0x800, lsl #12
   16fc8:	54001020 	b.eq	171cc <_obstack_memory_used@@Base+0xa38c>  // b.none
   16fcc:	b5ffe703 	cbnz	x3, 16cac <_obstack_memory_used@@Base+0x9e6c>
   16fd0:	92400c43 	and	x3, x2, #0xf
   16fd4:	f100107f 	cmp	x3, #0x4
   16fd8:	54ffe6a0 	b.eq	16cac <_obstack_memory_used@@Base+0x9e6c>  // b.none
   16fdc:	b1001042 	adds	x2, x2, #0x4
   16fe0:	9a8d35ad 	cinc	x13, x13, cs	// cs = hs, nlast
   16fe4:	17ffff32 	b	16cac <_obstack_memory_used@@Base+0x9e6c>
   16fe8:	5280000a 	mov	w10, #0x0                   	// #0
   16fec:	92ffffe2 	mov	x2, #0xffffffffffff        	// #281474976710655
   16ff0:	92800006 	mov	x6, #0xffffffffffffffff    	// #-1
   16ff4:	52800020 	mov	w0, #0x1                   	// #1
   16ff8:	528fffe1 	mov	w1, #0x7fff                	// #32767
   16ffc:	17ffff35 	b	16cd0 <_obstack_memory_used@@Base+0x9e90>
   17000:	2a0903ea 	mov	w10, w9
   17004:	528fffe1 	mov	w1, #0x7fff                	// #32767
   17008:	d2800002 	mov	x2, #0x0                   	// #0
   1700c:	d2800006 	mov	x6, #0x0                   	// #0
   17010:	17ffff30 	b	16cd0 <_obstack_memory_used@@Base+0x9e90>
   17014:	b0000021 	adrp	x1, 1c000 <_obstack_memory_used@@Base+0xf1c0>
   17018:	913a9021 	add	x1, x1, #0xea4
   1701c:	38634821 	ldrb	w1, [x1, w3, uxtw]
   17020:	10000063 	adr	x3, 1702c <_obstack_memory_used@@Base+0xa1ec>
   17024:	8b218861 	add	x1, x3, w1, sxtb #2
   17028:	d61f0020 	br	x1
   1702c:	d280000c 	mov	x12, #0x0                   	// #0
   17030:	d2800006 	mov	x6, #0x0                   	// #0
   17034:	17ffffda 	b	16f9c <_obstack_memory_used@@Base+0xa15c>
   17038:	ab0300c2 	adds	x2, x6, x3
   1703c:	d100062d 	sub	x13, x17, #0x1
   17040:	9a0a0021 	adc	x1, x1, x10
   17044:	9a9f37e4 	cset	x4, cs	// cs = hs, nlast
   17048:	aa0203e6 	mov	x6, x2
   1704c:	eb01015f 	cmp	x10, x1
   17050:	540006a2 	b.cs	17124 <_obstack_memory_used@@Base+0xa2e4>  // b.hs, b.nlast
   17054:	eb01011f 	cmp	x8, x1
   17058:	54000869 	b.ls	17164 <_obstack_memory_used@@Base+0xa324>  // b.plast
   1705c:	ab020062 	adds	x2, x3, x2
   17060:	d1000a2d 	sub	x13, x17, #0x2
   17064:	aa0203e6 	mov	x6, x2
   17068:	9a0a0021 	adc	x1, x1, x10
   1706c:	17fffecb 	b	16b98 <_obstack_memory_used@@Base+0x9d58>
   17070:	dac01101 	clz	x1, x8
   17074:	9100c429 	add	x9, x1, #0x31
   17078:	91010021 	add	x1, x1, #0x40
   1707c:	f100f13f 	cmp	x9, #0x3c
   17080:	54ffeead 	b.le	16e54 <_obstack_memory_used@@Base+0xa014>
   17084:	5100f529 	sub	w9, w9, #0x3d
   17088:	9ac9210d 	lsl	x13, x8, x9
   1708c:	17ffff79 	b	16e70 <_obstack_memory_used@@Base+0xa030>
   17090:	dac010c2 	clz	x2, x6
   17094:	9100c440 	add	x0, x2, #0x31
   17098:	91010042 	add	x2, x2, #0x40
   1709c:	f100f01f 	cmp	x0, #0x3c
   170a0:	54ffe84d 	b.le	16da8 <_obstack_memory_used@@Base+0x9f68>
   170a4:	5100f400 	sub	w0, w0, #0x3d
   170a8:	9ac020cc 	lsl	x12, x6, x0
   170ac:	d2800006 	mov	x6, #0x0                   	// #0
   170b0:	17ffff45 	b	16dc4 <_obstack_memory_used@@Base+0x9f84>
   170b4:	926a04a6 	and	x6, x5, #0xc00000
   170b8:	f15000df 	cmp	x6, #0x400, lsl #12
   170bc:	54000fe0 	b.eq	172b8 <_obstack_memory_used@@Base+0xa478>  // b.none
   170c0:	f16000df 	cmp	x6, #0x800, lsl #12
   170c4:	540008c0 	b.eq	171dc <_obstack_memory_used@@Base+0xa39c>  // b.none
   170c8:	b5000f06 	cbnz	x6, 172a8 <_obstack_memory_used@@Base+0xa468>
   170cc:	528fffe1 	mov	w1, #0x7fff                	// #32767
   170d0:	d2800002 	mov	x2, #0x0                   	// #0
   170d4:	52800283 	mov	w3, #0x14                  	// #20
   170d8:	2a030000 	orr	w0, w0, w3
   170dc:	17ffff23 	b	16d68 <_obstack_memory_used@@Base+0x9f28>
   170e0:	b4001182 	cbz	x2, 17310 <_obstack_memory_used@@Base+0xa4d0>
   170e4:	f100085f 	cmp	x2, #0x2
   170e8:	54ffe9c1 	b.ne	16e20 <_obstack_memory_used@@Base+0x9fe0>  // b.any
   170ec:	17ffffc6 	b	17004 <_obstack_memory_used@@Base+0xa1c4>
   170f0:	b0000024 	adrp	x4, 1c000 <_obstack_memory_used@@Base+0xf1c0>
   170f4:	913ad084 	add	x4, x4, #0xeb4
   170f8:	78635884 	ldrh	w4, [x4, w3, uxtw #1]
   170fc:	10000063 	adr	x3, 17108 <_obstack_memory_used@@Base+0xa2c8>
   17100:	8b24a864 	add	x4, x3, w4, sxth #2
   17104:	d61f0080 	br	x4
   17108:	b678004c 	tbz	x12, #47, 17110 <_obstack_memory_used@@Base+0xa2d0>
   1710c:	b6780582 	tbz	x2, #47, 171bc <_obstack_memory_used@@Base+0xa37c>
   17110:	b2510182 	orr	x2, x12, #0x800000000000
   17114:	2a0b03ea 	mov	w10, w11
   17118:	9240bc42 	and	x2, x2, #0xffffffffffff
   1711c:	528fffe1 	mov	w1, #0x7fff                	// #32767
   17120:	17fffeec 	b	16cd0 <_obstack_memory_used@@Base+0x9e90>
   17124:	f100009f 	cmp	x4, #0x0
   17128:	fa410140 	ccmp	x10, x1, #0x0, eq	// eq = none
   1712c:	54ffd361 	b.ne	16b98 <_obstack_memory_used@@Base+0x9d58>  // b.any
   17130:	17ffffc9 	b	17054 <_obstack_memory_used@@Base+0xa214>
   17134:	aa0d0046 	orr	x6, x2, x13
   17138:	b50008a6 	cbnz	x6, 1724c <_obstack_memory_used@@Base+0xa40c>
   1713c:	321d0000 	orr	w0, w0, #0x8
   17140:	52800001 	mov	w1, #0x0                   	// #0
   17144:	d2800002 	mov	x2, #0x0                   	// #0
   17148:	17ffff08 	b	16d68 <_obstack_memory_used@@Base+0x9f28>
   1714c:	f100017f 	cmp	x11, #0x0
   17150:	1a9f07e6 	cset	w6, ne	// ne = any
   17154:	710000df 	cmp	w6, #0x0
   17158:	fa421020 	ccmp	x1, x2, #0x0, ne	// ne = any
   1715c:	54ffd921 	b.ne	16c80 <_obstack_memory_used@@Base+0x9e40>  // b.any
   17160:	17fffebd 	b	16c54 <_obstack_memory_used@@Base+0x9e14>
   17164:	fa420200 	ccmp	x16, x2, #0x0, eq	// eq = none
   17168:	54ffd189 	b.ls	16b98 <_obstack_memory_used@@Base+0x9d58>  // b.plast
   1716c:	17ffffbc 	b	1705c <_obstack_memory_used@@Base+0xa21c>
   17170:	52800803 	mov	w3, #0x40                  	// #64
   17174:	4b010063 	sub	w3, w3, w1
   17178:	9ac12447 	lsr	x7, x2, x1
   1717c:	9ac32042 	lsl	x2, x2, x3
   17180:	f100005f 	cmp	x2, #0x0
   17184:	9ac321a6 	lsl	x6, x13, x3
   17188:	9a9f07e3 	cset	x3, ne	// ne = any
   1718c:	aa0700c6 	orr	x6, x6, x7
   17190:	9ac125a2 	lsr	x2, x13, x1
   17194:	aa0300c6 	orr	x6, x6, x3
   17198:	f24008df 	tst	x6, #0x7
   1719c:	54ffebc1 	b.ne	16f14 <_obstack_memory_used@@Base+0xa0d4>  // b.any
   171a0:	b6980742 	tbz	x2, #51, 17288 <_obstack_memory_used@@Base+0xa448>
   171a4:	321c0000 	orr	w0, w0, #0x10
   171a8:	321d0000 	orr	w0, w0, #0x8
   171ac:	52800021 	mov	w1, #0x1                   	// #1
   171b0:	d2800002 	mov	x2, #0x0                   	// #0
   171b4:	d2800006 	mov	x6, #0x0                   	// #0
   171b8:	17fffeec 	b	16d68 <_obstack_memory_used@@Base+0x9f28>
   171bc:	b2510042 	orr	x2, x2, #0x800000000000
   171c0:	aa0803e6 	mov	x6, x8
   171c4:	528fffe1 	mov	w1, #0x7fff                	// #32767
   171c8:	17fffec2 	b	16cd0 <_obstack_memory_used@@Base+0x9e90>
   171cc:	b4ffd704 	cbz	x4, 16cac <_obstack_memory_used@@Base+0x9e6c>
   171d0:	b1002042 	adds	x2, x2, #0x8
   171d4:	9a8d35ad 	cinc	x13, x13, cs	// cs = hs, nlast
   171d8:	17fffeb5 	b	16cac <_obstack_memory_used@@Base+0x9e6c>
   171dc:	f100009f 	cmp	x4, #0x0
   171e0:	528fffe1 	mov	w1, #0x7fff                	// #32767
   171e4:	92ffffe2 	mov	x2, #0xffffffffffff        	// #281474976710655
   171e8:	1a810061 	csel	w1, w3, w1, eq	// eq = none
   171ec:	9a8213e2 	csel	x2, xzr, x2, ne	// ne = any
   171f0:	da9f13e6 	csetm	x6, eq	// eq = none
   171f4:	17ffffb8 	b	170d4 <_obstack_memory_used@@Base+0xa294>
   171f8:	d1000842 	sub	x2, x2, #0x2
   171fc:	8b0a0108 	add	x8, x8, x10
   17200:	17fffe4f 	b	16b3c <_obstack_memory_used@@Base+0x9cfc>
   17204:	d10009ad 	sub	x13, x13, #0x2
   17208:	8b0a0084 	add	x4, x4, x10
   1720c:	17fffe3f 	b	16b08 <_obstack_memory_used@@Base+0x9cc8>
   17210:	2a0903ea 	mov	w10, w9
   17214:	d2800002 	mov	x2, #0x0                   	// #0
   17218:	d2800006 	mov	x6, #0x0                   	// #0
   1721c:	17fffead 	b	16cd0 <_obstack_memory_used@@Base+0x9e90>
   17220:	d287ffe1 	mov	x1, #0x3fff                	// #16383
   17224:	2a0903ea 	mov	w10, w9
   17228:	8b0100e1 	add	x1, x7, x1
   1722c:	9287ffa3 	mov	x3, #0xffffffffffffc002    	// #-16382
   17230:	92800002 	mov	x2, #0xffffffffffffffff    	// #-1
   17234:	eb0300ff 	cmp	x7, x3
   17238:	54ffebea 	b.ge	16fb4 <_obstack_memory_used@@Base+0xa174>  // b.tcont
   1723c:	d2800023 	mov	x3, #0x1                   	// #1
   17240:	cb010061 	sub	x1, x3, x1
   17244:	f101d03f 	cmp	x1, #0x74
   17248:	54ffe46d 	b.le	16ed4 <_obstack_memory_used@@Base+0xa094>
   1724c:	926a04a5 	and	x5, x5, #0xc00000
   17250:	321c0000 	orr	w0, w0, #0x10
   17254:	f15000bf 	cmp	x5, #0x400, lsl #12
   17258:	540004a0 	b.eq	172ec <_obstack_memory_used@@Base+0xa4ac>  // b.none
   1725c:	f16000bf 	cmp	x5, #0x800, lsl #12
   17260:	9a9f0086 	csel	x6, x4, xzr, eq	// eq = none
   17264:	17ffffb6 	b	1713c <_obstack_memory_used@@Base+0xa2fc>
   17268:	d37ff86c 	lsl	x12, x3, #1
   1726c:	d1000908 	sub	x8, x8, #0x2
   17270:	eb0c007f 	cmp	x3, x12
   17274:	9a8a9541 	cinc	x1, x10, hi	// hi = pmore
   17278:	eb0c017f 	cmp	x11, x12
   1727c:	8b0100c1 	add	x1, x6, x1
   17280:	1a9f07e6 	cset	w6, ne	// ne = any
   17284:	17fffe7f 	b	16c80 <_obstack_memory_used@@Base+0x9e40>
   17288:	52800001 	mov	w1, #0x0                   	// #0
   1728c:	93c60c46 	extr	x6, x2, x6, #3
   17290:	d343c842 	ubfx	x2, x2, #3, #48
   17294:	365fd1e5 	tbz	w5, #11, 16cd0 <_obstack_memory_used@@Base+0x9e90>
   17298:	321d0000 	orr	w0, w0, #0x8
   1729c:	17fffeb3 	b	16d68 <_obstack_memory_used@@Base+0x9f28>
   172a0:	b5ffd064 	cbnz	x4, 16cac <_obstack_memory_used@@Base+0x9e6c>
   172a4:	17ffffcb 	b	171d0 <_obstack_memory_used@@Base+0xa390>
   172a8:	2a0303e1 	mov	w1, w3
   172ac:	92ffffe2 	mov	x2, #0xffffffffffff        	// #281474976710655
   172b0:	92800006 	mov	x6, #0xffffffffffffffff    	// #-1
   172b4:	17ffff88 	b	170d4 <_obstack_memory_used@@Base+0xa294>
   172b8:	f100009f 	cmp	x4, #0x0
   172bc:	528fffe1 	mov	w1, #0x7fff                	// #32767
   172c0:	92ffffe2 	mov	x2, #0xffffffffffff        	// #281474976710655
   172c4:	1a811061 	csel	w1, w3, w1, ne	// ne = any
   172c8:	9a8203e2 	csel	x2, xzr, x2, eq	// eq = none
   172cc:	da9f03e6 	csetm	x6, ne	// ne = any
   172d0:	17ffff81 	b	170d4 <_obstack_memory_used@@Base+0xa294>
   172d4:	d1000842 	sub	x2, x2, #0x2
   172d8:	8b0a0021 	add	x1, x1, x10
   172dc:	17fffe4c 	b	16c0c <_obstack_memory_used@@Base+0x9dcc>
   172e0:	d1000908 	sub	x8, x8, #0x2
   172e4:	8b0a0021 	add	x1, x1, x10
   172e8:	17fffe3c 	b	16bd8 <_obstack_memory_used@@Base+0x9d98>
   172ec:	d2800022 	mov	x2, #0x1                   	// #1
   172f0:	cb040046 	sub	x6, x2, x4
   172f4:	17ffff92 	b	1713c <_obstack_memory_used@@Base+0xa2fc>
   172f8:	b5ffe284 	cbnz	x4, 16f48 <_obstack_memory_used@@Base+0xa108>
   172fc:	b10020c6 	adds	x6, x6, #0x8
   17300:	9a823442 	cinc	x2, x2, cs	// cs = hs, nlast
   17304:	17ffff11 	b	16f48 <_obstack_memory_used@@Base+0xa108>
   17308:	b4ffe204 	cbz	x4, 16f48 <_obstack_memory_used@@Base+0xa108>
   1730c:	17fffffc 	b	172fc <_obstack_memory_used@@Base+0xa4bc>
   17310:	aa0c03ed 	mov	x13, x12
   17314:	aa0603e2 	mov	x2, x6
   17318:	17fffe5f 	b	16c94 <_obstack_memory_used@@Base+0x9e54>
   1731c:	d503201f 	nop
   17320:	9e66000a 	fmov	x10, d0
   17324:	9eae000b 	fmov	x11, v0.d[1]
   17328:	9e660022 	fmov	x2, d1
   1732c:	9eae0023 	fmov	x3, v1.d[1]
   17330:	d53b4400 	mrs	x0, fpcr
   17334:	d37ffd65 	lsr	x5, x11, #63
   17338:	d37ffc64 	lsr	x4, x3, #63
   1733c:	d370f966 	ubfx	x6, x11, #48, #15
   17340:	aa0203e9 	mov	x9, x2
   17344:	12001ca5 	and	w5, w5, #0xff
   17348:	12001c84 	and	w4, w4, #0xff
   1734c:	d340bd61 	ubfx	x1, x11, #0, #48
   17350:	d340bc6c 	ubfx	x12, x3, #0, #48
   17354:	d370f860 	ubfx	x0, x3, #48, #15
   17358:	d28fffe7 	mov	x7, #0x7fff                	// #32767
   1735c:	eb0700df 	cmp	x6, x7
   17360:	540003a0 	b.eq	173d4 <_obstack_memory_used@@Base+0xa594>  // b.none
   17364:	eb07001f 	cmp	x0, x7
   17368:	540001c0 	b.eq	173a0 <_obstack_memory_used@@Base+0xa560>  // b.none
   1736c:	eb0000df 	cmp	x6, x0
   17370:	54000481 	b.ne	17400 <_obstack_memory_used@@Base+0xa5c0>  // b.any
   17374:	eb0c003f 	cmp	x1, x12
   17378:	fa420140 	ccmp	x10, x2, #0x0, eq	// eq = none
   1737c:	54000421 	b.ne	17400 <_obstack_memory_used@@Base+0xa5c0>  // b.any
   17380:	52800000 	mov	w0, #0x0                   	// #0
   17384:	6b0400bf 	cmp	w5, w4
   17388:	54000400 	b.eq	17408 <_obstack_memory_used@@Base+0xa5c8>  // b.none
   1738c:	b50003a6 	cbnz	x6, 17400 <_obstack_memory_used@@Base+0xa5c0>
   17390:	aa0a0021 	orr	x1, x1, x10
   17394:	f100003f 	cmp	x1, #0x0
   17398:	1a9f07e0 	cset	w0, ne	// ne = any
   1739c:	d65f03c0 	ret
   173a0:	aa020189 	orr	x9, x12, x2
   173a4:	b40002e9 	cbz	x9, 17400 <_obstack_memory_used@@Base+0xa5c0>
   173a8:	f100013f 	cmp	x9, #0x0
   173ac:	b240bbe0 	mov	x0, #0x7fffffffffff        	// #140737488355327
   173b0:	fa401182 	ccmp	x12, x0, #0x2, ne	// ne = any
   173b4:	54000268 	b.hi	17400 <_obstack_memory_used@@Base+0xa5c0>  // b.pmore
   173b8:	a9bf7bfd 	stp	x29, x30, [sp, #-16]!
   173bc:	52800020 	mov	w0, #0x1                   	// #1
   173c0:	910003fd 	mov	x29, sp
   173c4:	940002d3 	bl	17f10 <_obstack_memory_used@@Base+0xb0d0>
   173c8:	52800020 	mov	w0, #0x1                   	// #1
   173cc:	a8c17bfd 	ldp	x29, x30, [sp], #16
   173d0:	d65f03c0 	ret
   173d4:	aa0a0028 	orr	x8, x1, x10
   173d8:	b4000108 	cbz	x8, 173f8 <_obstack_memory_used@@Base+0xa5b8>
   173dc:	b240bbe2 	mov	x2, #0x7fffffffffff        	// #140737488355327
   173e0:	eb02003f 	cmp	x1, x2
   173e4:	54fffea9 	b.ls	173b8 <_obstack_memory_used@@Base+0xa578>  // b.plast
   173e8:	eb06001f 	cmp	x0, x6
   173ec:	540000a1 	b.ne	17400 <_obstack_memory_used@@Base+0xa5c0>  // b.any
   173f0:	aa090189 	orr	x9, x12, x9
   173f4:	17ffffed 	b	173a8 <_obstack_memory_used@@Base+0xa568>
   173f8:	eb06001f 	cmp	x0, x6
   173fc:	54000080 	b.eq	1740c <_obstack_memory_used@@Base+0xa5cc>  // b.none
   17400:	52800020 	mov	w0, #0x1                   	// #1
   17404:	d65f03c0 	ret
   17408:	d65f03c0 	ret
   1740c:	aa020189 	orr	x9, x12, x2
   17410:	b5fffcc9 	cbnz	x9, 173a8 <_obstack_memory_used@@Base+0xa568>
   17414:	6b0400bf 	cmp	w5, w4
   17418:	1a9f07e0 	cset	w0, ne	// ne = any
   1741c:	d65f03c0 	ret
   17420:	9e660002 	fmov	x2, d0
   17424:	9eae0003 	fmov	x3, v0.d[1]
   17428:	9e660024 	fmov	x4, d1
   1742c:	9eae0025 	fmov	x5, v1.d[1]
   17430:	d53b4400 	mrs	x0, fpcr
   17434:	d370f867 	ubfx	x7, x3, #48, #15
   17438:	d340bc6c 	ubfx	x12, x3, #0, #48
   1743c:	d37ffc61 	lsr	x1, x3, #63
   17440:	d340bca9 	ubfx	x9, x5, #0, #48
   17444:	d370f8aa 	ubfx	x10, x5, #48, #15
   17448:	d37ffca0 	lsr	x0, x5, #63
   1744c:	d28fffe8 	mov	x8, #0x7fff                	// #32767
   17450:	eb0800ff 	cmp	x7, x8
   17454:	54000300 	b.eq	174b4 <_obstack_memory_used@@Base+0xa674>  // b.none
   17458:	eb08015f 	cmp	x10, x8
   1745c:	54000160 	b.eq	17488 <_obstack_memory_used@@Base+0xa648>  // b.none
   17460:	b50003e7 	cbnz	x7, 174dc <_obstack_memory_used@@Base+0xa69c>
   17464:	aa020186 	orr	x6, x12, x2
   17468:	b500066a 	cbnz	x10, 17534 <_obstack_memory_used@@Base+0xa6f4>
   1746c:	aa04012b 	orr	x11, x9, x4
   17470:	b400074b 	cbz	x11, 17558 <_obstack_memory_used@@Base+0xa718>
   17474:	b5000786 	cbnz	x6, 17564 <_obstack_memory_used@@Base+0xa724>
   17478:	f100001f 	cmp	x0, #0x0
   1747c:	12800000 	mov	w0, #0xffffffff            	// #-1
   17480:	5a800400 	cneg	w0, w0, ne	// ne = any
   17484:	d65f03c0 	ret
   17488:	aa040129 	orr	x9, x9, x4
   1748c:	b5000589 	cbnz	x9, 1753c <_obstack_memory_used@@Base+0xa6fc>
   17490:	b5000067 	cbnz	x7, 1749c <_obstack_memory_used@@Base+0xa65c>
   17494:	aa02018c 	orr	x12, x12, x2
   17498:	b4ffff0c 	cbz	x12, 17478 <_obstack_memory_used@@Base+0xa638>
   1749c:	eb00003f 	cmp	x1, x0
   174a0:	54000420 	b.eq	17524 <_obstack_memory_used@@Base+0xa6e4>  // b.none
   174a4:	f100003f 	cmp	x1, #0x0
   174a8:	52800020 	mov	w0, #0x1                   	// #1
   174ac:	5a800400 	cneg	w0, w0, ne	// ne = any
   174b0:	d65f03c0 	ret
   174b4:	aa020186 	orr	x6, x12, x2
   174b8:	b5000426 	cbnz	x6, 1753c <_obstack_memory_used@@Base+0xa6fc>
   174bc:	eb07015f 	cmp	x10, x7
   174c0:	54ffff21 	b.ne	174a4 <_obstack_memory_used@@Base+0xa664>  // b.any
   174c4:	aa04012b 	orr	x11, x9, x4
   174c8:	b50003ab 	cbnz	x11, 1753c <_obstack_memory_used@@Base+0xa6fc>
   174cc:	eb00003f 	cmp	x1, x0
   174d0:	54fffea1 	b.ne	174a4 <_obstack_memory_used@@Base+0xa664>  // b.any
   174d4:	52800020 	mov	w0, #0x1                   	// #1
   174d8:	1400000d 	b	1750c <_obstack_memory_used@@Base+0xa6cc>
   174dc:	b4fffe4a 	cbz	x10, 174a4 <_obstack_memory_used@@Base+0xa664>
   174e0:	eb00003f 	cmp	x1, x0
   174e4:	54fffe01 	b.ne	174a4 <_obstack_memory_used@@Base+0xa664>  // b.any
   174e8:	eb0a00ff 	cmp	x7, x10
   174ec:	54fffdcc 	b.gt	174a4 <_obstack_memory_used@@Base+0xa664>
   174f0:	540001ab 	b.lt	17524 <_obstack_memory_used@@Base+0xa6e4>  // b.tstop
   174f4:	eb09019f 	cmp	x12, x9
   174f8:	54fffd68 	b.hi	174a4 <_obstack_memory_used@@Base+0xa664>  // b.pmore
   174fc:	1a9f17e0 	cset	w0, eq	// eq = none
   17500:	7100001f 	cmp	w0, #0x0
   17504:	fa441040 	ccmp	x2, x4, #0x0, ne	// ne = any
   17508:	54fffce8 	b.hi	174a4 <_obstack_memory_used@@Base+0xa664>  // b.pmore
   1750c:	eb09019f 	cmp	x12, x9
   17510:	540000a3 	b.cc	17524 <_obstack_memory_used@@Base+0xa6e4>  // b.lo, b.ul, b.last
   17514:	7100001f 	cmp	w0, #0x0
   17518:	52800000 	mov	w0, #0x0                   	// #0
   1751c:	fa441042 	ccmp	x2, x4, #0x2, ne	// ne = any
   17520:	54000202 	b.cs	17560 <_obstack_memory_used@@Base+0xa720>  // b.hs, b.nlast
   17524:	f100003f 	cmp	x1, #0x0
   17528:	12800000 	mov	w0, #0xffffffff            	// #-1
   1752c:	5a800400 	cneg	w0, w0, ne	// ne = any
   17530:	d65f03c0 	ret
   17534:	b4fffa26 	cbz	x6, 17478 <_obstack_memory_used@@Base+0xa638>
   17538:	17ffffd9 	b	1749c <_obstack_memory_used@@Base+0xa65c>
   1753c:	a9bf7bfd 	stp	x29, x30, [sp, #-16]!
   17540:	52800020 	mov	w0, #0x1                   	// #1
   17544:	910003fd 	mov	x29, sp
   17548:	94000272 	bl	17f10 <_obstack_memory_used@@Base+0xb0d0>
   1754c:	52800040 	mov	w0, #0x2                   	// #2
   17550:	a8c17bfd 	ldp	x29, x30, [sp], #16
   17554:	d65f03c0 	ret
   17558:	52800000 	mov	w0, #0x0                   	// #0
   1755c:	b5fffa46 	cbnz	x6, 174a4 <_obstack_memory_used@@Base+0xa664>
   17560:	d65f03c0 	ret
   17564:	eb00003f 	cmp	x1, x0
   17568:	54fff9e1 	b.ne	174a4 <_obstack_memory_used@@Base+0xa664>  // b.any
   1756c:	17ffffe2 	b	174f4 <_obstack_memory_used@@Base+0xa6b4>
   17570:	a9bc7bfd 	stp	x29, x30, [sp, #-64]!
   17574:	9e660000 	fmov	x0, d0
   17578:	9eae0001 	fmov	x1, v0.d[1]
   1757c:	910003fd 	mov	x29, sp
   17580:	9e660024 	fmov	x4, d1
   17584:	9eae0025 	fmov	x5, v1.d[1]
   17588:	d53b4406 	mrs	x6, fpcr
   1758c:	d37ffc22 	lsr	x2, x1, #63
   17590:	d340bc27 	ubfx	x7, x1, #0, #48
   17594:	12001c4b 	and	w11, w2, #0xff
   17598:	d370f821 	ubfx	x1, x1, #48, #15
   1759c:	34001c61 	cbz	w1, 17928 <_obstack_memory_used@@Base+0xaae8>
   175a0:	528fffe2 	mov	w2, #0x7fff                	// #32767
   175a4:	6b02003f 	cmp	w1, w2
   175a8:	54001440 	b.eq	17830 <_obstack_memory_used@@Base+0xa9f0>  // b.none
   175ac:	2a0103e1 	mov	w1, w1
   175b0:	93c0f4e7 	extr	x7, x7, x0, #61
   175b4:	9287ffd2 	mov	x18, #0xffffffffffffc001    	// #-16383
   175b8:	b24d00e7 	orr	x7, x7, #0x8000000000000
   175bc:	8b120022 	add	x2, x1, x18
   175c0:	d37df008 	lsl	x8, x0, #3
   175c4:	d2800009 	mov	x9, #0x0                   	// #0
   175c8:	d280000c 	mov	x12, #0x0                   	// #0
   175cc:	52800000 	mov	w0, #0x0                   	// #0
   175d0:	aa0503e1 	mov	x1, x5
   175d4:	d37ffca5 	lsr	x5, x5, #63
   175d8:	12001caf 	and	w15, w5, #0xff
   175dc:	d340bc23 	ubfx	x3, x1, #0, #48
   175e0:	d370f821 	ubfx	x1, x1, #48, #15
   175e4:	34001421 	cbz	w1, 17868 <_obstack_memory_used@@Base+0xaa28>
   175e8:	528fffea 	mov	w10, #0x7fff                	// #32767
   175ec:	6b0a003f 	cmp	w1, w10
   175f0:	540018a0 	b.eq	17904 <_obstack_memory_used@@Base+0xaac4>  // b.none
   175f4:	2a0103e1 	mov	w1, w1
   175f8:	93c4f463 	extr	x3, x3, x4, #61
   175fc:	9287ffd1 	mov	x17, #0xffffffffffffc001    	// #-16383
   17600:	8b110021 	add	x1, x1, x17
   17604:	b24d0063 	orr	x3, x3, #0x8000000000000
   17608:	8b020021 	add	x1, x1, x2
   1760c:	d37df084 	lsl	x4, x4, #3
   17610:	d280000e 	mov	x14, #0x0                   	// #0
   17614:	91000422 	add	x2, x1, #0x1
   17618:	f100293f 	cmp	x9, #0xa
   1761c:	540014cc 	b.gt	178b4 <_obstack_memory_used@@Base+0xaa74>
   17620:	4a0f016d 	eor	w13, w11, w15
   17624:	aa0d03ea 	mov	x10, x13
   17628:	f100093f 	cmp	x9, #0x2
   1762c:	54001aad 	b.le	17980 <_obstack_memory_used@@Base+0xab40>
   17630:	d280002b 	mov	x11, #0x1                   	// #1
   17634:	d280a610 	mov	x16, #0x530                 	// #1328
   17638:	9ac92169 	lsl	x9, x11, x9
   1763c:	ea10013f 	tst	x9, x16
   17640:	540013e1 	b.ne	178bc <_obstack_memory_used@@Base+0xaa7c>  // b.any
   17644:	d280480c 	mov	x12, #0x240                 	// #576
   17648:	ea0c013f 	tst	x9, x12
   1764c:	54002581 	b.ne	17afc <_obstack_memory_used@@Base+0xacbc>  // b.any
   17650:	d280110b 	mov	x11, #0x88                  	// #136
   17654:	ea0b013f 	tst	x9, x11
   17658:	540023c1 	b.ne	17ad0 <_obstack_memory_used@@Base+0xac90>  // b.any
   1765c:	92407c90 	and	x16, x4, #0xffffffff
   17660:	d360fd11 	lsr	x17, x8, #32
   17664:	d360fc84 	lsr	x4, x4, #32
   17668:	92407d08 	and	x8, x8, #0xffffffff
   1766c:	92407c6e 	and	x14, x3, #0xffffffff
   17670:	d360fc63 	lsr	x3, x3, #32
   17674:	a90153f3 	stp	x19, x20, [sp, #16]
   17678:	9b107e33 	mul	x19, x17, x16
   1767c:	9b084c94 	madd	x20, x4, x8, x19
   17680:	9b0e7e32 	mul	x18, x17, x14
   17684:	f90013f5 	str	x21, [sp, #32]
   17688:	9b087e05 	mul	x5, x16, x8
   1768c:	d360fcf5 	lsr	x21, x7, #32
   17690:	9b0e7d09 	mul	x9, x8, x14
   17694:	92407ce7 	and	x7, x7, #0xffffffff
   17698:	9b08486b 	madd	x11, x3, x8, x18
   1769c:	92407caf 	and	x15, x5, #0xffffffff
   176a0:	9b047e3e 	mul	x30, x17, x4
   176a4:	8b458285 	add	x5, x20, x5, lsr #32
   176a8:	9b077e08 	mul	x8, x16, x7
   176ac:	eb05027f 	cmp	x19, x5
   176b0:	8b49816b 	add	x11, x11, x9, lsr #32
   176b4:	d2c0002c 	mov	x12, #0x100000000           	// #4294967296
   176b8:	9b107eb4 	mul	x20, x21, x16
   176bc:	8b0c03d0 	add	x16, x30, x12
   176c0:	9b0e7eb3 	mul	x19, x21, x14
   176c4:	9a9e821e 	csel	x30, x16, x30, hi	// hi = pmore
   176c8:	9b0e7cee 	mul	x14, x7, x14
   176cc:	eb0b025f 	cmp	x18, x11
   176d0:	9b075092 	madd	x18, x4, x7, x20
   176d4:	92407d29 	and	x9, x9, #0xffffffff
   176d8:	9b074c67 	madd	x7, x3, x7, x19
   176dc:	8b0b8129 	add	x9, x9, x11, lsl #32
   176e0:	9b037e31 	mul	x17, x17, x3
   176e4:	8b0581ef 	add	x15, x15, x5, lsl #32
   176e8:	9b157c90 	mul	x16, x4, x21
   176ec:	8b488252 	add	x18, x18, x8, lsr #32
   176f0:	8b4e80e7 	add	x7, x7, x14, lsr #32
   176f4:	9b157c63 	mul	x3, x3, x21
   176f8:	92407dc4 	and	x4, x14, #0xffffffff
   176fc:	8b0c022e 	add	x14, x17, x12
   17700:	9a9181d1 	csel	x17, x14, x17, hi	// hi = pmore
   17704:	eb12029f 	cmp	x20, x18
   17708:	8b0c020e 	add	x14, x16, x12
   1770c:	8b458125 	add	x5, x9, x5, lsr #32
   17710:	8b4b822b 	add	x11, x17, x11, lsr #32
   17714:	9a9081d0 	csel	x16, x14, x16, hi	// hi = pmore
   17718:	8b078084 	add	x4, x4, x7, lsl #32
   1771c:	eb07027f 	cmp	x19, x7
   17720:	8b0c006c 	add	x12, x3, x12
   17724:	8b1e00a5 	add	x5, x5, x30
   17728:	9a838183 	csel	x3, x12, x3, hi	// hi = pmore
   1772c:	ab0b0084 	adds	x4, x4, x11
   17730:	9a9f37eb 	cset	x11, cs	// cs = hs, nlast
   17734:	eb0900bf 	cmp	x5, x9
   17738:	9a9f27e9 	cset	x9, cc	// cc = lo, ul, last
   1773c:	92407d08 	and	x8, x8, #0xffffffff
   17740:	ab090084 	adds	x4, x4, x9
   17744:	8b128108 	add	x8, x8, x18, lsl #32
   17748:	9a9f37e9 	cset	x9, cs	// cs = hs, nlast
   1774c:	f100017f 	cmp	x11, #0x0
   17750:	fa400920 	ccmp	x9, #0x0, #0x0, eq	// eq = none
   17754:	d360fce7 	lsr	x7, x7, #32
   17758:	9a8704e7 	cinc	x7, x7, ne	// ne = any
   1775c:	8b528209 	add	x9, x16, x18, lsr #32
   17760:	ab0800a5 	adds	x5, x5, x8
   17764:	9a9f37e8 	cset	x8, cs	// cs = hs, nlast
   17768:	ab090084 	adds	x4, x4, x9
   1776c:	9a9f37e9 	cset	x9, cs	// cs = hs, nlast
   17770:	ab080084 	adds	x4, x4, x8
   17774:	9a9f37e8 	cset	x8, cs	// cs = hs, nlast
   17778:	f100013f 	cmp	x9, #0x0
   1777c:	fa400900 	ccmp	x8, #0x0, #0x0, eq	// eq = none
   17780:	aa0535ef 	orr	x15, x15, x5, lsl #13
   17784:	9a830463 	cinc	x3, x3, ne	// ne = any
   17788:	f10001ff 	cmp	x15, #0x0
   1778c:	8b070063 	add	x3, x3, x7
   17790:	9a9f07e7 	cset	x7, ne	// ne = any
   17794:	aa45cce5 	orr	x5, x7, x5, lsr #51
   17798:	aa0434a8 	orr	x8, x5, x4, lsl #13
   1779c:	93c4cc67 	extr	x7, x3, x4, #51
   177a0:	b6382163 	tbz	x3, #39, 17bcc <_obstack_memory_used@@Base+0xad8c>
   177a4:	a94153f3 	ldp	x19, x20, [sp, #16]
   177a8:	92400101 	and	x1, x8, #0x1
   177ac:	f94013f5 	ldr	x21, [sp, #32]
   177b0:	aa480421 	orr	x1, x1, x8, lsr #1
   177b4:	aa07fc28 	orr	x8, x1, x7, lsl #63
   177b8:	d341fce7 	lsr	x7, x7, #1
   177bc:	d287ffe1 	mov	x1, #0x3fff                	// #16383
   177c0:	8b010041 	add	x1, x2, x1
   177c4:	f100003f 	cmp	x1, #0x0
   177c8:	5400138d 	b.le	17a38 <_obstack_memory_used@@Base+0xabf8>
   177cc:	f240091f 	tst	x8, #0x7
   177d0:	540001c0 	b.eq	17808 <_obstack_memory_used@@Base+0xa9c8>  // b.none
   177d4:	926a04c3 	and	x3, x6, #0xc00000
   177d8:	321c0000 	orr	w0, w0, #0x10
   177dc:	f150007f 	cmp	x3, #0x400, lsl #12
   177e0:	540026c0 	b.eq	17cb8 <_obstack_memory_used@@Base+0xae78>  // b.none
   177e4:	f160007f 	cmp	x3, #0x800, lsl #12
   177e8:	540023e0 	b.eq	17c64 <_obstack_memory_used@@Base+0xae24>  // b.none
   177ec:	b50000e3 	cbnz	x3, 17808 <_obstack_memory_used@@Base+0xa9c8>
   177f0:	92400d03 	and	x3, x8, #0xf
   177f4:	f100107f 	cmp	x3, #0x4
   177f8:	54000080 	b.eq	17808 <_obstack_memory_used@@Base+0xa9c8>  // b.none
   177fc:	b1001108 	adds	x8, x8, #0x4
   17800:	9a8734e7 	cinc	x7, x7, cs	// cs = hs, nlast
   17804:	d503201f 	nop
   17808:	b6a00067 	tbz	x7, #52, 17814 <_obstack_memory_used@@Base+0xa9d4>
   1780c:	924bf8e7 	and	x7, x7, #0xffefffffffffffff
   17810:	91401041 	add	x1, x2, #0x4, lsl #12
   17814:	d28fffc2 	mov	x2, #0x7ffe                	// #32766
   17818:	eb02003f 	cmp	x1, x2
   1781c:	54001c2c 	b.gt	17ba0 <_obstack_memory_used@@Base+0xad60>
   17820:	d343c8e5 	ubfx	x5, x7, #3, #48
   17824:	93c80ce8 	extr	x8, x7, x8, #3
   17828:	12003821 	and	w1, w1, #0x7fff
   1782c:	1400002d 	b	178e0 <_obstack_memory_used@@Base+0xaaa0>
   17830:	aa070008 	orr	x8, x0, x7
   17834:	b5000f28 	cbnz	x8, 17a18 <_obstack_memory_used@@Base+0xabd8>
   17838:	aa0503e1 	mov	x1, x5
   1783c:	d37ffca5 	lsr	x5, x5, #63
   17840:	12001caf 	and	w15, w5, #0xff
   17844:	d2800007 	mov	x7, #0x0                   	// #0
   17848:	d340bc23 	ubfx	x3, x1, #0, #48
   1784c:	d2800109 	mov	x9, #0x8                   	// #8
   17850:	d370f821 	ubfx	x1, x1, #48, #15
   17854:	d28fffe2 	mov	x2, #0x7fff                	// #32767
   17858:	d280004c 	mov	x12, #0x2                   	// #2
   1785c:	52800000 	mov	w0, #0x0                   	// #0
   17860:	35ffec41 	cbnz	w1, 175e8 <_obstack_memory_used@@Base+0xa7a8>
   17864:	d503201f 	nop
   17868:	aa030081 	orr	x1, x4, x3
   1786c:	b4000a41 	cbz	x1, 179b4 <_obstack_memory_used@@Base+0xab74>
   17870:	b4001843 	cbz	x3, 17b78 <_obstack_memory_used@@Base+0xad38>
   17874:	dac01061 	clz	x1, x3
   17878:	d1003c2d 	sub	x13, x1, #0xf
   1787c:	11000dae 	add	w14, w13, #0x3
   17880:	528007aa 	mov	w10, #0x3d                  	// #61
   17884:	4b0d014a 	sub	w10, w10, w13
   17888:	9ace2063 	lsl	x3, x3, x14
   1788c:	9aca248a 	lsr	x10, x4, x10
   17890:	aa030143 	orr	x3, x10, x3
   17894:	9ace2084 	lsl	x4, x4, x14
   17898:	cb010041 	sub	x1, x2, x1
   1789c:	9287fdd0 	mov	x16, #0xffffffffffffc011    	// #-16367
   178a0:	8b100021 	add	x1, x1, x16
   178a4:	d280000e 	mov	x14, #0x0                   	// #0
   178a8:	91000422 	add	x2, x1, #0x1
   178ac:	f100293f 	cmp	x9, #0xa
   178b0:	54ffeb8d 	b.le	17620 <_obstack_memory_used@@Base+0xa7e0>
   178b4:	2a0b03ed 	mov	w13, w11
   178b8:	2a0b03ea 	mov	w10, w11
   178bc:	f100099f 	cmp	x12, #0x2
   178c0:	54000580 	b.eq	17970 <_obstack_memory_used@@Base+0xab30>  // b.none
   178c4:	f1000d9f 	cmp	x12, #0x3
   178c8:	54002040 	b.eq	17cd0 <_obstack_memory_used@@Base+0xae90>  // b.none
   178cc:	f100059f 	cmp	x12, #0x1
   178d0:	54fff761 	b.ne	177bc <_obstack_memory_used@@Base+0xa97c>  // b.any
   178d4:	52800001 	mov	w1, #0x0                   	// #0
   178d8:	d2800005 	mov	x5, #0x0                   	// #0
   178dc:	d2800008 	mov	x8, #0x0                   	// #0
   178e0:	d2800003 	mov	x3, #0x0                   	// #0
   178e4:	2a0a3c21 	orr	w1, w1, w10, lsl #15
   178e8:	b340bca3 	bfxil	x3, x5, #0, #48
   178ec:	9e670100 	fmov	d0, x8
   178f0:	b3503c23 	bfi	x3, x1, #48, #16
   178f4:	9eaf0060 	fmov	v0.d[1], x3
   178f8:	35001240 	cbnz	w0, 17b40 <_obstack_memory_used@@Base+0xad00>
   178fc:	a8c47bfd 	ldp	x29, x30, [sp], #64
   17900:	d65f03c0 	ret
   17904:	d28fffed 	mov	x13, #0x7fff                	// #32767
   17908:	aa03008a 	orr	x10, x4, x3
   1790c:	8b0d0041 	add	x1, x2, x13
   17910:	b50005ea 	cbnz	x10, 179cc <_obstack_memory_used@@Base+0xab8c>
   17914:	b27f0129 	orr	x9, x9, #0x2
   17918:	d2800003 	mov	x3, #0x0                   	// #0
   1791c:	d2800004 	mov	x4, #0x0                   	// #0
   17920:	d280004e 	mov	x14, #0x2                   	// #2
   17924:	17ffff3c 	b	17614 <_obstack_memory_used@@Base+0xa7d4>
   17928:	aa070008 	orr	x8, x0, x7
   1792c:	b4000388 	cbz	x8, 1799c <_obstack_memory_used@@Base+0xab5c>
   17930:	b4001127 	cbz	x7, 17b54 <_obstack_memory_used@@Base+0xad14>
   17934:	dac010e3 	clz	x3, x7
   17938:	d1003c62 	sub	x2, x3, #0xf
   1793c:	11000c48 	add	w8, w2, #0x3
   17940:	528007a1 	mov	w1, #0x3d                  	// #61
   17944:	4b020021 	sub	w1, w1, w2
   17948:	9ac820e7 	lsl	x7, x7, x8
   1794c:	9ac12401 	lsr	x1, x0, x1
   17950:	aa070027 	orr	x7, x1, x7
   17954:	9ac82008 	lsl	x8, x0, x8
   17958:	9287fdc2 	mov	x2, #0xffffffffffffc011    	// #-16367
   1795c:	d2800009 	mov	x9, #0x0                   	// #0
   17960:	cb030042 	sub	x2, x2, x3
   17964:	d280000c 	mov	x12, #0x0                   	// #0
   17968:	52800000 	mov	w0, #0x0                   	// #0
   1796c:	17ffff19 	b	175d0 <_obstack_memory_used@@Base+0xa790>
   17970:	528fffe1 	mov	w1, #0x7fff                	// #32767
   17974:	d2800005 	mov	x5, #0x0                   	// #0
   17978:	d2800008 	mov	x8, #0x0                   	// #0
   1797c:	17ffffd9 	b	178e0 <_obstack_memory_used@@Base+0xaaa0>
   17980:	d1000529 	sub	x9, x9, #0x1
   17984:	f100053f 	cmp	x9, #0x1
   17988:	54ffe6a8 	b.hi	1765c <_obstack_memory_used@@Base+0xa81c>  // b.pmore
   1798c:	aa0303e7 	mov	x7, x3
   17990:	aa0403e8 	mov	x8, x4
   17994:	aa0e03ec 	mov	x12, x14
   17998:	17ffffc9 	b	178bc <_obstack_memory_used@@Base+0xaa7c>
   1799c:	d2800007 	mov	x7, #0x0                   	// #0
   179a0:	d2800089 	mov	x9, #0x4                   	// #4
   179a4:	d2800002 	mov	x2, #0x0                   	// #0
   179a8:	d280002c 	mov	x12, #0x1                   	// #1
   179ac:	52800000 	mov	w0, #0x0                   	// #0
   179b0:	17ffff08 	b	175d0 <_obstack_memory_used@@Base+0xa790>
   179b4:	b2400129 	orr	x9, x9, #0x1
   179b8:	aa0203e1 	mov	x1, x2
   179bc:	d2800003 	mov	x3, #0x0                   	// #0
   179c0:	d2800004 	mov	x4, #0x0                   	// #0
   179c4:	d280002e 	mov	x14, #0x1                   	// #1
   179c8:	17ffff13 	b	17614 <_obstack_memory_used@@Base+0xa7d4>
   179cc:	b240bbed 	mov	x13, #0x7fffffffffff        	// #140737488355327
   179d0:	4a0f016a 	eor	w10, w11, w15
   179d4:	eb0d007f 	cmp	x3, x13
   179d8:	b2400529 	orr	x9, x9, #0x3
   179dc:	91402042 	add	x2, x2, #0x8, lsl #12
   179e0:	1a9f8400 	csinc	w0, w0, wzr, hi	// hi = pmore
   179e4:	2a0a03ed 	mov	w13, w10
   179e8:	d280006e 	mov	x14, #0x3                   	// #3
   179ec:	f100293f 	cmp	x9, #0xa
   179f0:	54ffe20d 	b.le	17630 <_obstack_memory_used@@Base+0xa7f0>
   179f4:	f1003d3f 	cmp	x9, #0xf
   179f8:	54001641 	b.ne	17cc0 <_obstack_memory_used@@Base+0xae80>  // b.any
   179fc:	b6780767 	tbz	x7, #47, 17ae8 <_obstack_memory_used@@Base+0xaca8>
   17a00:	b7780743 	tbnz	x3, #47, 17ae8 <_obstack_memory_used@@Base+0xaca8>
   17a04:	b2510065 	orr	x5, x3, #0x800000000000
   17a08:	2a0f03ea 	mov	w10, w15
   17a0c:	aa0403e8 	mov	x8, x4
   17a10:	528fffe1 	mov	w1, #0x7fff                	// #32767
   17a14:	17ffffb3 	b	178e0 <_obstack_memory_used@@Base+0xaaa0>
   17a18:	b240bbe1 	mov	x1, #0x7fffffffffff        	// #140737488355327
   17a1c:	eb0100ff 	cmp	x7, x1
   17a20:	aa0003e8 	mov	x8, x0
   17a24:	d2800189 	mov	x9, #0xc                   	// #12
   17a28:	1a9f87e0 	cset	w0, ls	// ls = plast
   17a2c:	d28fffe2 	mov	x2, #0x7fff                	// #32767
   17a30:	d280006c 	mov	x12, #0x3                   	// #3
   17a34:	17fffee7 	b	175d0 <_obstack_memory_used@@Base+0xa790>
   17a38:	d2800022 	mov	x2, #0x1                   	// #1
   17a3c:	cb010041 	sub	x1, x2, x1
   17a40:	f101d03f 	cmp	x1, #0x74
   17a44:	5400068c 	b.gt	17b14 <_obstack_memory_used@@Base+0xacd4>
   17a48:	f100fc3f 	cmp	x1, #0x3f
   17a4c:	54000d8d 	b.le	17bfc <_obstack_memory_used@@Base+0xadbc>
   17a50:	52801002 	mov	w2, #0x80                  	// #128
   17a54:	4b010042 	sub	w2, w2, w1
   17a58:	f101003f 	cmp	x1, #0x40
   17a5c:	51010021 	sub	w1, w1, #0x40
   17a60:	9ac220e2 	lsl	x2, x7, x2
   17a64:	aa020102 	orr	x2, x8, x2
   17a68:	9a881048 	csel	x8, x2, x8, ne	// ne = any
   17a6c:	9ac124e1 	lsr	x1, x7, x1
   17a70:	f100011f 	cmp	x8, #0x0
   17a74:	9a9f07e2 	cset	x2, ne	// ne = any
   17a78:	aa010041 	orr	x1, x2, x1
   17a7c:	f2400823 	ands	x3, x1, #0x7
   17a80:	54000fa0 	b.eq	17c74 <_obstack_memory_used@@Base+0xae34>  // b.none
   17a84:	d2800003 	mov	x3, #0x0                   	// #0
   17a88:	926a04c6 	and	x6, x6, #0xc00000
   17a8c:	321c0000 	orr	w0, w0, #0x10
   17a90:	f15000df 	cmp	x6, #0x400, lsl #12
   17a94:	54001260 	b.eq	17ce0 <_obstack_memory_used@@Base+0xaea0>  // b.none
   17a98:	f16000df 	cmp	x6, #0x800, lsl #12
   17a9c:	540012a0 	b.eq	17cf0 <_obstack_memory_used@@Base+0xaeb0>  // b.none
   17aa0:	b50000c6 	cbnz	x6, 17ab8 <_obstack_memory_used@@Base+0xac78>
   17aa4:	92400c22 	and	x2, x1, #0xf
   17aa8:	f100105f 	cmp	x2, #0x4
   17aac:	54000060 	b.eq	17ab8 <_obstack_memory_used@@Base+0xac78>  // b.none
   17ab0:	b1001021 	adds	x1, x1, #0x4
   17ab4:	9a833463 	cinc	x3, x3, cs	// cs = hs, nlast
   17ab8:	b7980be3 	tbnz	x3, #51, 17c34 <_obstack_memory_used@@Base+0xadf4>
   17abc:	d343c865 	ubfx	x5, x3, #3, #48
   17ac0:	93c10c68 	extr	x8, x3, x1, #3
   17ac4:	321d0000 	orr	w0, w0, #0x8
   17ac8:	52800001 	mov	w1, #0x0                   	// #0
   17acc:	14000017 	b	17b28 <_obstack_memory_used@@Base+0xace8>
   17ad0:	2a0f03ea 	mov	w10, w15
   17ad4:	aa0303e7 	mov	x7, x3
   17ad8:	aa0403e8 	mov	x8, x4
   17adc:	aa0503ed 	mov	x13, x5
   17ae0:	aa0e03ec 	mov	x12, x14
   17ae4:	17ffff76 	b	178bc <_obstack_memory_used@@Base+0xaa7c>
   17ae8:	b25100e5 	orr	x5, x7, #0x800000000000
   17aec:	2a0b03ea 	mov	w10, w11
   17af0:	9240bca5 	and	x5, x5, #0xffffffffffff
   17af4:	528fffe1 	mov	w1, #0x7fff                	// #32767
   17af8:	17ffff7a 	b	178e0 <_obstack_memory_used@@Base+0xaaa0>
   17afc:	2a0b03e0 	mov	w0, w11
   17b00:	5280000a 	mov	w10, #0x0                   	// #0
   17b04:	92ffffe5 	mov	x5, #0xffffffffffff        	// #281474976710655
   17b08:	92800008 	mov	x8, #0xffffffffffffffff    	// #-1
   17b0c:	528fffe1 	mov	w1, #0x7fff                	// #32767
   17b10:	17ffff74 	b	178e0 <_obstack_memory_used@@Base+0xaaa0>
   17b14:	aa070108 	orr	x8, x8, x7
   17b18:	b5000628 	cbnz	x8, 17bdc <_obstack_memory_used@@Base+0xad9c>
   17b1c:	321d0000 	orr	w0, w0, #0x8
   17b20:	d2800005 	mov	x5, #0x0                   	// #0
   17b24:	52800001 	mov	w1, #0x0                   	// #0
   17b28:	d2800003 	mov	x3, #0x0                   	// #0
   17b2c:	9e670100 	fmov	d0, x8
   17b30:	b340bca3 	bfxil	x3, x5, #0, #48
   17b34:	b3503823 	bfi	x3, x1, #48, #15
   17b38:	b3410143 	bfi	x3, x10, #63, #1
   17b3c:	9eaf0060 	fmov	v0.d[1], x3
   17b40:	3d800fe0 	str	q0, [sp, #48]
   17b44:	940000f3 	bl	17f10 <_obstack_memory_used@@Base+0xb0d0>
   17b48:	3dc00fe0 	ldr	q0, [sp, #48]
   17b4c:	a8c47bfd 	ldp	x29, x30, [sp], #64
   17b50:	d65f03c0 	ret
   17b54:	dac01003 	clz	x3, x0
   17b58:	9100c462 	add	x2, x3, #0x31
   17b5c:	91010063 	add	x3, x3, #0x40
   17b60:	f100f05f 	cmp	x2, #0x3c
   17b64:	54ffeecd 	b.le	1793c <_obstack_memory_used@@Base+0xaafc>
   17b68:	5100f442 	sub	w2, w2, #0x3d
   17b6c:	d2800008 	mov	x8, #0x0                   	// #0
   17b70:	9ac22007 	lsl	x7, x0, x2
   17b74:	17ffff79 	b	17958 <_obstack_memory_used@@Base+0xab18>
   17b78:	dac01081 	clz	x1, x4
   17b7c:	9100c42d 	add	x13, x1, #0x31
   17b80:	91010021 	add	x1, x1, #0x40
   17b84:	f100f1bf 	cmp	x13, #0x3c
   17b88:	54ffe7ad 	b.le	1787c <_obstack_memory_used@@Base+0xaa3c>
   17b8c:	5100f5ad 	sub	w13, w13, #0x3d
   17b90:	9acd208d 	lsl	x13, x4, x13
   17b94:	d2800004 	mov	x4, #0x0                   	// #0
   17b98:	aa0d03e3 	mov	x3, x13
   17b9c:	17ffff3f 	b	17898 <_obstack_memory_used@@Base+0xaa58>
   17ba0:	926a04c8 	and	x8, x6, #0xc00000
   17ba4:	f150011f 	cmp	x8, #0x400, lsl #12
   17ba8:	54000720 	b.eq	17c8c <_obstack_memory_used@@Base+0xae4c>  // b.none
   17bac:	f160011f 	cmp	x8, #0x800, lsl #12
   17bb0:	540004c0 	b.eq	17c48 <_obstack_memory_used@@Base+0xae08>  // b.none
   17bb4:	b50007a8 	cbnz	x8, 17ca8 <_obstack_memory_used@@Base+0xae68>
   17bb8:	528fffe1 	mov	w1, #0x7fff                	// #32767
   17bbc:	d2800005 	mov	x5, #0x0                   	// #0
   17bc0:	52800282 	mov	w2, #0x14                  	// #20
   17bc4:	2a020000 	orr	w0, w0, w2
   17bc8:	17ffffd8 	b	17b28 <_obstack_memory_used@@Base+0xace8>
   17bcc:	a94153f3 	ldp	x19, x20, [sp, #16]
   17bd0:	aa0103e2 	mov	x2, x1
   17bd4:	f94013f5 	ldr	x21, [sp, #32]
   17bd8:	17fffef9 	b	177bc <_obstack_memory_used@@Base+0xa97c>
   17bdc:	926a04c6 	and	x6, x6, #0xc00000
   17be0:	321c0000 	orr	w0, w0, #0x10
   17be4:	cb0d0048 	sub	x8, x2, x13
   17be8:	f15000df 	cmp	x6, #0x400, lsl #12
   17bec:	54fff980 	b.eq	17b1c <_obstack_memory_used@@Base+0xacdc>  // b.none
   17bf0:	f16000df 	cmp	x6, #0x800, lsl #12
   17bf4:	9a9f01a8 	csel	x8, x13, xzr, eq	// eq = none
   17bf8:	17ffffc9 	b	17b1c <_obstack_memory_used@@Base+0xacdc>
   17bfc:	52800802 	mov	w2, #0x40                  	// #64
   17c00:	4b010042 	sub	w2, w2, w1
   17c04:	9ac12503 	lsr	x3, x8, x1
   17c08:	9ac22108 	lsl	x8, x8, x2
   17c0c:	f100011f 	cmp	x8, #0x0
   17c10:	9a9f07e4 	cset	x4, ne	// ne = any
   17c14:	9ac220e2 	lsl	x2, x7, x2
   17c18:	aa030042 	orr	x2, x2, x3
   17c1c:	9ac124e3 	lsr	x3, x7, x1
   17c20:	aa040041 	orr	x1, x2, x4
   17c24:	f240083f 	tst	x1, #0x7
   17c28:	54fff301 	b.ne	17a88 <_obstack_memory_used@@Base+0xac48>  // b.any
   17c2c:	b6980243 	tbz	x3, #51, 17c74 <_obstack_memory_used@@Base+0xae34>
   17c30:	321c0000 	orr	w0, w0, #0x10
   17c34:	321d0000 	orr	w0, w0, #0x8
   17c38:	52800021 	mov	w1, #0x1                   	// #1
   17c3c:	d2800005 	mov	x5, #0x0                   	// #0
   17c40:	d2800008 	mov	x8, #0x0                   	// #0
   17c44:	17ffffb9 	b	17b28 <_obstack_memory_used@@Base+0xace8>
   17c48:	f10001bf 	cmp	x13, #0x0
   17c4c:	528fffe1 	mov	w1, #0x7fff                	// #32767
   17c50:	92ffffe3 	mov	x3, #0xffffffffffff        	// #281474976710655
   17c54:	1a810041 	csel	w1, w2, w1, eq	// eq = none
   17c58:	9a8313e5 	csel	x5, xzr, x3, ne	// ne = any
   17c5c:	da9f13e8 	csetm	x8, eq	// eq = none
   17c60:	17ffffd8 	b	17bc0 <_obstack_memory_used@@Base+0xad80>
   17c64:	b4ffdd2d 	cbz	x13, 17808 <_obstack_memory_used@@Base+0xa9c8>
   17c68:	b1002108 	adds	x8, x8, #0x8
   17c6c:	9a8734e7 	cinc	x7, x7, cs	// cs = hs, nlast
   17c70:	17fffee6 	b	17808 <_obstack_memory_used@@Base+0xa9c8>
   17c74:	d343c865 	ubfx	x5, x3, #3, #48
   17c78:	93c10c68 	extr	x8, x3, x1, #3
   17c7c:	52800001 	mov	w1, #0x0                   	// #0
   17c80:	365fe306 	tbz	w6, #11, 178e0 <_obstack_memory_used@@Base+0xaaa0>
   17c84:	321d0000 	orr	w0, w0, #0x8
   17c88:	17ffffa8 	b	17b28 <_obstack_memory_used@@Base+0xace8>
   17c8c:	f10001bf 	cmp	x13, #0x0
   17c90:	528fffe1 	mov	w1, #0x7fff                	// #32767
   17c94:	92ffffe3 	mov	x3, #0xffffffffffff        	// #281474976710655
   17c98:	1a811041 	csel	w1, w2, w1, ne	// ne = any
   17c9c:	9a8303e5 	csel	x5, xzr, x3, eq	// eq = none
   17ca0:	da9f03e8 	csetm	x8, ne	// ne = any
   17ca4:	17ffffc7 	b	17bc0 <_obstack_memory_used@@Base+0xad80>
   17ca8:	2a0203e1 	mov	w1, w2
   17cac:	92ffffe5 	mov	x5, #0xffffffffffff        	// #281474976710655
   17cb0:	92800008 	mov	x8, #0xffffffffffffffff    	// #-1
   17cb4:	17ffffc3 	b	17bc0 <_obstack_memory_used@@Base+0xad80>
   17cb8:	b5ffda8d 	cbnz	x13, 17808 <_obstack_memory_used@@Base+0xa9c8>
   17cbc:	17ffffeb 	b	17c68 <_obstack_memory_used@@Base+0xae28>
   17cc0:	2a0f03ea 	mov	w10, w15
   17cc4:	aa0303e7 	mov	x7, x3
   17cc8:	aa0403e8 	mov	x8, x4
   17ccc:	d503201f 	nop
   17cd0:	b25100e5 	orr	x5, x7, #0x800000000000
   17cd4:	528fffe1 	mov	w1, #0x7fff                	// #32767
   17cd8:	9240bca5 	and	x5, x5, #0xffffffffffff
   17cdc:	17ffff01 	b	178e0 <_obstack_memory_used@@Base+0xaaa0>
   17ce0:	b5ffeecd 	cbnz	x13, 17ab8 <_obstack_memory_used@@Base+0xac78>
   17ce4:	b1002021 	adds	x1, x1, #0x8
   17ce8:	9a833463 	cinc	x3, x3, cs	// cs = hs, nlast
   17cec:	17ffff73 	b	17ab8 <_obstack_memory_used@@Base+0xac78>
   17cf0:	b4ffee4d 	cbz	x13, 17ab8 <_obstack_memory_used@@Base+0xac78>
   17cf4:	17fffffc 	b	17ce4 <_obstack_memory_used@@Base+0xaea4>
   17cf8:	d503201f 	nop
   17cfc:	d503201f 	nop
   17d00:	34000200 	cbz	w0, 17d40 <_obstack_memory_used@@Base+0xaf00>
   17d04:	2a0003e0 	mov	w0, w0
   17d08:	528807c1 	mov	w1, #0x403e                	// #16446
   17d0c:	dac01002 	clz	x2, x0
   17d10:	51003c43 	sub	w3, w2, #0xf
   17d14:	4b020021 	sub	w1, w1, w2
   17d18:	12003821 	and	w1, w1, #0x7fff
   17d1c:	d2800002 	mov	x2, #0x0                   	// #0
   17d20:	9ac32000 	lsl	x0, x0, x3
   17d24:	9240bc00 	and	x0, x0, #0xffffffffffff
   17d28:	d2800003 	mov	x3, #0x0                   	// #0
   17d2c:	9e670040 	fmov	d0, x2
   17d30:	b340bc03 	bfxil	x3, x0, #0, #48
   17d34:	b3503c23 	bfi	x3, x1, #48, #16
   17d38:	9eaf0060 	fmov	v0.d[1], x3
   17d3c:	d65f03c0 	ret
   17d40:	d2800000 	mov	x0, #0x0                   	// #0
   17d44:	d2800003 	mov	x3, #0x0                   	// #0
   17d48:	b340bc03 	bfxil	x3, x0, #0, #48
   17d4c:	d2800002 	mov	x2, #0x0                   	// #0
   17d50:	9e670040 	fmov	d0, x2
   17d54:	52800001 	mov	w1, #0x0                   	// #0
   17d58:	b3503c23 	bfi	x3, x1, #48, #16
   17d5c:	9eaf0060 	fmov	v0.d[1], x3
   17d60:	d65f03c0 	ret
   17d64:	d503201f 	nop
   17d68:	d503201f 	nop
   17d6c:	d503201f 	nop
   17d70:	a9be7bfd 	stp	x29, x30, [sp, #-32]!
   17d74:	9e660000 	fmov	x0, d0
   17d78:	9eae0001 	fmov	x1, v0.d[1]
   17d7c:	910003fd 	mov	x29, sp
   17d80:	f9000bf3 	str	x19, [sp, #16]
   17d84:	d53b4402 	mrs	x2, fpcr
   17d88:	d370f823 	ubfx	x3, x1, #48, #15
   17d8c:	d340bc33 	ubfx	x19, x1, #0, #48
   17d90:	d287ffc4 	mov	x4, #0x3ffe                	// #16382
   17d94:	eb04007f 	cmp	x3, x4
   17d98:	5400016c 	b.gt	17dc4 <_obstack_memory_used@@Base+0xaf84>
   17d9c:	b5000063 	cbnz	x3, 17da8 <_obstack_memory_used@@Base+0xaf68>
   17da0:	aa130013 	orr	x19, x0, x19
   17da4:	b4000093 	cbz	x19, 17db4 <_obstack_memory_used@@Base+0xaf74>
   17da8:	52800200 	mov	w0, #0x10                  	// #16
   17dac:	d2800013 	mov	x19, #0x0                   	// #0
   17db0:	94000058 	bl	17f10 <_obstack_memory_used@@Base+0xb0d0>
   17db4:	aa1303e0 	mov	x0, x19
   17db8:	f9400bf3 	ldr	x19, [sp, #16]
   17dbc:	a8c27bfd 	ldp	x29, x30, [sp], #32
   17dc0:	d65f03c0 	ret
   17dc4:	d37ffc22 	lsr	x2, x1, #63
   17dc8:	12001c42 	and	w2, w2, #0xff
   17dcc:	340000a2 	cbz	w2, 17de0 <_obstack_memory_used@@Base+0xafa0>
   17dd0:	52800020 	mov	w0, #0x1                   	// #1
   17dd4:	d2800013 	mov	x19, #0x0                   	// #0
   17dd8:	9400004e 	bl	17f10 <_obstack_memory_used@@Base+0xb0d0>
   17ddc:	17fffff6 	b	17db4 <_obstack_memory_used@@Base+0xaf74>
   17de0:	d28807c2 	mov	x2, #0x403e                	// #16446
   17de4:	eb02007f 	cmp	x3, x2
   17de8:	5400024c 	b.gt	17e30 <_obstack_memory_used@@Base+0xaff0>
   17dec:	aa0303e1 	mov	x1, x3
   17df0:	d2880de2 	mov	x2, #0x406f                	// #16495
   17df4:	cb030043 	sub	x3, x2, x3
   17df8:	b2500273 	orr	x19, x19, #0x1000000000000
   17dfc:	f100fc7f 	cmp	x3, #0x3f
   17e00:	5400020c 	b.gt	17e40 <_obstack_memory_used@@Base+0xb000>
   17e04:	4b010042 	sub	w2, w2, w1
   17e08:	128805c3 	mov	w3, #0xffffbfd1            	// #-16431
   17e0c:	0b030021 	add	w1, w1, w3
   17e10:	9ac22402 	lsr	x2, x0, x2
   17e14:	9ac12273 	lsl	x19, x19, x1
   17e18:	aa130053 	orr	x19, x2, x19
   17e1c:	9ac12000 	lsl	x0, x0, x1
   17e20:	b4fffca0 	cbz	x0, 17db4 <_obstack_memory_used@@Base+0xaf74>
   17e24:	52800200 	mov	w0, #0x10                  	// #16
   17e28:	9400003a 	bl	17f10 <_obstack_memory_used@@Base+0xb0d0>
   17e2c:	17ffffe2 	b	17db4 <_obstack_memory_used@@Base+0xaf74>
   17e30:	52800020 	mov	w0, #0x1                   	// #1
   17e34:	92800013 	mov	x19, #0xffffffffffffffff    	// #-1
   17e38:	94000036 	bl	17f10 <_obstack_memory_used@@Base+0xb0d0>
   17e3c:	17ffffde 	b	17db4 <_obstack_memory_used@@Base+0xaf74>
   17e40:	1287fdc2 	mov	w2, #0xffffc011            	// #-16367
   17e44:	0b020022 	add	w2, w1, w2
   17e48:	528805e4 	mov	w4, #0x402f                	// #16431
   17e4c:	4b010084 	sub	w4, w4, w1
   17e50:	f101007f 	cmp	x3, #0x40
   17e54:	9ac22261 	lsl	x1, x19, x2
   17e58:	aa010001 	orr	x1, x0, x1
   17e5c:	9ac42673 	lsr	x19, x19, x4
   17e60:	9a801020 	csel	x0, x1, x0, ne	// ne = any
   17e64:	b4fffa80 	cbz	x0, 17db4 <_obstack_memory_used@@Base+0xaf74>
   17e68:	52800200 	mov	w0, #0x10                  	// #16
   17e6c:	17ffffef 	b	17e28 <_obstack_memory_used@@Base+0xafe8>
   17e70:	b40002a0 	cbz	x0, 17ec4 <_obstack_memory_used@@Base+0xb084>
   17e74:	dac01001 	clz	x1, x0
   17e78:	528807c2 	mov	w2, #0x403e                	// #16446
   17e7c:	4b010042 	sub	w2, w2, w1
   17e80:	d2880de3 	mov	x3, #0x406f                	// #16495
   17e84:	12003844 	and	w4, w2, #0x7fff
   17e88:	cb22c062 	sub	x2, x3, w2, sxtw
   17e8c:	f100fc5f 	cmp	x2, #0x3f
   17e90:	540002ac 	b.gt	17ee4 <_obstack_memory_used@@Base+0xb0a4>
   17e94:	1100c423 	add	w3, w1, #0x31
   17e98:	528001e2 	mov	w2, #0xf                   	// #15
   17e9c:	4b010041 	sub	w1, w2, w1
   17ea0:	9ac12401 	lsr	x1, x0, x1
   17ea4:	9240bc21 	and	x1, x1, #0xffffffffffff
   17ea8:	9ac32000 	lsl	x0, x0, x3
   17eac:	d2800003 	mov	x3, #0x0                   	// #0
   17eb0:	b340bc23 	bfxil	x3, x1, #0, #48
   17eb4:	9e670000 	fmov	d0, x0
   17eb8:	b3503c83 	bfi	x3, x4, #48, #16
   17ebc:	9eaf0060 	fmov	v0.d[1], x3
   17ec0:	d65f03c0 	ret
   17ec4:	d2800001 	mov	x1, #0x0                   	// #0
   17ec8:	d2800003 	mov	x3, #0x0                   	// #0
   17ecc:	b340bc23 	bfxil	x3, x1, #0, #48
   17ed0:	9e670000 	fmov	d0, x0
   17ed4:	52800004 	mov	w4, #0x0                   	// #0
   17ed8:	b3503c83 	bfi	x3, x4, #48, #16
   17edc:	9eaf0060 	fmov	v0.d[1], x3
   17ee0:	d65f03c0 	ret
   17ee4:	51003c21 	sub	w1, w1, #0xf
   17ee8:	d2800003 	mov	x3, #0x0                   	// #0
   17eec:	9ac12001 	lsl	x1, x0, x1
   17ef0:	9240bc21 	and	x1, x1, #0xffffffffffff
   17ef4:	d2800000 	mov	x0, #0x0                   	// #0
   17ef8:	9e670000 	fmov	d0, x0
   17efc:	b340bc23 	bfxil	x3, x1, #0, #48
   17f00:	b3503c83 	bfi	x3, x4, #48, #16
   17f04:	9eaf0060 	fmov	v0.d[1], x3
   17f08:	d65f03c0 	ret
   17f0c:	d503201f 	nop
   17f10:	36000080 	tbz	w0, #0, 17f20 <_obstack_memory_used@@Base+0xb0e0>
   17f14:	0f000401 	movi	v1.2s, #0x0
   17f18:	1e211820 	fdiv	s0, s1, s1
   17f1c:	d53b4421 	mrs	x1, fpsr
   17f20:	360800a0 	tbz	w0, #1, 17f34 <_obstack_memory_used@@Base+0xb0f4>
   17f24:	1e2e1001 	fmov	s1, #1.000000000000000000e+00
   17f28:	0f000402 	movi	v2.2s, #0x0
   17f2c:	1e221820 	fdiv	s0, s1, s2
   17f30:	d53b4421 	mrs	x1, fpsr
   17f34:	36100100 	tbz	w0, #2, 17f54 <_obstack_memory_used@@Base+0xb114>
   17f38:	5298b5c2 	mov	w2, #0xc5ae                	// #50606
   17f3c:	12b01001 	mov	w1, #0x7f7fffff            	// #2139095039
   17f40:	72ae93a2 	movk	w2, #0x749d, lsl #16
   17f44:	1e270021 	fmov	s1, w1
   17f48:	1e270042 	fmov	s2, w2
   17f4c:	1e222820 	fadd	s0, s1, s2
   17f50:	d53b4421 	mrs	x1, fpsr
   17f54:	36180080 	tbz	w0, #3, 17f64 <_obstack_memory_used@@Base+0xb124>
   17f58:	0f044401 	movi	v1.2s, #0x80, lsl #16
   17f5c:	1e210820 	fmul	s0, s1, s1
   17f60:	d53b4421 	mrs	x1, fpsr
   17f64:	362000c0 	tbz	w0, #4, 17f7c <_obstack_memory_used@@Base+0xb13c>
   17f68:	12b01000 	mov	w0, #0x7f7fffff            	// #2139095039
   17f6c:	1e2e1002 	fmov	s2, #1.000000000000000000e+00
   17f70:	1e270001 	fmov	s1, w0
   17f74:	1e223820 	fsub	s0, s1, s2
   17f78:	d53b4420 	mrs	x0, fpsr
   17f7c:	d65f03c0 	ret
   17f80:	a9bf7bfd 	stp	x29, x30, [sp, #-16]!
   17f84:	b00000c2 	adrp	x2, 30000 <_obstack_memory_used@@Base+0x231c0>
   17f88:	d2800001 	mov	x1, #0x0                   	// #0
   17f8c:	910003fd 	mov	x29, sp
   17f90:	a8c17bfd 	ldp	x29, x30, [sp], #16
   17f94:	f9400442 	ldr	x2, [x2, #8]
   17f98:	17ffae5a 	b	3900 <__cxa_atexit@plt>

Disassembly of section .fini:

0000000000017f9c <.fini>:
   17f9c:	d503201f 	nop
   17fa0:	a9bf7bfd 	stp	x29, x30, [sp, #-16]!
   17fa4:	910003fd 	mov	x29, sp
   17fa8:	a8c17bfd 	ldp	x29, x30, [sp], #16
   17fac:	d65f03c0 	ret
